 EmrClient

 Timestamp is 5a77fa11 (Mon Feb 05 14:30:41 2018)

 Preferred load address is 00400000

 Start         Length     Name                   Class
 0001:00000000 0002c7fdH .text$di                CODE
 0001:0002c800 001ebb68H .text$mn                CODE
 0001:00218370 0003316fH .text$x                 CODE
 0001:0024b4e0 0000b179H .text$yd                CODE
 0002:00000000 00000104H .CRT$XCA                DATA
 0002:00000104 00000104H .CRT$XCAA               DATA
 0002:00000208 00001ea4H .CRT$XCU                DATA
 0002:000020ac 00000104H .CRT$XCZ                DATA
 0002:000021b0 00000104H .CRT$XIA                DATA
 0002:000022b4 00000104H .CRT$XIAA               DATA
 0002:000023b8 00000109H .CRT$XIC                DATA
 0002:000024c4 00000104H .CRT$XIY                DATA
 0002:000025c8 00000104H .CRT$XIZ                DATA
 0002:000026d0 000a3e7fH .rdata                  DATA
 0002:000a6550 00000164H .rdata$debug            DATA
 0002:000a66b4 00008e7eH .rdata$r                DATA
 0002:000af540 00002813H .rdata$sxdata           DATA
 0002:000b1d54 00000104H .rtc$IAA                DATA
 0002:000b1e58 00000113H .rtc$IMZ                DATA
 0002:000b1f6c 00000104H .rtc$IZZ                DATA
 0002:000b2070 00000104H .rtc$TAA                DATA
 0002:000b2174 00000113H .rtc$TMZ                DATA
 0002:000b2288 00000104H .rtc$TZZ                DATA
 0002:000b2390 00033abcH .xdata$x                DATA
 0002:000e5e50 00003ae2H .edata                  DATA
 0003:00000000 00000173H .data                   DATA
 0003:00000178 00003490H .data$r                 DATA
 0003:00003608 00001368H .bss                    DATA
 0004:00000000 000033a8H .idata$5                DATA
 0004:000033a8 00000118H .idata$2                DATA
 0004:000034c0 00000014H .idata$3                DATA
 0004:000034d4 000033a8H .idata$4                DATA
 0004:0000687c 000202daH .idata$6                DATA
 0005:00000000 00000169H .rsrc$01                DATA
 0005:00000170 000002ccH .rsrc$02                DATA

  Address         Publics by Value              Rva+Base       Lib:Object

 0000:00000000       __except_list              00000000     <absolute>
 0000:00000000       ___guard_flags             00000000     <absolute>
 0000:00000000       ___guard_fids_count        00000000     <absolute>
 0000:00000000       ___guard_fids_table        00000000     <absolute>
 0000:00000829       ___safe_se_handler_count   00000829     <absolute>
 0000:00009876       __ldused                   00009876     <absolute>
 0000:00009876       __fltused                  00009876     <absolute>
 0000:00000000       ___ImageBase               00400000     <linker-defined>
 0001:0002c800       ??0AuthorityData@@QAE@XZ   0042d800 f   AuthorityData.obj
 0001:0002c830       ??0AuthorityData@@QAE@HVQString@@H@Z 0042d830 f   AuthorityData.obj
 0001:0002c8b0       ??1AuthorityData@@QAE@XZ   0042d8b0 f   AuthorityData.obj
 0001:0002c8d0       ?doSave@AuthorityData@@QAEXPAVBaseIOTools@@@Z 0042d8d0 f   AuthorityData.obj
 0001:0002c920       ?doLoad@AuthorityData@@QAEXPAVBaseIOTools@@@Z 0042d920 f   AuthorityData.obj
 0001:0002c9b0       ?getLevel@AuthorityData@@QAEHXZ 0042d9b0 f   AuthorityData.obj
 0001:0002c9c0       ?getJobName@AuthorityData@@QAE?AVQString@@XZ 0042d9c0 f   AuthorityData.obj
 0001:0002c9f2       ?accepted@QDialog@@QAEXXZ  0042d9f2 f   Qt5Widgetsd:Qt5Widgetsd.dll
 0001:0002ca00       ?tr@AdminLogin@@SA?AVQString@@PBD0H@Z 0042da00 f i adminlogin.obj
 0001:0002ca70       ??$_Allocate@D@std@@YAPADIPAD@Z 0042da70 f i AuthorityData.obj
 0001:0002cac0       ??$_Allocate@U_Container_proxy@std@@@std@@YAPAU_Container_proxy@0@IPAU10@@Z 0042dac0 f i AuthorityData.obj
 0001:0002cb20       ??$_Debug_pointer@D@std@@YAXPBDPB_WI@Z 0042db20 f i AuthorityData.obj
 0001:0002cb50       ??$addressof@D@std@@YAPADAAD@Z 0042db50 f i AuthorityData.obj
 0001:0002cb60       ??$construct@PADAAPAD@?$_Wrap_alloc@V?$allocator@D@std@@@std@@QAEXPAPADAAPAD@Z 0042db60 f i AuthorityData.obj
 0001:0002cba0       ??$construct@PADAAPAD@?$allocator@D@std@@QAEXPAPADAAPAD@Z 0042dba0 f i AuthorityData.obj
 0001:0002cc50       ??$construct@PADAAPAD@?$allocator_traits@V?$allocator@D@std@@@std@@SAXAAV?$allocator@D@1@PAPADAAPAD@Z 0042dc50 f i AuthorityData.obj
 0001:0002cc80       ??$construct@U_Container_proxy@std@@U12@@?$allocator@U_Container_proxy@std@@@std@@QAEXPAU_Container_proxy@1@$$QAU21@@Z 0042dc80 f i AuthorityData.obj
 0001:0002cd30       ??$destroy@PAD@?$_Wrap_alloc@V?$allocator@D@std@@@std@@QAEXPAPAD@Z 0042dd30 f i AuthorityData.obj
 0001:0002cd60       ??$destroy@PAD@?$allocator@D@std@@QAEXPAPAD@Z 0042dd60 f i AuthorityData.obj
 0001:0002cd70       ??$destroy@PAD@?$allocator_traits@V?$allocator@D@std@@@std@@SAXAAV?$allocator@D@1@PAPAD@Z 0042dd70 f i AuthorityData.obj
 0001:0002cd90       ??$destroy@U_Container_proxy@std@@@?$allocator@U_Container_proxy@std@@@std@@QAEXPAU_Container_proxy@1@@Z 0042dd90 f i AuthorityData.obj
 0001:0002cda0       ??$forward@AAPAD@std@@YAAAPADAAPAD@Z 0042dda0 f i AuthorityData.obj
 0001:0002cdb0       ??$forward@U_Container_proxy@std@@@std@@YA$$QAU_Container_proxy@0@AAU10@@Z 0042ddb0 f i AuthorityData.obj
 0001:0002cdc0       ??0?$_String_alloc@$0A@U?$_String_base_types@DV?$allocator@D@std@@@std@@@std@@QAE@ABV?$allocator@D@1@@Z 0042ddc0 f i AuthorityData.obj
 0001:0002ce30       ??0?$_String_val@U?$_Simple_types@D@std@@@std@@QAE@XZ 0042de30 f i AuthorityData.obj
 0001:0002ce70       ??0?$_Wrap_alloc@V?$allocator@D@std@@@std@@QAE@XZ 0042de70 f i AuthorityData.obj
 0001:0002ce90       ??0?$allocator@D@std@@QAE@XZ 0042de90 f i AuthorityData.obj
 0001:0002ceb0       ??0?$allocator@U_Container_proxy@std@@@std@@QAE@XZ 0042deb0 f i AuthorityData.obj
 0001:0002ced0       ??0?$basic_string@DU?$char_traits@D@std@@V?$allocator@D@2@@std@@QAE@PBD@Z 0042ded0 f i AuthorityData.obj
 0001:0002cf60       ??0_Container_proxy@std@@QAE@XZ 0042df60 f i AuthorityData.obj
 0001:0002cf90       ??0_Generic_error_category@std@@QAE@XZ 0042df90 f i AuthorityData.obj
 0001:0002cfc0       ??0_Ignore@std@@QAE@XZ     0042dfc0 f i AuthorityData.obj
 0001:0002cfe0       ??0_Iostream_error_category@std@@QAE@XZ 0042dfe0 f i AuthorityData.obj
 0001:0002d010       ??0_System_error_category@std@@QAE@XZ 0042e010 f i AuthorityData.obj
 0001:0002d040       ??0error_category@std@@QAE@XZ 0042e040 f i AuthorityData.obj
 0001:0002d060       ??0error_condition@std@@QAE@HABVerror_category@1@@Z 0042e060 f i AuthorityData.obj
 0001:0002d090       ??1?$_String_alloc@$0A@U?$_String_base_types@DV?$allocator@D@std@@@std@@@std@@QAE@XZ 0042e090 f i AuthorityData.obj
 0001:0002d0c0       ??1?$_String_val@U?$_Simple_types@D@std@@@std@@QAE@XZ 0042e0c0 f i AuthorityData.obj
 0001:0002d0e0       ??1_Generic_error_category@std@@UAE@XZ 0042e0e0 f i AuthorityData.obj
 0001:0002d100       ??1_Iostream_error_category@std@@UAE@XZ 0042e100 f i AuthorityData.obj
 0001:0002d120       ??1_System_error_category@std@@UAE@XZ 0042e120 f i AuthorityData.obj
 0001:0002d140       ??1error_category@std@@UAE@XZ 0042e140 f i AuthorityData.obj
 0001:0002d160       ??2@YAPAXIPAX@Z            0042e160 f i AuthorityData.obj
 0001:0002d170       ??3@YAXPAX0@Z              0042e170 f i AuthorityData.obj
 0001:0002d180       ??8error_category@std@@QBE_NABV01@@Z 0042e180 f i AuthorityData.obj
 0001:0002d1c0       ??8error_condition@std@@QBE_NABV01@@Z 0042e1c0 f i AuthorityData.obj
 0001:0002d230       ??_E_Generic_error_category@std@@UAEPAXI@Z 0042e230 f i AuthorityData.obj
 0001:0002d230       ??_G_Generic_error_category@std@@UAEPAXI@Z 0042e230 f i AuthorityData.obj
 0001:0002d270       ??_G_Iostream_error_category@std@@UAEPAXI@Z 0042e270 f i AuthorityData.obj
 0001:0002d270       ??_E_Iostream_error_category@std@@UAEPAXI@Z 0042e270 f i AuthorityData.obj
 0001:0002d2b0       ??_E_System_error_category@std@@UAEPAXI@Z 0042e2b0 f i AuthorityData.obj
 0001:0002d2b0       ??_G_System_error_category@std@@UAEPAXI@Z 0042e2b0 f i AuthorityData.obj
 0001:0002d2f0       ??_Eerror_category@std@@UAEPAXI@Z 0042e2f0 f i AuthorityData.obj
 0001:0002d2f0       ??_Gerror_category@std@@UAEPAXI@Z 0042e2f0 f i AuthorityData.obj
 0001:0002d330       ?_Alloc_proxy@?$_String_alloc@$0A@U?$_String_base_types@DV?$allocator@D@std@@@std@@@std@@QAEXXZ 0042e330 f i AuthorityData.obj
 0001:0002d390       ?_Copy@?$basic_string@DU?$char_traits@D@std@@V?$allocator@D@2@@std@@QAEXII@Z 0042e390 f i AuthorityData.obj
 0001:0002d5c0       ?_Eos@?$basic_string@DU?$char_traits@D@std@@V?$allocator@D@2@@std@@QAEXI@Z 0042e5c0 f i AuthorityData.obj
 0001:0002d610       ?_Free_proxy@?$_String_alloc@$0A@U?$_String_base_types@DV?$allocator@D@std@@@std@@@std@@QAEXXZ 0042e610 f i AuthorityData.obj
 0001:0002d670       ?_Getal@?$_String_alloc@$0A@U?$_String_base_types@DV?$allocator@D@std@@@std@@@std@@QBE?AU?$_Wrap_alloc@V?$allocator@D@std@@@2@XZ 0042e670 f i AuthorityData.obj
 0001:0002d690       ?_Grow@?$basic_string@DU?$char_traits@D@std@@V?$allocator@D@2@@std@@QAE_NI_N@Z 0042e690 f i AuthorityData.obj
 0001:0002d760       ?_Inside@?$basic_string@DU?$char_traits@D@std@@V?$allocator@D@2@@std@@QAE_NPBD@Z 0042e760 f i AuthorityData.obj
 0001:0002d7b0       ?_Myptr@?$_String_val@U?$_Simple_types@D@std@@@std@@QAEPADXZ 0042e7b0 f i AuthorityData.obj
 0001:0002d800       ?_Myptr@?$_String_val@U?$_Simple_types@D@std@@@std@@QBEPBDXZ 0042e800 f i AuthorityData.obj
 0001:0002d850       ?_Tidy@?$basic_string@DU?$char_traits@D@std@@V?$allocator@D@2@@std@@QAEX_NI@Z 0042e850 f i AuthorityData.obj
 0001:0002d920       ?_Xlen@?$basic_string@DU?$char_traits@D@std@@V?$allocator@D@2@@std@@QBEXXZ 0042e920 f i AuthorityData.obj
 0001:0002d940       ?_Xran@?$basic_string@DU?$char_traits@D@std@@V?$allocator@D@2@@std@@QBEXXZ 0042e940 f i AuthorityData.obj
 0001:0002d960       ?allocate@?$_Wrap_alloc@V?$allocator@D@std@@@std@@QAEPADI@Z 0042e960 f i AuthorityData.obj
 0001:0002d980       ?allocate@?$allocator@D@std@@QAEPADI@Z 0042e980 f i AuthorityData.obj
 0001:0002d9b0       ?allocate@?$allocator@U_Container_proxy@std@@@std@@QAEPAU_Container_proxy@2@I@Z 0042e9b0 f i AuthorityData.obj
 0001:0002d9e0       ?assign@?$basic_string@DU?$char_traits@D@std@@V?$allocator@D@2@@std@@QAEAAV12@ABV12@II@Z 0042e9e0 f i AuthorityData.obj
 0001:0002dac0       ?assign@?$basic_string@DU?$char_traits@D@std@@V?$allocator@D@2@@std@@QAEAAV12@PBD@Z 0042eac0 f i AuthorityData.obj
 0001:0002db10       ?assign@?$basic_string@DU?$char_traits@D@std@@V?$allocator@D@2@@std@@QAEAAV12@PBDI@Z 0042eb10 f i AuthorityData.obj
 0001:0002dbd0       ?assign@?$char_traits@D@std@@SAXAADABD@Z 0042ebd0 f i AuthorityData.obj
 0001:0002dbf0       ?category@error_code@std@@QBEABVerror_category@2@XZ 0042ebf0 f i AuthorityData.obj
 0001:0002dc10       ?category@error_condition@std@@QBEABVerror_category@2@XZ 0042ec10 f i AuthorityData.obj
 0001:0002dc30       ?copy@?$char_traits@D@std@@SAPADPADPBDI@Z 0042ec30 f i AuthorityData.obj
 0001:0002dc70       ?deallocate@?$_Wrap_alloc@V?$allocator@D@std@@@std@@QAEXPADI@Z 0042ec70 f i AuthorityData.obj
 0001:0002dca0       ?deallocate@?$allocator@D@std@@QAEXPADI@Z 0042eca0 f i AuthorityData.obj
 0001:0002dcc0       ?deallocate@?$allocator@U_Container_proxy@std@@@std@@QAEXPAU_Container_proxy@2@I@Z 0042ecc0 f i AuthorityData.obj
 0001:0002dce0       ?default_error_condition@_System_error_category@std@@UBE?AVerror_condition@2@H@Z 0042ece0 f i AuthorityData.obj
 0001:0002dd40       ?default_error_condition@error_category@std@@UBE?AVerror_condition@2@H@Z 0042ed40 f i AuthorityData.obj
 0001:0002dd70       ?equivalent@error_category@std@@UBE_NABVerror_code@2@H@Z 0042ed70 f i AuthorityData.obj
 0001:0002ddd0       ?equivalent@error_category@std@@UBE_NHABVerror_condition@2@@Z 0042edd0 f i AuthorityData.obj
 0001:0002de10       ?erase@?$basic_string@DU?$char_traits@D@std@@V?$allocator@D@2@@std@@QAEAAV12@I@Z 0042ee10 f i AuthorityData.obj
 0001:0002de50       ?erase@?$basic_string@DU?$char_traits@D@std@@V?$allocator@D@2@@std@@QAEAAV12@II@Z 0042ee50 f i AuthorityData.obj
 0001:0002df00       ?generic_category@std@@YAABVerror_category@1@XZ 0042ef00 f i AuthorityData.obj
 0001:0002df10       ?length@?$char_traits@D@std@@SAIPBD@Z 0042ef10 f i AuthorityData.obj
 0001:0002df50       ?max_size@?$_Wrap_alloc@V?$allocator@D@std@@@std@@QBEIXZ 0042ef50 f i AuthorityData.obj
 0001:0002df70       ?max_size@?$allocator@D@std@@QBEIXZ 0042ef70 f i AuthorityData.obj
 0001:0002df90       ?max_size@?$allocator_traits@V?$allocator@D@std@@@std@@SAIABV?$allocator@D@2@@Z 0042ef90 f i AuthorityData.obj
 0001:0002dfa0       ?max_size@?$basic_string@DU?$char_traits@D@std@@V?$allocator@D@2@@std@@QBEIXZ 0042efa0 f i AuthorityData.obj
 0001:0002dff0       ?message@_Generic_error_category@std@@UBE?AV?$basic_string@DU?$char_traits@D@std@@V?$allocator@D@2@@2@H@Z 0042eff0 f i AuthorityData.obj
 0001:0002e060       ?message@_Iostream_error_category@std@@UBE?AV?$basic_string@DU?$char_traits@D@std@@V?$allocator@D@2@@2@H@Z 0042f060 f i AuthorityData.obj
 0001:0002e0d0       ?message@_System_error_category@std@@UBE?AV?$basic_string@DU?$char_traits@D@std@@V?$allocator@D@2@@2@H@Z 0042f0d0 f i AuthorityData.obj
 0001:0002e140       ?move@?$char_traits@D@std@@SAPADPADPBDI@Z 0042f140 f i AuthorityData.obj
 0001:0002e180       ?name@_Generic_error_category@std@@UBEPBDXZ 0042f180 f i AuthorityData.obj
 0001:0002e1a0       ?name@_Iostream_error_category@std@@UBEPBDXZ 0042f1a0 f i AuthorityData.obj
 0001:0002e1c0       ?name@_System_error_category@std@@UBEPBDXZ 0042f1c0 f i AuthorityData.obj
 0001:0002e1e0       ?size@?$basic_string@DU?$char_traits@D@std@@V?$allocator@D@2@@std@@QBEIXZ 0042f1e0 f i AuthorityData.obj
 0001:0002e200       ?system_category@std@@YAABVerror_category@1@XZ 0042f200 f i AuthorityData.obj
 0001:0002e210       ?value@error_code@std@@QBEHXZ 0042f210 f i AuthorityData.obj
 0001:0002e230       ?value@error_condition@std@@QBEHXZ 0042f230 f i AuthorityData.obj
 0001:0002e250       _hypot                     0042f250 f i AuthorityData.obj
 0001:0002e290       ??0AuthorityViewLineAndStr@@QAE@XZ 0042f290 f   AuthorityViewLineAndStr.obj
 0001:0002e2e0       ??0AuthorityViewLineAndStr@@QAE@HDHH@Z 0042f2e0 f   AuthorityViewLineAndStr.obj
 0001:0002e330       ??1AuthorityViewLineAndStr@@UAE@XZ 0042f330 f   AuthorityViewLineAndStr.obj
 0001:0002e350       ?getLineNum@AuthorityViewLineAndStr@@QAEHXZ 0042f350 f   AuthorityViewLineAndStr.obj
 0001:0002e370       ?getLinePosition@AuthorityViewLineAndStr@@QAEDXZ 0042f370 f   AuthorityViewLineAndStr.obj
 0001:0002e390       ?getLineColor@AuthorityViewLineAndStr@@QAEHXZ 0042f390 f   AuthorityViewLineAndStr.obj
 0001:0002e3b0       ?getStrColor@AuthorityViewLineAndStr@@QAEHXZ 0042f3b0 f   AuthorityViewLineAndStr.obj
 0001:0002e410       ??_GAuthorityViewLineAndStr@@UAEPAXI@Z 0042f410 f i AuthorityViewLineAndStr.obj
 0001:0002e410       ??_EAuthorityViewLineAndStr@@UAEPAXI@Z 0042f410 f i AuthorityViewLineAndStr.obj
 0001:0002e550       ??C?$QScopedPointer@VQObjectData@@U?$QScopedPointerDeleter@VQObjectData@@@@@@QBEPAVQObjectData@@XZ 0042f550 f i moc_adminlogin.obj
 0001:0002e5b0       ?qt_noop@@YAXXZ            0042f5b0 f i moc_adminlogin.obj
 0001:0002e5c0       ?metaObject@QuaGzipFile@@UBEPBUQMetaObject@@XZ 0042f5c0 f   moc_quagzipfile.obj
 0001:0002e600       ?qt_metacast@QuaGzipFile@@UAEPAXPBD@Z 0042f600 f   moc_quagzipfile.obj
 0001:0002e640       ?qt_metacall@QuaGzipFile@@UAEHW4Call@QMetaObject@@HPAPAX@Z 0042f640 f   moc_quagzipfile.obj
 0001:0002e680       ?qt_static_metacall@QuaGzipFile@@CAXPAVQObject@@W4Call@QMetaObject@@HPAPAX@Z 0042f680 f   moc_quagzipfile.obj
 0001:0002e6c0       ?tr@QuaGzipFile@@SA?AVQString@@PBD0H@Z 0042f6c0 f i moc_quagzipfile.obj
 0001:0002e710       ?trUtf8@QuaGzipFile@@SA?AVQString@@PBD0H@Z 0042f710 f i moc_quagzipfile.obj
 0001:0002e760       ?metaObject@QuaZIODevice@@UBEPBUQMetaObject@@XZ 0042f760 f   moc_quaziodevice.obj
 0001:0002e7a0       ?qt_metacast@QuaZIODevice@@UAEPAXPBD@Z 0042f7a0 f   moc_quaziodevice.obj
 0001:0002e7e0       ?qt_metacall@QuaZIODevice@@UAEHW4Call@QMetaObject@@HPAPAX@Z 0042f7e0 f   moc_quaziodevice.obj
 0001:0002e820       ?qt_static_metacall@QuaZIODevice@@CAXPAVQObject@@W4Call@QMetaObject@@HPAPAX@Z 0042f820 f   moc_quaziodevice.obj
 0001:0002e860       ?tr@QuaZIODevice@@SA?AVQString@@PBD0H@Z 0042f860 f i moc_quaziodevice.obj
 0001:0002e8b0       ?trUtf8@QuaZIODevice@@SA?AVQString@@PBD0H@Z 0042f8b0 f i moc_quaziodevice.obj
 0001:0002e900       ?metaObject@QuaZipFile@@UBEPBUQMetaObject@@XZ 0042f900 f   moc_quazipfile.obj
 0001:0002e940       ?qt_metacast@QuaZipFile@@UAEPAXPBD@Z 0042f940 f   moc_quazipfile.obj
 0001:0002e980       ?qt_metacall@QuaZipFile@@UAEHW4Call@QMetaObject@@HPAPAX@Z 0042f980 f   moc_quazipfile.obj
 0001:0002e9c0       ?qt_static_metacall@QuaZipFile@@CAXPAVQObject@@W4Call@QMetaObject@@HPAPAX@Z 0042f9c0 f   moc_quazipfile.obj
 0001:0002ea00       ??0QuaZipFileInfo64@@QAE@ABU0@@Z 0042fa00 f i moc_quazipfile.obj
 0001:0002eb70       ??0QuaZipFileInfo64@@QAE@XZ 0042fb70 f i moc_quazipfile.obj
 0001:0002ec10       ??0QuaZipFileInfo@@QAE@ABU0@@Z 0042fc10 f i moc_quazipfile.obj
 0001:0002ed70       ??0QuaZipFileInfo@@QAE@XZ  0042fd70 f i moc_quazipfile.obj
 0001:0002ee10       ??0QuaZipNewInfo@@QAE@ABU0@@Z 0042fe10 f i moc_quazipfile.obj
 0001:0002ef20       ??1QuaZipFileInfo64@@QAE@XZ 0042ff20 f i moc_quazipfile.obj
 0001:0002efc0       ??1QuaZipFileInfo@@QAE@XZ  0042ffc0 f i moc_quazipfile.obj
 0001:0002f060       ??1QuaZipNewInfo@@QAE@XZ   00430060 f i moc_quazipfile.obj
 0001:0002f110       ??4QuaZipFileInfo64@@QAEAAU0@ABU0@@Z 00430110 f i moc_quazipfile.obj
 0001:0002f230       ??4QuaZipFileInfo@@QAEAAU0@ABU0@@Z 00430230 f i moc_quazipfile.obj
 0001:0002f340       ??4QuaZipNewInfo@@QAEAAU0@ABU0@@Z 00430340 f i moc_quazipfile.obj
 0001:0002f400       ?isEncrypted@QuaZipFileInfo64@@QBE_NXZ 00430400 f i moc_quazipfile.obj
 0001:0002f440       ?open@QuaZipFile@@QAE_NV?$QFlags@W4OpenModeFlag@QIODevice@@@@PBD@Z 00430440 f i moc_quazipfile.obj
 0001:0002f470       ?tr@QuaZipFile@@SA?AVQString@@PBD0H@Z 00430470 f i moc_quazipfile.obj
 0001:0002f4c0       ?trUtf8@QuaZipFile@@SA?AVQString@@PBD0H@Z 004304c0 f i moc_quazipfile.obj
 0001:0002f510       ??0CompressTool@@QAE@XZ    00430510 f   CompressTool.obj
 0001:0002f520       ??1CompressTool@@QAE@XZ    00430520 f   CompressTool.obj
 0001:0002f530       ?copyData@CompressTool@@SA_NAAVQIODevice@@0@Z 00430530 f   CompressTool.obj
 0001:0002f600       ?compressQString@CompressTool@@SAXAAVQString@@0@Z 00430600 f   CompressTool.obj
 0001:0002f6c0       ?extractQString@CompressTool@@SAXAAVQString@@0@Z 004306c0 f   CompressTool.obj
 0001:0002f780       ?compressByteArray@CompressTool@@SAXAAVQByteArray@@0@Z 00430780 f   CompressTool.obj
 0001:0002f8d0       ?extractByteArray@CompressTool@@SAXAAVQByteArray@@0@Z 004308d0 f   CompressTool.obj
 0001:0002fb20       ?compressString@CompressTool@@SA?AVQString@@V2@@Z 00430b20 f   CompressTool.obj
 0001:0002fb90       ?extractString@CompressTool@@SA?AVQString@@V2@@Z 00430b90 f   CompressTool.obj
 0001:0002fc00       ?extract@CompressTool@@SA_NABVQString@@0@Z 00430c00 f   CompressTool.obj
 0001:0002ffb0       ?extractFile@CompressTool@@SAXABVQString@@0@Z 00430fb0 f   CompressTool.obj
 0001:00030050       ?compressFile@CompressTool@@SAXABVQString@@0@Z 00431050 f   CompressTool.obj
 0001:000300d0       ?saveByteArrayToFile@CompressTool@@SAXABVQString@@AAVQByteArray@@@Z 004310d0 f   CompressTool.obj
 0001:00030260       ?readByteArrayFromFile@CompressTool@@SAXABVQString@@AAVQByteArray@@@Z 00431260 f   CompressTool.obj
 0001:000303b0       ?getFileNames@CompressTool@@SA?AVQStringList@@ABVQString@@@Z 004313b0 f   CompressTool.obj
 0001:000304b0       ?deleteFilesInDir@CompressTool@@SAXABVQString@@@Z 004314b0 f   CompressTool.obj
 0001:00030610       ?metaObject@AdminLogin@@UBEPBUQMetaObject@@XZ 00431610 f   moc_adminlogin.obj
 0001:00030650       ?qt_metacast@AdminLogin@@UAEPAXPBD@Z 00431650 f   moc_adminlogin.obj
 0001:00030690       ?qt_metacall@AdminLogin@@UAEHW4Call@QMetaObject@@HPAPAX@Z 00431690 f   moc_adminlogin.obj
 0001:00030720       ?qt_static_metacall@AdminLogin@@CAXPAVQObject@@W4Call@QMetaObject@@HPAPAX@Z 00431720 f   moc_adminlogin.obj
 0001:00030a50       ??$atomic@H@?$QAtomicOpsBySize@$03@@CAPAJPAH@Z 00431a50 f i CompressTool.obj
 0001:00030a60       ??$deref@H@?$QAtomicOpsBySize@$03@@SA_NAAH@Z 00431a60 f i CompressTool.obj
 0001:00030aa0       ??$load@H@?$QGenericAtomicOps@U?$QAtomicOpsBySize@$03@@@@SAHABH@Z 00431aa0 f i CompressTool.obj
 0001:00030ab0       ??$ref@H@?$QAtomicOpsBySize@$03@@SA_NAAH@Z 00431ab0 f i CompressTool.obj
 0001:00030af0       ??0?$QFlags@W4Filter@QDir@@@@QAE@VQFlag@@@Z 00431af0 f i CompressTool.obj
 0001:00030b20       ??0?$QFlags@W4Filter@QDir@@@@QAE@W4Filter@QDir@@@Z 00431b20 f i CompressTool.obj
 0001:00030b40       ??0?$QFlags@W4OpenModeFlag@QIODevice@@@@QAE@VQFlag@@@Z 00431b40 f i CompressTool.obj
 0001:00030b70       ??0?$QFlags@W4OpenModeFlag@QIODevice@@@@QAE@W4OpenModeFlag@QIODevice@@@Z 00431b70 f i CompressTool.obj
 0001:00030b90       ??0?$QFlags@W4SortFlag@QDir@@@@QAE@W4SortFlag@QDir@@@Z 00431b90 f i CompressTool.obj
 0001:00030bb0       ??0?$QList@VQString@@@@QAE@ABV0@@Z 00431bb0 f i CompressTool.obj
 0001:00030cd0       ??0?$QList@VQString@@@@QAE@XZ 00431cd0 f i CompressTool.obj
 0001:00030cf0       ??0QFlag@@QAE@H@Z          00431cf0 f i CompressTool.obj
 0001:00030d10       ??0QStringList@@QAE@ABV0@@Z 00431d10 f i CompressTool.obj
 0001:00030d40       ??0QStringList@@QAE@XZ     00431d40 f i CompressTool.obj
 0001:00030d60       ??1?$QList@VQString@@@@QAE@XZ 00431d60 f i CompressTool.obj
 0001:00030da0       ??1QStringList@@QAE@XZ     00431da0 f i CompressTool.obj
 0001:00030dc0       ??4JlCompress@@QAEAAV0@ABV0@@Z 00431dc0 f i CompressTool.obj
 0001:00030de0       ??6QStringList@@QAEAAV0@ABVQString@@@Z 00431de0 f i CompressTool.obj
 0001:00030e10       ??BQFlag@@QBEHXZ           00431e10 f i CompressTool.obj
 0001:00030e30       ??H@YA?BVQString@@ABV0@0@Z 00431e30 f i CompressTool.obj
 0001:00030ee0       ??H@YA?BVQString@@ABV0@PBD@Z 00431ee0 f i CompressTool.obj
 0001:00030fc0       ??U?$QFlags@W4Filter@QDir@@@@QBE?AV0@W4Filter@QDir@@@Z 00431fc0 f i CompressTool.obj
 0001:00031000       ??U?$QFlags@W4OpenModeFlag@QIODevice@@@@QBE?AV0@W4OpenModeFlag@QIODevice@@@Z 00432000 f i CompressTool.obj
 0001:00031040       ??U@YA?AV?$QFlags@W4Filter@QDir@@@@W4Filter@QDir@@0@Z 00432040 f i CompressTool.obj
 0001:00031070       ??U@YA?AV?$QFlags@W4OpenModeFlag@QIODevice@@@@W4OpenModeFlag@QIODevice@@0@Z 00432070 f i CompressTool.obj
 0001:000310a0       ??_GQString@@QAEPAXI@Z     004320a0 f i CompressTool.obj
 0001:000310e0       ?append@?$QList@VQString@@@@QAEXABVQString@@@Z 004320e0 f i CompressTool.obj
 0001:000312b0       ?at@?$QList@VQString@@@@QBEABVQString@@H@Z 004322b0 f i CompressTool.obj
 0001:00031340       ?dealloc@?$QList@VQString@@@@AAEXPAUData@QListData@@@Z 00432340 f i CompressTool.obj
 0001:00031390       ?deref@?$QBasicAtomicInteger@H@@QAE_NXZ 00432390 f i CompressTool.obj
 0001:000313b0       ?deref@RefCount@QtPrivate@@QAE_NXZ 004323b0 f i CompressTool.obj
 0001:00031400       ?detach_helper_grow@?$QList@VQString@@@@AAEPAUNode@1@HH@Z 00432400 f i CompressTool.obj
 0001:00031600       ?isShared@RefCount@QtPrivate@@QBE_NXZ 00432600 f i CompressTool.obj
 0001:00031650       ?load@?$QBasicAtomicInteger@H@@QBEHXZ 00432650 f i CompressTool.obj
 0001:00031670       ?node_construct@?$QList@VQString@@@@AAEXPAUNode@1@ABVQString@@@Z 00432670 f i CompressTool.obj
 0001:000317a0       ?node_copy@?$QList@VQString@@@@AAEXPAUNode@1@00@Z 004327a0 f i CompressTool.obj
 0001:00031a50       ?node_destruct@?$QList@VQString@@@@AAEXPAUNode@1@0@Z 00432a50 f i CompressTool.obj
 0001:00031af0       ?node_destruct@?$QList@VQString@@@@AAEXPAUNode@1@@Z 00432af0 f i CompressTool.obj
 0001:00031b60       ?ref@?$QBasicAtomicInteger@H@@QAE_NXZ 00432b60 f i CompressTool.obj
 0001:00031b80       ?ref@RefCount@QtPrivate@@QAE_NXZ 00432b80 f i CompressTool.obj
 0001:00031bc0       ?size@?$QList@VQString@@@@QBEHXZ 00432bc0 f i CompressTool.obj
 0001:00031be0       ?t@Node@?$QList@VQString@@@@QAEAAVQString@@XZ 00432be0 f i CompressTool.obj
 0001:00031c10       ??0WriterLogicMgr@@QAE@XZ  00432c10 f   WriterLogicMgr.obj
 0001:00031c30       ??1WriterLogicMgr@@QAE@XZ  00432c30 f   WriterLogicMgr.obj
 0001:00031c90       ?addToRunningList@WriterLogicMgr@@QAEXPAVBaseLogic@@@Z 00432c90 f   WriterLogicMgr.obj
 0001:00031d40       ?removeFromRunningList@WriterLogicMgr@@QAEXPAVBaseLogic@@@Z 00432d40 f   WriterLogicMgr.obj
 0001:00031d70       ?clearRunningList@WriterLogicMgr@@QAEXXZ 00432d70 f   WriterLogicMgr.obj
 0001:00031d90       ?myUpdate@WriterLogicMgr@@QAEXXZ 00432d90 f   WriterLogicMgr.obj
 0001:00031e70       ??$_Move@AAPAUData@QListData@@@std@@YA$$QAPAUData@QListData@@AAPAU12@@Z 00432e70 f i WriterLogicMgr.obj
 0001:00031e80       ??$qMax@H@@YAABHABH0@Z     00432e80 f i WriterLogicMgr.obj
 0001:00031ec0       ??$qSwap@PAUData@QListData@@@@YAXAAPAUData@QListData@@0@Z 00432ec0 f i WriterLogicMgr.obj
 0001:00031ee0       ??$swap@PAUData@QListData@@@std@@YAXAAPAUData@QListData@@0@Z 00432ee0 f i WriterLogicMgr.obj
 0001:00031f30       ??0?$QList@PAVBaseLogic@@@@QAE@XZ 00432f30 f i WriterLogicMgr.obj
 0001:00031f50       ??1?$QList@PAVBaseLogic@@@@QAE@XZ 00432f50 f i WriterLogicMgr.obj
 0001:00031f90       ??4?$QList@PAVBaseLogic@@@@QAEAAV0@$$QAV0@@Z 00432f90 f i WriterLogicMgr.obj
 0001:00031fc0       ??_G?$QList@PAVBaseLogic@@@@QAEPAXI@Z 00432fc0 f i WriterLogicMgr.obj
 0001:00032000       ?append@?$QList@PAVBaseLogic@@@@QAEXABQAVBaseLogic@@@Z 00433000 f i WriterLogicMgr.obj
 0001:000321d0       ?at@?$QList@PAVBaseLogic@@@@QBEABQAVBaseLogic@@H@Z 004331d0 f i WriterLogicMgr.obj
 0001:00032260       ?clear@?$QList@PAVBaseLogic@@@@QAEXXZ 00433260 f i WriterLogicMgr.obj
 0001:000322f0       ?dealloc@?$QList@PAVBaseLogic@@@@AAEXPAUData@QListData@@@Z 004332f0 f i WriterLogicMgr.obj
 0001:00032340       ?detach@?$QList@PAVBaseLogic@@@@QAEXXZ 00433340 f i WriterLogicMgr.obj
 0001:00032370       ?detach_helper@?$QList@PAVBaseLogic@@@@AAEXH@Z 00433370 f i WriterLogicMgr.obj
 0001:00032490       ?detach_helper@?$QList@PAVBaseLogic@@@@AAEXXZ 00433490 f i WriterLogicMgr.obj
 0001:000324c0       ?detach_helper_grow@?$QList@PAVBaseLogic@@@@AAEPAUNode@1@HH@Z 004334c0 f i WriterLogicMgr.obj
 0001:000326c0       ?indexOf@?$QList@PAVBaseLogic@@@@QBEHABQAVBaseLogic@@H@Z 004336c0 f i WriterLogicMgr.obj
 0001:000327a0       ?node_construct@?$QList@PAVBaseLogic@@@@AAEXPAUNode@1@ABQAVBaseLogic@@@Z 004337a0 f i WriterLogicMgr.obj
 0001:00032860       ?node_copy@?$QList@PAVBaseLogic@@@@AAEXPAUNode@1@00@Z 00433860 f i WriterLogicMgr.obj
 0001:00032ab0       ?node_destruct@?$QList@PAVBaseLogic@@@@AAEXPAUNode@1@0@Z 00433ab0 f i WriterLogicMgr.obj
 0001:00032b20       ?node_destruct@?$QList@PAVBaseLogic@@@@AAEXPAUNode@1@@Z 00433b20 f i WriterLogicMgr.obj
 0001:00032b50       ?push_back@?$QList@PAVBaseLogic@@@@QAEXABQAVBaseLogic@@@Z 00433b50 f i WriterLogicMgr.obj
 0001:00032b70       ?removeAt@?$QList@PAVBaseLogic@@@@QAEXH@Z 00433b70 f i WriterLogicMgr.obj
 0001:00032bd0       ?removeOne@?$QList@PAVBaseLogic@@@@QAE_NABQAVBaseLogic@@@Z 00433bd0 f i WriterLogicMgr.obj
 0001:00032c20       ?size@?$QList@PAVBaseLogic@@@@QBEHXZ 00433c20 f i WriterLogicMgr.obj
 0001:00032c40       ?t@Node@?$QList@PAVBaseLogic@@@@QAEAAPAVBaseLogic@@XZ 00433c40 f i WriterLogicMgr.obj
 0001:00032c70       ?extractDir@JlCompress@@CA?AVQStringList@@AAVQuaZip@@ABVQString@@@Z 00433c70 f   JlCompress.obj
 0001:00032ee0       ?getFileList@JlCompress@@CA?AVQStringList@@PAVQuaZip@@@Z 00433ee0 f   JlCompress.obj
 0001:000330f0       ?extractFile@JlCompress@@CA?AVQString@@AAVQuaZip@@V2@1@Z 004340f0 f   JlCompress.obj
 0001:000332d0       ?extractFiles@JlCompress@@CA?AVQStringList@@AAVQuaZip@@ABV2@ABVQString@@@Z 004342d0 f   JlCompress.obj
 0001:000334f0       ?compressFile@JlCompress@@CA_NPAVQuaZip@@VQString@@1@Z 004344f0 f   JlCompress.obj
 0001:00033810       ?compressSubDir@JlCompress@@CA_NPAVQuaZip@@VQString@@1_NV?$QFlags@W4Filter@QDir@@@@@Z 00434810 f   JlCompress.obj
 0001:00033fb0       ?extractFile@JlCompress@@CA_NPAVQuaZip@@VQString@@1@Z 00434fb0 f   JlCompress.obj
 0001:00034670       ?removeFile@JlCompress@@CA_NVQStringList@@@Z 00435670 f   JlCompress.obj
 0001:00034730       ?compressFile@JlCompress@@SA_NVQString@@0@Z 00435730 f   JlCompress.obj
 0001:000349d0       ?compressFiles@JlCompress@@SA_NVQString@@VQStringList@@@Z 004359d0 f   JlCompress.obj
 0001:00034d20       ?compressDir@JlCompress@@SA_NVQString@@0_N@Z 00435d20 f   JlCompress.obj
 0001:00034e00       ?compressDir@JlCompress@@SA_NVQString@@0_NV?$QFlags@W4Filter@QDir@@@@@Z 00435e00 f   JlCompress.obj
 0001:00035060       ?extractFile@JlCompress@@SA?AVQString@@V2@00@Z 00436060 f   JlCompress.obj
 0001:00035140       ?extractFiles@JlCompress@@SA?AVQStringList@@VQString@@V2@0@Z 00436140 f   JlCompress.obj
 0001:000351f0       ?extractDir@JlCompress@@SA?AVQStringList@@VQString@@0@Z 004361f0 f   JlCompress.obj
 0001:00035290       ?getFileList@JlCompress@@SA?AVQStringList@@VQString@@@Z 00436290 f   JlCompress.obj
 0001:000353c0       ?extractFile@JlCompress@@SA?AVQString@@PAVQIODevice@@V2@1@Z 004363c0 f   JlCompress.obj
 0001:00035490       ?extractFiles@JlCompress@@SA?AVQStringList@@PAVQIODevice@@V2@VQString@@@Z 00436490 f   JlCompress.obj
 0001:00035530       ?extractDir@JlCompress@@SA?AVQStringList@@PAVQIODevice@@VQString@@@Z 00436530 f   JlCompress.obj
 0001:000355c0       ?getFileList@JlCompress@@SA?AVQStringList@@PAVQIODevice@@@Z 004365c0 f   JlCompress.obj
 0001:000361e0       ??0?$QFlags@W4Filter@QDir@@@@QAE@PQPrivate@0@H@Z 004371e0 f i JlCompress.obj
 0001:00036200       ??0?$QForeachContainer@V?$QList@VQFileInfo@@@@@@QAE@ABV?$QList@VQFileInfo@@@@@Z 00437200 f i JlCompress.obj
 0001:000362a0       ??0?$QForeachContainer@VQStringList@@@@QAE@ABVQStringList@@@Z 004372a0 f i JlCompress.obj
 0001:00036340       ??0?$QList@VQFileInfo@@@@QAE@ABV0@@Z 00437340 f i JlCompress.obj
 0001:00036460       ??0QStringList@@QAE@ABVQString@@@Z 00437460 f i JlCompress.obj
 0001:000364e0       ??0const_iterator@?$QList@VQFileInfo@@@@QAE@PAUNode@1@@Z 004374e0 f i JlCompress.obj
 0001:00036500       ??0const_iterator@?$QList@VQString@@@@QAE@PAUNode@1@@Z 00437500 f i JlCompress.obj
 0001:00036520       ??1?$QForeachContainer@V?$QList@VQFileInfo@@@@@@QAE@XZ 00437520 f i JlCompress.obj
 0001:00036540       ??1?$QForeachContainer@VQStringList@@@@QAE@XZ 00437540 f i JlCompress.obj
 0001:00036560       ??1?$QList@VQFileInfo@@@@QAE@XZ 00437560 f i JlCompress.obj
 0001:000365a0       ??9@YA_NABVQString@@0@Z    004375a0 f i JlCompress.obj
 0001:000365e0       ??9const_iterator@?$QList@VQFileInfo@@@@QBE_NABV01@@Z 004375e0 f i JlCompress.obj
 0001:00036620       ??9const_iterator@?$QList@VQString@@@@QBE_NABV01@@Z 00437620 f i JlCompress.obj
 0001:00036660       ??B?$QFlags@W4Permission@QFileDevice@@@@QBEHXZ 00437660 f i JlCompress.obj
 0001:00036680       ??Dconst_iterator@?$QList@VQFileInfo@@@@QBEABVQFileInfo@@XZ 00437680 f i JlCompress.obj
 0001:000366a0       ??Dconst_iterator@?$QList@VQString@@@@QBEABVQString@@XZ 004376a0 f i JlCompress.obj
 0001:000366c0       ??Econst_iterator@?$QList@VQFileInfo@@@@QAEAAV01@XZ 004376c0 f i JlCompress.obj
 0001:000366f0       ??Econst_iterator@?$QList@VQString@@@@QAEAAV01@XZ 004376f0 f i JlCompress.obj
 0001:00036720       ??U?$QFlags@W4Filter@QDir@@@@QBE?AV0@V0@@Z 00437720 f i JlCompress.obj
 0001:00036760       ??U@YA?AV?$QFlags@W4Filter@QDir@@@@W4Filter@QDir@@V0@@Z 00437760 f i JlCompress.obj
 0001:00036780       ??_GQFileInfo@@QAEPAXI@Z   00437780 f i JlCompress.obj
 0001:000367c0       ??_GQuaZip@@QAEPAXI@Z      004377c0 f i JlCompress.obj
 0001:00036800       ?begin@?$QList@VQFileInfo@@@@QBE?AVconst_iterator@1@XZ 00437800 f i JlCompress.obj
 0001:00036830       ?begin@?$QList@VQString@@@@QBE?AVconst_iterator@1@XZ 00437830 f i JlCompress.obj
 0001:00036860       ?count@?$QList@VQString@@@@QBEHXZ 00437860 f i JlCompress.obj
 0001:00036880       ?dealloc@?$QList@VQFileInfo@@@@AAEXPAUData@QListData@@@Z 00437880 f i JlCompress.obj
 0001:000368d0       ?end@?$QList@VQFileInfo@@@@QBE?AVconst_iterator@1@XZ 004378d0 f i JlCompress.obj
 0001:00036900       ?end@?$QList@VQString@@@@QBE?AVconst_iterator@1@XZ 00437900 f i JlCompress.obj
 0001:00036930       ?node_copy@?$QList@VQFileInfo@@@@AAEXPAUNode@1@00@Z 00437930 f i JlCompress.obj
 0001:00036be0       ?node_destruct@?$QList@VQFileInfo@@@@AAEXPAUNode@1@0@Z 00437be0 f i JlCompress.obj
 0001:00036c80       ?t@Node@?$QList@VQFileInfo@@@@QAEAAVQFileInfo@@XZ 00437c80 f i JlCompress.obj
 0001:00036cb0       _fill_qiodevice64_filefunc 00437cb0 f   qioapi.obj
 0001:00036d40       _fill_qiodevice_filefunc   00437d40 f   qioapi.obj
 0001:00036dd0       _call_zopen64              00437dd0 f   qioapi.obj
 0001:00036e20       _call_zseek64              00437e20 f   qioapi.obj
 0001:00036ea0       _call_ztell64              00437ea0 f   qioapi.obj
 0001:00036f00       _fill_zlib_filefunc64_32_def_from_filefunc32 00437f00 f   qioapi.obj
 0001:00036fa0       ?qiodevice_open_file_func@@YAPAXPAX0H@Z 00437fa0 f   qioapi.obj
 0001:000371c0       ?qiodevice_read_file_func@@YAKPAX00K@Z 004381c0 f   qioapi.obj
 0001:00037220       ?qiodevice_write_file_func@@YAKPAX0PBXK@Z 00438220 f   qioapi.obj
 0001:00037280       ?qiodevice_tell_file_func@@YAKPAX0@Z 00438280 f   qioapi.obj
 0001:000372e0       ?qiodevice64_tell_file_func@@YA_KPAX0@Z 004382e0 f   qioapi.obj
 0001:00037340       ?qiodevice_seek_file_func@@YAHPAX0KH@Z 00438340 f   qioapi.obj
 0001:00037440       ?qiodevice64_seek_file_func@@YAHPAX0_KH@Z 00438440 f   qioapi.obj
 0001:00037550       ?qiodevice_close_file_func@@YAHPAX0@Z 00438550 f   qioapi.obj
 0001:000375d0       ?qiodevice_fakeclose_file_func@@YAHPAX0@Z 004385d0 f   qioapi.obj
 0001:00037600       ?qiodevice_error_file_func@@YAHPAX0@Z 00438600 f   qioapi.obj
 0001:00037860       ??$qobject_cast@PAVQSaveFile@@@@YAPAVQSaveFile@@PAVQObject@@@Z 00438860 f i qioapi.obj
 0001:00037880       ??0?$QFlags@W4OpenModeFlag@QIODevice@@@@QAE@PQPrivate@0@H@Z 00438880 f i qioapi.obj
 0001:000378a0       ??0QIODevice_descriptor@@QAE@XZ 004388a0 f i qioapi.obj
 0001:000378d0       ??B?$QFlags@W4OpenModeFlag@QIODevice@@@@QBEHXZ 004388d0 f i qioapi.obj
 0001:000378f0       ??I?$QFlags@W4OpenModeFlag@QIODevice@@@@QBE?AV0@H@Z 004388f0 f i qioapi.obj
 0001:00037930       ??I?$QFlags@W4OpenModeFlag@QIODevice@@@@QBE?AV0@W4OpenModeFlag@QIODevice@@@Z 00438930 f i qioapi.obj
 0001:00037970       ??0QuaAdler32@@QAE@XZ      00438970 f   quaadler32.obj
 0001:000379a0       ?calculate@QuaAdler32@@UAEIABVQByteArray@@@Z 004389a0 f   quaadler32.obj
 0001:000379e0       ?reset@QuaAdler32@@UAEXXZ  004389e0 f   quaadler32.obj
 0001:00037a00       ?update@QuaAdler32@@UAEXABVQByteArray@@@Z 00438a00 f   quaadler32.obj
 0001:00037a40       ?value@QuaAdler32@@UAEIXZ  00438a40 f   quaadler32.obj
 0001:00037a90       ??0QuaAdler32@@QAE@ABV0@@Z 00438a90 f i quaadler32.obj
 0001:00037ad0       ??0QuaChecksum32@@QAE@ABV0@@Z 00438ad0 f i quaadler32.obj
 0001:00037af0       ??0QuaChecksum32@@QAE@XZ   00438af0 f i quaadler32.obj
 0001:00037b10       ??4QuaAdler32@@QAEAAV0@ABV0@@Z 00438b10 f i quaadler32.obj
 0001:00037b50       ??4QuaChecksum32@@QAEAAV0@ABV0@@Z 00438b50 f i quaadler32.obj
 0001:00037b70       ??0QuaCrc32@@QAE@XZ        00438b70 f   quacrc32.obj
 0001:00037ba0       ?calculate@QuaCrc32@@UAEIABVQByteArray@@@Z 00438ba0 f   quacrc32.obj
 0001:00037be0       ?reset@QuaCrc32@@UAEXXZ    00438be0 f   quacrc32.obj
 0001:00037c00       ?update@QuaCrc32@@UAEXABVQByteArray@@@Z 00438c00 f   quacrc32.obj
 0001:00037c40       ?value@QuaCrc32@@UAEIXZ    00438c40 f   quacrc32.obj
 0001:00037c90       ??0QuaCrc32@@QAE@ABV0@@Z   00438c90 f i quacrc32.obj
 0001:00037cd0       ??4QuaCrc32@@QAEAAV0@ABV0@@Z 00438cd0 f i quacrc32.obj
 0001:00037d10       ??0QuaGzipFile@@QAE@XZ     00438d10 f   quagzipfile.obj
 0001:00037db0       ??0QuaGzipFile@@QAE@PAVQObject@@@Z 00438db0 f   quagzipfile.obj
 0001:00037e50       ??0QuaGzipFile@@QAE@ABVQString@@PAVQObject@@@Z 00438e50 f   quagzipfile.obj
 0001:00037f00       ??1QuaGzipFile@@UAE@XZ     00438f00 f   quagzipfile.obj
 0001:00037fa0       ?setFileName@QuaGzipFile@@QAEXABVQString@@@Z 00438fa0 f   quagzipfile.obj
 0001:00037fc0       ?getFileName@QuaGzipFile@@QBE?AVQString@@XZ 00438fc0 f   quagzipfile.obj
 0001:00038000       ?isSequential@QuaGzipFile@@UBE_NXZ 00439000 f   quagzipfile.obj
 0001:00038010       ?open@QuaGzipFile@@UAE_NV?$QFlags@W4OpenModeFlag@QIODevice@@@@@Z 00439010 f   quagzipfile.obj
 0001:000380e0       ?open@QuaGzipFile@@UAE_NHV?$QFlags@W4OpenModeFlag@QIODevice@@@@@Z 004390e0 f   quagzipfile.obj
 0001:00038190       ?flush@QuaGzipFile@@UAE_NXZ 00439190 f   quagzipfile.obj
 0001:000381d0       ?close@QuaGzipFile@@UAEXXZ 004391d0 f   quagzipfile.obj
 0001:00038200       ?readData@QuaGzipFile@@MAE_JPAD_J@Z 00439200 f   quagzipfile.obj
 0001:00038230       ?writeData@QuaGzipFile@@MAE_JPBD_J@Z 00439230 f   quagzipfile.obj
 0001:00038280       ?open@QuaGzipFilePrivate@@AAEPAUgzFile_s@@HPBD@Z 00439280 f   quagzipfile.obj
 0001:000382a0       ?open@QuaGzipFilePrivate@@AAEPAUgzFile_s@@ABVQString@@PBD@Z 004392a0 f   quagzipfile.obj
 0001:000384b0       ??$open@H@QuaGzipFilePrivate@@AAE_NHV?$QFlags@W4OpenModeFlag@QIODevice@@@@AAVQString@@@Z 004394b0 f i quagzipfile.obj
 0001:00038790       ??$open@VQString@@@QuaGzipFilePrivate@@AAE_NVQString@@V?$QFlags@W4OpenModeFlag@QIODevice@@@@AAV1@@Z 00439790 f i quagzipfile.obj
 0001:00038ae0       ??0QuaGzipFilePrivate@@AAE@ABVQString@@@Z 00439ae0 f i quagzipfile.obj
 0001:00038b10       ??0QuaGzipFilePrivate@@AAE@XZ 00439b10 f i quagzipfile.obj
 0001:00038b40       ??1QuaGzipFilePrivate@@QAE@XZ 00439b40 f i quagzipfile.obj
 0001:00038b60       ??_EQuaGzipFile@@UAEPAXI@Z 00439b60 f i quagzipfile.obj
 0001:00038bf0       ??_GQuaGzipFile@@UAEPAXI@Z 00439bf0 f i quagzipfile.obj
 0001:00038c30       ??_GQuaGzipFilePrivate@@QAEPAXI@Z 00439c30 f i quagzipfile.obj
 0001:00038c70       ??0QuaZIODevice@@QAE@PAVQIODevice@@PAVQObject@@@Z 00439c70 f   quaziodevice.obj
 0001:00038d50       ??1QuaZIODevice@@UAE@XZ    00439d50 f   quaziodevice.obj
 0001:00038df0       ?flush@QuaZIODevice@@UAE_NXZ 00439df0 f   quaziodevice.obj
 0001:00039050       ?open@QuaZIODevice@@UAE_NV?$QFlags@W4OpenModeFlag@QIODevice@@@@@Z 0043a050 f   quaziodevice.obj
 0001:00039250       ?close@QuaZIODevice@@UAEXXZ 0043a250 f   quaziodevice.obj
 0001:00039390       ?getIoDevice@QuaZIODevice@@QBEPAVQIODevice@@XZ 0043a390 f   quaziodevice.obj
 0001:000393b0       ?isSequential@QuaZIODevice@@UBE_NXZ 0043a3b0 f   quaziodevice.obj
 0001:000393c0       ?atEnd@QuaZIODevice@@UBE_NXZ 0043a3c0 f   quaziodevice.obj
 0001:00039420       ?bytesAvailable@QuaZIODevice@@UBE_JXZ 0043a420 f   quaziodevice.obj
 0001:00039470       ?readData@QuaZIODevice@@MAE_JPAD_J@Z 0043a470 f   quaziodevice.obj
 0001:00039890       ?writeData@QuaZIODevice@@MAE_JPBD_J@Z 0043a890 f   quaziodevice.obj
 0001:00039b00       ??0QuaZIODevicePrivate@@AAE@PAVQIODevice@@@Z 0043ab00 f   quaziodevice.obj
 0001:00039bf0       ??1QuaZIODevicePrivate@@AAE@XZ 0043abf0 f   quaziodevice.obj
 0001:00039c40       ?doFlush@QuaZIODevicePrivate@@AAEHAAVQString@@@Z 0043ac40 f   quaziodevice.obj
 0001:0003a1c0       ??_EQuaZIODevice@@UAEPAXI@Z 0043b1c0 f i quaziodevice.obj
 0001:0003a250       ??_GQuaZIODevice@@UAEPAXI@Z 0043b250 f i quaziodevice.obj
 0001:0003a290       ??_GQuaZIODevicePrivate@@AAEPAXI@Z 0043b290 f i quaziodevice.obj
 0001:0003a2d0       ?convertCaseSensitivity@QuaZip@@SA?AW4CaseSensitivity@Qt@@W421@@Z 0043b2d0 f   quazip.obj
 0001:0003a300       ??0QuaZip@@QAE@XZ          0043b300 f   quazip.obj
 0001:0003a390       ??0QuaZip@@QAE@ABVQString@@@Z 0043b390 f   quazip.obj
 0001:0003a420       ??0QuaZip@@QAE@PAVQIODevice@@@Z 0043b420 f   quazip.obj
 0001:0003a4b0       ??1QuaZip@@QAE@XZ          0043b4b0 f   quazip.obj
 0001:0003a500       ?open@QuaZip@@QAE_NW4Mode@1@PAUzlib_filefunc_def_s@@@Z 0043b500 f   quazip.obj
 0001:0003aab0       ?close@QuaZip@@QAEXXZ      0043bab0 f   quazip.obj
 0001:0003acc0       ?setFileNameCodec@QuaZip@@QAEXPAVQTextCodec@@@Z 0043bcc0 f   quazip.obj
 0001:0003ace0       ?setFileNameCodec@QuaZip@@QAEXPBD@Z 0043bce0 f   quazip.obj
 0001:0003ad10       ?getFileNameCodec@QuaZip@@QBEPAVQTextCodec@@XZ 0043bd10 f   quazip.obj
 0001:0003ad30       ?setCommentCodec@QuaZip@@QAEXPAVQTextCodec@@@Z 0043bd30 f   quazip.obj
 0001:0003ad50       ?setCommentCodec@QuaZip@@QAEXPBD@Z 0043bd50 f   quazip.obj
 0001:0003ad80       ?getCommentCodec@QuaZip@@QBEPAVQTextCodec@@XZ 0043bd80 f   quazip.obj
 0001:0003ada0       ?getZipName@QuaZip@@QBE?AVQString@@XZ 0043bda0 f   quazip.obj
 0001:0003ade0       ?setZipName@QuaZip@@QAEXABVQString@@@Z 0043bde0 f   quazip.obj
 0001:0003ae50       ?getIoDevice@QuaZip@@QBEPAVQIODevice@@XZ 0043be50 f   quazip.obj
 0001:0003ae80       ?setIoDevice@QuaZip@@QAEXPAVQIODevice@@@Z 0043be80 f   quazip.obj
 0001:0003af40       ?getMode@QuaZip@@QBE?AW4Mode@1@XZ 0043bf40 f   quazip.obj
 0001:0003af60       ?isOpen@QuaZip@@QBE_NXZ    0043bf60 f   quazip.obj
 0001:0003af90       ?getZipError@QuaZip@@QBEHXZ 0043bf90 f   quazip.obj
 0001:0003afb0       ?getEntriesCount@QuaZip@@QBEHXZ 0043bfb0 f   quazip.obj
 0001:0003b050       ?getComment@QuaZip@@QBE?AVQString@@XZ 0043c050 f   quazip.obj
 0001:0003b210       ?setComment@QuaZip@@QAEXABVQString@@@Z 0043c210 f   quazip.obj
 0001:0003b230       ?goToFirstFile@QuaZip@@QAE_NXZ 0043c230 f   quazip.obj
 0001:0003b2d0       ?goToNextFile@QuaZip@@QAE_NXZ 0043c2d0 f   quazip.obj
 0001:0003b380       ?setCurrentFile@QuaZip@@QAE_NABVQString@@W4CaseSensitivity@1@@Z 0043c380 f   quazip.obj
 0001:0003b750       ?hasCurrentFile@QuaZip@@QBE_NXZ 0043c750 f   quazip.obj
 0001:0003b770       ?getCurrentFileInfo@QuaZip@@QBE_NPAUQuaZipFileInfo@@@Z 0043c770 f   quazip.obj
 0001:0003b840       ?getCurrentFileInfo@QuaZip@@QBE_NPAUQuaZipFileInfo64@@@Z 0043c840 f   quazip.obj
 0001:0003bcc0       ?getCurrentFileName@QuaZip@@QBE?AVQString@@XZ 0043ccc0 f   quazip.obj
 0001:0003bed0       ?getUnzFile@QuaZip@@QAEPAXXZ 0043ced0 f   quazip.obj
 0001:0003bef0       ?getZipFile@QuaZip@@QAEPAXXZ 0043cef0 f   quazip.obj
 0001:0003bf10       ?setDataDescriptorWritingEnabled@QuaZip@@QAEX_N@Z 0043cf10 f   quazip.obj
 0001:0003bf30       ?isDataDescriptorWritingEnabled@QuaZip@@QBE_NXZ 0043cf30 f   quazip.obj
 0001:0003bf50       ?getFileNameList@QuaZip@@QBE?AVQStringList@@XZ 0043cf50 f   quazip.obj
 0001:0003c010       ?getFileInfoList@QuaZip@@QBE?AV?$QList@UQuaZipFileInfo@@@@XZ 0043d010 f   quazip.obj
 0001:0003c0d0       ?getFileInfoList64@QuaZip@@QBE?AV?$QList@UQuaZipFileInfo64@@@@XZ 0043d0d0 f   quazip.obj
 0001:0003c190       ?setZip64Enabled@QuaZip@@QAEX_N@Z 0043d190 f   quazip.obj
 0001:0003c1b0       ?isZip64Enabled@QuaZip@@QBE_NXZ 0043d1b0 f   quazip.obj
 0001:0003c1d0       ?isAutoClose@QuaZip@@QBE_NXZ 0043d1d0 f   quazip.obj
 0001:0003c1f0       ?setAutoClose@QuaZip@@QBEX_N@Z 0043d1f0 f   quazip.obj
 0001:0003c210       ?setDefaultFileNameCodec@QuaZip@@SAXPAVQTextCodec@@@Z 0043d210 f   quazip.obj
 0001:0003c220       ?setDefaultFileNameCodec@QuaZip@@SAXPBD@Z 0043d220 f   quazip.obj
 0001:0003c240       ?goToFirstUnmappedFile@QuaZipPrivate@@AAE_NXZ 0043d240 f   quazip.obj
 0001:0003c320       ??$QuaZip_getFileInfo@UQuaZipFileInfo@@@@YA?AUQuaZipFileInfo@@PAVQuaZip@@PA_N@Z 0043d320 f   quazip.obj
 0001:0003c3a0       ??$QuaZip_getFileInfo@UQuaZipFileInfo64@@@@YA?AUQuaZipFileInfo64@@PAVQuaZip@@PA_N@Z 0043d3a0 f   quazip.obj
 0001:0003c420       ??$QuaZip_getFileInfo@VQString@@@@YA?AVQString@@PAVQuaZip@@PA_N@Z 0043d420 f   quazip.obj
 0001:0003cd40       ??$_Move@AAPAUQHashData@@@std@@YA$$QAPAUQHashData@@AAPAU1@@Z 0043dd40 f i quazip.obj
 0001:0003cd50       ??$getFileInfoList@UQuaZipFileInfo64@@@QuaZipPrivate@@ABE_NPAV?$QList@UQuaZipFileInfo64@@@@@Z 0043dd50 f i quazip.obj
 0001:0003cfd0       ??$getFileInfoList@UQuaZipFileInfo@@@QuaZipPrivate@@ABE_NPAV?$QList@UQuaZipFileInfo@@@@@Z 0043dfd0 f i quazip.obj
 0001:0003d250       ??$getFileInfoList@VQString@@@QuaZipPrivate@@ABE_NPAV?$QList@VQString@@@@@Z 0043e250 f i quazip.obj
 0001:0003d4d0       ??$qSwap@PAUQHashData@@@@YAXAAPAUQHashData@@0@Z 0043e4d0 f i quazip.obj
 0001:0003d4f0       ??$swap@PAUQHashData@@@std@@YAXAAPAUQHashData@@0@Z 0043e4f0 f i quazip.obj
 0001:0003d540       ??0?$QHash@VQString@@Uunz64_file_pos_s@@@@QAE@XZ 0043e540 f i quazip.obj
 0001:0003d560       ??0?$QHashNode@VQString@@Uunz64_file_pos_s@@@@QAE@ABVQString@@ABUunz64_file_pos_s@@IPAU0@@Z 0043e560 f i quazip.obj
 0001:0003d5d0       ??0?$QList@UQuaZipFileInfo64@@@@QAE@$$QAV0@@Z 0043e5d0 f i quazip.obj
 0001:0003d600       ??0?$QList@UQuaZipFileInfo64@@@@QAE@XZ 0043e600 f i quazip.obj
 0001:0003d620       ??0?$QList@UQuaZipFileInfo@@@@QAE@$$QAV0@@Z 0043e620 f i quazip.obj
 0001:0003d650       ??0?$QList@UQuaZipFileInfo@@@@QAE@XZ 0043e650 f i quazip.obj
 0001:0003d670       ??0QuaZipPrivate@@AAE@PAVQuaZip@@@Z 0043e670 f i quazip.obj
 0001:0003d7d0       ??0QuaZipPrivate@@AAE@PAVQuaZip@@ABVQString@@@Z 0043e7d0 f i quazip.obj
 0001:0003d930       ??0QuaZipPrivate@@AAE@PAVQuaZip@@PAVQIODevice@@@Z 0043e930 f i quazip.obj
 0001:0003da90       ??0iterator@?$QHash@VQString@@Uunz64_file_pos_s@@@@QAE@PAX@Z 0043ea90 f i quazip.obj
 0001:0003dab0       ??1?$QHash@VQString@@Uunz64_file_pos_s@@@@QAE@XZ 0043eab0 f i quazip.obj
 0001:0003daf0       ??1?$QHashNode@VQString@@Uunz64_file_pos_s@@@@QAE@XZ 0043eaf0 f i quazip.obj
 0001:0003db10       ??1?$QList@UQuaZipFileInfo64@@@@QAE@XZ 0043eb10 f i quazip.obj
 0001:0003db50       ??1?$QList@UQuaZipFileInfo@@@@QAE@XZ 0043eb50 f i quazip.obj
 0001:0003db90       ??1QuaZipPrivate@@QAE@XZ   0043eb90 f i quazip.obj
 0001:0003dc30       ??4?$QHash@VQString@@Uunz64_file_pos_s@@@@QAEAAV0@$$QAV0@@Z 0043ec30 f i quazip.obj
 0001:0003dc60       ??_G?$QHashNode@VQString@@Uunz64_file_pos_s@@@@QAEPAXI@Z 0043ec60 f i quazip.obj
 0001:0003dca0       ??_GQFile@@UAEPAXI@Z       0043eca0 f i quazip.obj
 0001:0003dca0       ??_EQFile@@UAEPAXI@Z       0043eca0 f i quazip.obj
 0001:0003dce0       ??_GQuaZipFileInfo64@@QAEPAXI@Z 0043ece0 f i quazip.obj
 0001:0003dd20       ??_GQuaZipFileInfo@@QAEPAXI@Z 0043ed20 f i quazip.obj
 0001:0003dd60       ??_GQuaZipPrivate@@QAEPAXI@Z 0043ed60 f i quazip.obj
 0001:0003dda0       ?addCurrentFileToDirectoryMap@QuaZipPrivate@@AAEXABVQString@@@Z 0043eda0 f i quazip.obj
 0001:0003df10       ?alignOfNode@?$QHash@VQString@@Uunz64_file_pos_s@@@@CAHXZ 0043ef10 f i quazip.obj
 0001:0003df50       ?append@?$QList@UQuaZipFileInfo64@@@@QAEXABUQuaZipFileInfo64@@@Z 0043ef50 f i quazip.obj
 0001:0003e130       ?append@?$QList@UQuaZipFileInfo@@@@QAEXABUQuaZipFileInfo@@@Z 0043f130 f i quazip.obj
 0001:0003e310       ?clear@?$QHash@VQString@@Uunz64_file_pos_s@@@@QAEXXZ 0043f310 f i quazip.obj
 0001:0003e3a0       ?clearDirectoryMap@QuaZipPrivate@@AAEXXZ 0043f3a0 f i quazip.obj
 0001:0003e400       ?concrete@?$QHash@VQString@@Uunz64_file_pos_s@@@@CAPAU?$QHashNode@VQString@@Uunz64_file_pos_s@@@@PAUNode@QHashData@@@Z 0043f400 f i quazip.obj
 0001:0003e410       ?contains@?$QHash@VQString@@Uunz64_file_pos_s@@@@QBE_NABVQString@@@Z 0043f410 f i quazip.obj
 0001:0003e460       ?createNode@?$QHash@VQString@@Uunz64_file_pos_s@@@@AAEPAU?$QHashNode@VQString@@Uunz64_file_pos_s@@@@IABVQString@@ABUunz64_file_pos_s@@PAPAU2@@Z 0043f460 f i quazip.obj
 0001:0003e560       ?dealloc@?$QList@UQuaZipFileInfo64@@@@AAEXPAUData@QListData@@@Z 0043f560 f i quazip.obj
 0001:0003e5b0       ?dealloc@?$QList@UQuaZipFileInfo@@@@AAEXPAUData@QListData@@@Z 0043f5b0 f i quazip.obj
 0001:0003e600       ?deleteNode2@?$QHash@VQString@@Uunz64_file_pos_s@@@@CAXPAUNode@QHashData@@@Z 0043f600 f i quazip.obj
 0001:0003e620       ?detach@?$QHash@VQString@@Uunz64_file_pos_s@@@@QAEXXZ 0043f620 f i quazip.obj
 0001:0003e650       ?detach_helper@?$QHash@VQString@@Uunz64_file_pos_s@@@@AAEXXZ 0043f650 f i quazip.obj
 0001:0003e6c0       ?detach_helper_grow@?$QList@UQuaZipFileInfo64@@@@AAEPAUNode@1@HH@Z 0043f6c0 f i quazip.obj
 0001:0003e8c0       ?detach_helper_grow@?$QList@UQuaZipFileInfo@@@@AAEPAUNode@1@HH@Z 0043f8c0 f i quazip.obj
 0001:0003eac0       ?duplicateNode@?$QHash@VQString@@Uunz64_file_pos_s@@@@CAXPAUNode@QHashData@@PAX@Z 0043fac0 f i quazip.obj
 0001:0003eb80       ?findNode@?$QHash@VQString@@Uunz64_file_pos_s@@@@ABEPAPAU?$QHashNode@VQString@@Uunz64_file_pos_s@@@@ABVQString@@PAI@Z 0043fb80 f i quazip.obj
 0001:0003ecc0       ?freeData@?$QHash@VQString@@Uunz64_file_pos_s@@@@AAEXPAUQHashData@@@Z 0043fcc0 f i quazip.obj
 0001:0003ecf0       ?getDefaultFileNameCodec@QuaZipPrivate@@AAEPAVQTextCodec@@XZ 0043fcf0 f i quazip.obj
 0001:0003ed20       ?insert@?$QHash@VQString@@Uunz64_file_pos_s@@@@QAE?AViterator@1@ABVQString@@ABUunz64_file_pos_s@@@Z 0043fd20 f i quazip.obj
 0001:0003ee10       ?node_construct@?$QList@UQuaZipFileInfo64@@@@AAEXPAUNode@1@ABUQuaZipFileInfo64@@@Z 0043fe10 f i quazip.obj
 0001:0003ef40       ?node_construct@?$QList@UQuaZipFileInfo@@@@AAEXPAUNode@1@ABUQuaZipFileInfo@@@Z 0043ff40 f i quazip.obj
 0001:0003f070       ?node_copy@?$QList@UQuaZipFileInfo64@@@@AAEXPAUNode@1@00@Z 00440070 f i quazip.obj
 0001:0003f330       ?node_copy@?$QList@UQuaZipFileInfo@@@@AAEXPAUNode@1@00@Z 00440330 f i quazip.obj
 0001:0003f5f0       ?node_destruct@?$QList@UQuaZipFileInfo64@@@@AAEXPAUNode@1@0@Z 004405f0 f i quazip.obj
 0001:0003f690       ?node_destruct@?$QList@UQuaZipFileInfo64@@@@AAEXPAUNode@1@@Z 00440690 f i quazip.obj
 0001:0003f700       ?node_destruct@?$QList@UQuaZipFileInfo@@@@AAEXPAUNode@1@0@Z 00440700 f i quazip.obj
 0001:0003f7a0       ?node_destruct@?$QList@UQuaZipFileInfo@@@@AAEXPAUNode@1@@Z 004407a0 f i quazip.obj
 0001:0003f810       ?same_key@?$QHashNode@VQString@@Uunz64_file_pos_s@@@@QBE_NIABVQString@@@Z 00440810 f i quazip.obj
 0001:0003f870       ?value@?$QHash@VQString@@Uunz64_file_pos_s@@@@QBE?BUunz64_file_pos_s@@ABVQString@@@Z 00440870 f i quazip.obj
 0001:0003f940       ??0QuaZipDir@@QAE@ABV0@@Z  00440940 f   quazipdir.obj
 0001:0003f960       ??0QuaZipDir@@QAE@PAVQuaZip@@ABVQString@@@Z 00440960 f   quazipdir.obj
 0001:0003fa70       ??1QuaZipDir@@QAE@XZ       00440a70 f   quazipdir.obj
 0001:0003fa90       ??8QuaZipDir@@QAE_NABV0@@Z 00440a90 f   quazipdir.obj
 0001:0003fb00       ??4QuaZipDir@@QAEAAV0@ABV0@@Z 00440b00 f   quazipdir.obj
 0001:0003fb20       ??AQuaZipDir@@QBE?AVQString@@H@Z 00440b20 f   quazipdir.obj
 0001:0003fbd0       ?caseSensitivity@QuaZipDir@@QBE?AW4CaseSensitivity@QuaZip@@XZ 00440bd0 f   quazipdir.obj
 0001:0003fbf0       ?cd@QuaZipDir@@QAE_NABVQString@@@Z 00440bf0 f   quazipdir.obj
 0001:000400a0       ?cdUp@QuaZipDir@@QAE_NXZ   004410a0 f   quazipdir.obj
 0001:00040110       ?count@QuaZipDir@@QBEIXZ   00441110 f   quazipdir.obj
 0001:000401a0       ?dirName@QuaZipDir@@QBE?AVQString@@XZ 004411a0 f   quazipdir.obj
 0001:00040230       ?entryInfoList@QuaZipDir@@QBE?AV?$QList@UQuaZipFileInfo@@@@ABVQStringList@@V?$QFlags@W4Filter@QDir@@@@V?$QFlags@W4SortFlag@QDir@@@@@Z 00441230 f   quazipdir.obj
 0001:00040320       ?entryInfoList@QuaZipDir@@QBE?AV?$QList@UQuaZipFileInfo@@@@V?$QFlags@W4Filter@QDir@@@@V?$QFlags@W4SortFlag@QDir@@@@@Z 00441320 f   quazipdir.obj
 0001:000403b0       ?entryInfoList64@QuaZipDir@@QBE?AV?$QList@UQuaZipFileInfo64@@@@ABVQStringList@@V?$QFlags@W4Filter@QDir@@@@V?$QFlags@W4SortFlag@QDir@@@@@Z 004413b0 f   quazipdir.obj
 0001:000404a0       ?entryInfoList64@QuaZipDir@@QBE?AV?$QList@UQuaZipFileInfo64@@@@V?$QFlags@W4Filter@QDir@@@@V?$QFlags@W4SortFlag@QDir@@@@@Z 004414a0 f   quazipdir.obj
 0001:00040530       ?entryList@QuaZipDir@@QBE?AVQStringList@@ABV2@V?$QFlags@W4Filter@QDir@@@@V?$QFlags@W4SortFlag@QDir@@@@@Z 00441530 f   quazipdir.obj
 0001:00040620       ?entryList@QuaZipDir@@QBE?AVQStringList@@V?$QFlags@W4Filter@QDir@@@@V?$QFlags@W4SortFlag@QDir@@@@@Z 00441620 f   quazipdir.obj
 0001:000406b0       ?exists@QuaZipDir@@QBE_NABVQString@@@Z 004416b0 f   quazipdir.obj
 0001:00040a90       ?exists@QuaZipDir@@QBE_NXZ 00441a90 f   quazipdir.obj
 0001:00040b40       ?filePath@QuaZipDir@@QBE?AVQString@@ABV2@@Z 00441b40 f   quazipdir.obj
 0001:00040bd0       ?filter@QuaZipDir@@QAE?AV?$QFlags@W4Filter@QDir@@@@XZ 00441bd0 f   quazipdir.obj
 0001:00040bf0       ?isRoot@QuaZipDir@@QBE_NXZ 00441bf0 f   quazipdir.obj
 0001:00040c70       ?nameFilters@QuaZipDir@@QBE?AVQStringList@@XZ 00441c70 f   quazipdir.obj
 0001:00040cb0       ?path@QuaZipDir@@QBE?AVQString@@XZ 00441cb0 f   quazipdir.obj
 0001:00040cf0       ?relativeFilePath@QuaZipDir@@QBE?AVQString@@ABV2@@Z 00441cf0 f   quazipdir.obj
 0001:00040db0       ?setCaseSensitivity@QuaZipDir@@QAEXW4CaseSensitivity@QuaZip@@@Z 00441db0 f   quazipdir.obj
 0001:00040dd0       ?setFilter@QuaZipDir@@QAEXV?$QFlags@W4Filter@QDir@@@@@Z 00441dd0 f   quazipdir.obj
 0001:00040df0       ?setNameFilters@QuaZipDir@@QAEXABVQStringList@@@Z 00441df0 f   quazipdir.obj
 0001:00040e20       ?setPath@QuaZipDir@@QAEXABVQString@@@Z 00441e20 f   quazipdir.obj
 0001:00040f50       ?setSorting@QuaZipDir@@QAEXV?$QFlags@W4SortFlag@QDir@@@@@Z 00441f50 f   quazipdir.obj
 0001:00040f70       ?sorting@QuaZipDir@@QBE?AV?$QFlags@W4SortFlag@QDir@@@@XZ 00441f70 f   quazipdir.obj
 0001:00040f90       ?QuaZipDir_getFileInfo@@YA?AUQuaZipFileInfo64@@PAVQuaZip@@PA_NABVQString@@_N@Z 00441f90 f   quazipdir.obj
 0001:000411b0       ?getExtension@QuaZipDirComparator@@CA?AVQString@@ABV2@@Z 004421b0 f   quazipdir.obj
 0001:00041260       ?compareStrings@QuaZipDirComparator@@AAEHABVQString@@0@Z 00442260 f   quazipdir.obj
 0001:00041390       ??RQuaZipDirComparator@@QAE_NABUQuaZipFileInfo64@@0@Z 00442390 f   quazipdir.obj
 0001:00042030       ??$_Move@AAUQuaZipFileInfo64@@@std@@YA$$QAUQuaZipFileInfo64@@AAU1@@Z 00443030 f i quazipdir.obj
 0001:00042040       ??$entryInfoList@V?$QList@UQuaZipFileInfo64@@@@@QuaZipDirPrivate@@ABE_NVQStringList@@V?$QFlags@W4Filter@QDir@@@@V?$QFlags@W4SortFlag@QDir@@@@AAV?$QList@UQuaZipFileInfo64@@@@@Z 00443040 f i quazipdir.obj
 0001:00042770       ??$entryInfoList@V?$QList@UQuaZipFileInfo@@@@@QuaZipDirPrivate@@ABE_NVQStringList@@V?$QFlags@W4Filter@QDir@@@@V?$QFlags@W4SortFlag@QDir@@@@AAV?$QList@UQuaZipFileInfo@@@@@Z 00443770 f i quazipdir.obj
 0001:00042ea0       ??$entryInfoList@VQStringList@@@QuaZipDirPrivate@@ABE_NVQStringList@@V?$QFlags@W4Filter@QDir@@@@V?$QFlags@W4SortFlag@QDir@@@@AAV1@@Z 00443ea0 f i quazipdir.obj
 0001:000435d0       ??$qSort@Viterator@?$QList@UQuaZipFileInfo64@@@@VQuaZipDirComparator@@@@YAXViterator@?$QList@UQuaZipFileInfo64@@@@0VQuaZipDirComparator@@@Z 004445d0 f i quazipdir.obj
 0001:00043630       ??$qSortHelper@Viterator@?$QList@UQuaZipFileInfo64@@@@UQuaZipFileInfo64@@VQuaZipDirComparator@@@QAlgorithmsPrivate@@YAXViterator@?$QList@UQuaZipFileInfo64@@@@0ABUQuaZipFileInfo64@@VQuaZipDirComparator@@@Z 00444630 f i quazipdir.obj
 0001:00043990       ??$qSwap@UQuaZipFileInfo64@@@@YAXAAUQuaZipFileInfo64@@0@Z 00444990 f i quazipdir.obj
 0001:000439b0       ??$swap@UQuaZipFileInfo64@@@std@@YAXAAUQuaZipFileInfo64@@0@Z 004449b0 f i quazipdir.obj
 0001:00043a60       ??0?$QFlags@W4SortFlag@QDir@@@@QAE@VQFlag@@@Z 00444a60 f i quazipdir.obj
 0001:00043a90       ??0?$QHash@VQString@@UQHashDummyValue@@@@QAE@XZ 00444a90 f i quazipdir.obj
 0001:00043ab0       ??0?$QHashNode@VQString@@UQHashDummyValue@@@@QAE@ABVQString@@ABUQHashDummyValue@@IPAU0@@Z 00444ab0 f i quazipdir.obj
 0001:00043af0       ??0?$QList@UQuaZipFileInfo64@@@@QAE@ABV0@@Z 00444af0 f i quazipdir.obj
 0001:00043c10       ??0?$QSet@VQString@@@@QAE@XZ 00444c10 f i quazipdir.obj
 0001:00043c30       ??0?$QSharedDataPointer@VQuaZipDirPrivate@@@@QAE@ABV0@@Z 00444c30 f i quazipdir.obj
 0001:00043c70       ??0?$QSharedDataPointer@VQuaZipDirPrivate@@@@QAE@PAVQuaZipDirPrivate@@@Z 00444c70 f i quazipdir.obj
 0001:00043cb0       ??0QuaZipDirComparator@@QAE@V?$QFlags@W4SortFlag@QDir@@@@@Z 00444cb0 f i quazipdir.obj
 0001:00043cd0       ??0QuaZipDirPrivate@@AAE@PAVQuaZip@@ABVQString@@@Z 00444cd0 f i quazipdir.obj
 0001:00043da0       ??0QuaZipDirPrivate@@QAE@ABV0@@Z 00444da0 f i quazipdir.obj
 0001:00043e80       ??0QuaZipDirRestoreCurrent@@QAE@PAVQuaZip@@@Z 00444e80 f i quazipdir.obj
 0001:00043eb0       ??0const_iterator@?$QList@UQuaZipFileInfo64@@@@QAE@PAUNode@1@@Z 00444eb0 f i quazipdir.obj
 0001:00043ed0       ??0const_iterator@?$QList@VQString@@@@QAE@ABViterator@1@@Z 00444ed0 f i quazipdir.obj
 0001:00043ef0       ??0iterator@?$QHash@VQString@@UQHashDummyValue@@@@QAE@PAX@Z 00444ef0 f i quazipdir.obj
 0001:00043f10       ??0iterator@?$QList@UQuaZipFileInfo64@@@@QAE@ABV01@@Z 00444f10 f i quazipdir.obj
 0001:00043f30       ??0iterator@?$QList@UQuaZipFileInfo64@@@@QAE@PAUNode@1@@Z 00444f30 f i quazipdir.obj
 0001:00043f50       ??0iterator@?$QList@VQString@@@@QAE@PAUNode@1@@Z 00444f50 f i quazipdir.obj
 0001:00043f70       ??0iterator@?$QSet@VQString@@@@QAE@V0?$QHash@VQString@@UQHashDummyValue@@@@@Z 00444f70 f i quazipdir.obj
 0001:00043f90       ??1?$QHash@VQString@@UQHashDummyValue@@@@QAE@XZ 00444f90 f i quazipdir.obj
 0001:00043fd0       ??1?$QHashNode@VQString@@UQHashDummyValue@@@@QAE@XZ 00444fd0 f i quazipdir.obj
 0001:00043ff0       ??1?$QSet@VQString@@@@QAE@XZ 00444ff0 f i quazipdir.obj
 0001:00044010       ??1?$QSharedDataPointer@VQuaZipDirPrivate@@@@QAE@XZ 00445010 f i quazipdir.obj
 0001:00044080       ??1QuaZipDirPrivate@@QAE@XZ 00445080 f i quazipdir.obj
 0001:000440f0       ??1QuaZipDirRestoreCurrent@@QAE@XZ 004450f0 f i quazipdir.obj
 0001:00044170       ??4?$QList@UQuaZipFileInfo64@@@@QAEAAV0@$$QAV0@@Z 00445170 f i quazipdir.obj
 0001:000441a0       ??4?$QList@UQuaZipFileInfo64@@@@QAEAAV0@ABV0@@Z 004451a0 f i quazipdir.obj
 0001:00044240       ??4?$QList@UQuaZipFileInfo@@@@QAEAAV0@$$QAV0@@Z 00445240 f i quazipdir.obj
 0001:00044270       ??4?$QList@VQString@@@@QAEAAV0@$$QAV0@@Z 00445270 f i quazipdir.obj
 0001:000442a0       ??4?$QList@VQString@@@@QAEAAV0@ABV0@@Z 004452a0 f i quazipdir.obj
 0001:00044340       ??4?$QSharedDataPointer@VQuaZipDirPrivate@@@@QAEAAV0@ABV0@@Z 00445340 f i quazipdir.obj
 0001:000443e0       ??4QStringList@@QAEAAV0@ABV0@@Z 004453e0 f i quazipdir.obj
 0001:00044410       ??9QuaZipDir@@QAE_NABV0@@Z 00445410 f i quazipdir.obj
 0001:00044460       ??9const_iterator@?$QList@UQuaZipFileInfo64@@@@QBE_NABV01@@Z 00445460 f i quazipdir.obj
 0001:000444a0       ??9iterator@?$QList@UQuaZipFileInfo64@@@@QBE_NABV01@@Z 004454a0 f i quazipdir.obj
 0001:000444e0       ??B?$QFlags@W4Filter@QDir@@@@QBEHXZ 004454e0 f i quazipdir.obj
 0001:00044500       ??B?$QFlags@W4SortFlag@QDir@@@@QBEHXZ 00445500 f i quazipdir.obj
 0001:00044520       ??C?$QSharedDataPointer@VQuaZipDirPrivate@@@@QAEPAVQuaZipDirPrivate@@XZ 00445520 f i quazipdir.obj
 0001:00044540       ??C?$QSharedDataPointer@VQuaZipDirPrivate@@@@QBEPBVQuaZipDirPrivate@@XZ 00445540 f i quazipdir.obj
 0001:00044560       ??Cconst_iterator@?$QList@UQuaZipFileInfo64@@@@QBEPBUQuaZipFileInfo64@@XZ 00445560 f i quazipdir.obj
 0001:00044580       ??Diterator@?$QList@UQuaZipFileInfo64@@@@QBEAAUQuaZipFileInfo64@@XZ 00445580 f i quazipdir.obj
 0001:000445a0       ??Econst_iterator@?$QList@UQuaZipFileInfo64@@@@QAEAAV01@XZ 004455a0 f i quazipdir.obj
 0001:000445d0       ??Eiterator@?$QList@UQuaZipFileInfo64@@@@QAEAAV01@XZ 004455d0 f i quazipdir.obj
 0001:00044600       ??Fiterator@?$QList@UQuaZipFileInfo64@@@@QAEAAV01@XZ 00445600 f i quazipdir.obj
 0001:00044630       ??Giterator@?$QList@UQuaZipFileInfo64@@@@QBE?AV01@H@Z 00445630 f i quazipdir.obj
 0001:00044660       ??Giterator@?$QList@UQuaZipFileInfo64@@@@QBEHV01@@Z 00445660 f i quazipdir.obj
 0001:00044680       ??H@YA?BVQString@@PBDABV0@@Z 00445680 f i quazipdir.obj
 0001:00044730       ??Hiterator@?$QList@UQuaZipFileInfo64@@@@QBE?AV01@H@Z 00445730 f i quazipdir.obj
 0001:00044760       ??I?$QFlags@W4Filter@QDir@@@@QBE?AV0@W4Filter@QDir@@@Z 00445760 f i quazipdir.obj
 0001:000447a0       ??I?$QFlags@W4SortFlag@QDir@@@@QBE?AV0@H@Z 004457a0 f i quazipdir.obj
 0001:000447e0       ??I?$QFlags@W4SortFlag@QDir@@@@QBE?AV0@W4SortFlag@QDir@@@Z 004457e0 f i quazipdir.obj
 0001:00044820       ??Miterator@?$QList@UQuaZipFileInfo64@@@@QBE_NABV01@@Z 00445820 f i quazipdir.obj
 0001:00044860       ??Oiterator@?$QList@UQuaZipFileInfo64@@@@QBE_NABV01@@Z 00445860 f i quazipdir.obj
 0001:000448a0       ??U?$QFlags@W4SortFlag@QDir@@@@QBE?AV0@W4SortFlag@QDir@@@Z 004458a0 f i quazipdir.obj
 0001:000448e0       ??U@YA?AV?$QFlags@W4SortFlag@QDir@@@@W4SortFlag@QDir@@0@Z 004458e0 f i quazipdir.obj
 0001:00044910       ??_5?$QFlags@W4SortFlag@QDir@@@@QAEAAV0@W4SortFlag@QDir@@@Z 00445910 f i quazipdir.obj
 0001:00044940       ??_G?$QHashNode@VQString@@UQHashDummyValue@@@@QAEPAXI@Z 00445940 f i quazipdir.obj
 0001:00044980       ??_GQuaZipDirPrivate@@QAEPAXI@Z 00445980 f i quazipdir.obj
 0001:000449c0       ?alignOfNode@?$QHash@VQString@@UQHashDummyValue@@@@CAHXZ 004459c0 f i quazipdir.obj
 0001:00044a00       ?begin@?$QList@UQuaZipFileInfo64@@@@QAE?AViterator@1@XZ 00445a00 f i quazipdir.obj
 0001:00044a40       ?clear@?$QList@UQuaZipFileInfo64@@@@QAEXXZ 00445a40 f i quazipdir.obj
 0001:00044ad0       ?clear@?$QList@UQuaZipFileInfo@@@@QAEXXZ 00445ad0 f i quazipdir.obj
 0001:00044b60       ?clear@?$QList@VQString@@@@QAEXXZ 00445b60 f i quazipdir.obj
 0001:00044bf0       ?clone@?$QSharedDataPointer@VQuaZipDirPrivate@@@@IAEPAVQuaZipDirPrivate@@XZ 00445bf0 f i quazipdir.obj
 0001:00044c90       ?concrete@?$QHash@VQString@@UQHashDummyValue@@@@CAPAU?$QHashNode@VQString@@UQHashDummyValue@@@@PAUNode@QHashData@@@Z 00445c90 f i quazipdir.obj
 0001:00044ca0       ?constBegin@?$QList@UQuaZipFileInfo64@@@@QBE?AVconst_iterator@1@XZ 00445ca0 f i quazipdir.obj
 0001:00044cd0       ?constBegin@?$QList@VQString@@@@QBE?AVconst_iterator@1@XZ 00445cd0 f i quazipdir.obj
 0001:00044d00       ?constEnd@?$QList@UQuaZipFileInfo64@@@@QBE?AVconst_iterator@1@XZ 00445d00 f i quazipdir.obj
 0001:00044d30       ?contains@?$QHash@VQString@@UQHashDummyValue@@@@QBE_NABVQString@@@Z 00445d30 f i quazipdir.obj
 0001:00044d80       ?contains@?$QSet@VQString@@@@QBE_NABVQString@@@Z 00445d80 f i quazipdir.obj
 0001:00044da0       ?contains@QStringList@@QBE_NABVQString@@W4CaseSensitivity@Qt@@@Z 00445da0 f i quazipdir.obj
 0001:00044dd0       ?createNode@?$QHash@VQString@@UQHashDummyValue@@@@AAEPAU?$QHashNode@VQString@@UQHashDummyValue@@@@IABVQString@@ABUQHashDummyValue@@PAPAU2@@Z 00445dd0 f i quazipdir.obj
 0001:00044ed0       ?deleteNode2@?$QHash@VQString@@UQHashDummyValue@@@@CAXPAUNode@QHashData@@@Z 00445ed0 f i quazipdir.obj
 0001:00044ef0       ?detach@?$QHash@VQString@@UQHashDummyValue@@@@QAEXXZ 00445ef0 f i quazipdir.obj
 0001:00044f20       ?detach@?$QList@UQuaZipFileInfo64@@@@QAEXXZ 00445f20 f i quazipdir.obj
 0001:00044f50       ?detach@?$QList@VQString@@@@QAEXXZ 00445f50 f i quazipdir.obj
 0001:00044f80       ?detach@?$QSharedDataPointer@VQuaZipDirPrivate@@@@QAEXXZ 00445f80 f i quazipdir.obj
 0001:00044fc0       ?detach_helper@?$QHash@VQString@@UQHashDummyValue@@@@AAEXXZ 00445fc0 f i quazipdir.obj
 0001:00045030       ?detach_helper@?$QList@UQuaZipFileInfo64@@@@AAEXH@Z 00446030 f i quazipdir.obj
 0001:00045150       ?detach_helper@?$QList@UQuaZipFileInfo64@@@@AAEXXZ 00446150 f i quazipdir.obj
 0001:00045180       ?detach_helper@?$QList@VQString@@@@AAEXH@Z 00446180 f i quazipdir.obj
 0001:000452a0       ?detach_helper@?$QList@VQString@@@@AAEXXZ 004462a0 f i quazipdir.obj
 0001:000452d0       ?detach_helper@?$QSharedDataPointer@VQuaZipDirPrivate@@@@AAEXXZ 004462d0 f i quazipdir.obj
 0001:00045350       ?duplicateNode@?$QHash@VQString@@UQHashDummyValue@@@@CAXPAUNode@QHashData@@PAX@Z 00446350 f i quazipdir.obj
 0001:00045410       ?end@?$QList@UQuaZipFileInfo64@@@@QAE?AViterator@1@XZ 00446410 f i quazipdir.obj
 0001:00045450       ?end@?$QList@VQString@@@@QAE?AViterator@1@XZ 00446450 f i quazipdir.obj
 0001:00045490       ?findNode@?$QHash@VQString@@UQHashDummyValue@@@@ABEPAPAU?$QHashNode@VQString@@UQHashDummyValue@@@@ABVQString@@PAI@Z 00446490 f i quazipdir.obj
 0001:000455d0       ?freeData@?$QHash@VQString@@UQHashDummyValue@@@@AAEXPAUQHashData@@@Z 004465d0 f i quazipdir.obj
 0001:00045600       ?insert@?$QHash@VQString@@UQHashDummyValue@@@@QAE?AViterator@1@ABVQString@@ABUQHashDummyValue@@@Z 00446600 f i quazipdir.obj
 0001:000456c0       ?insert@?$QSet@VQString@@@@QAE?AViterator@1@ABVQString@@@Z 004466c0 f i quazipdir.obj
 0001:00045710       ?isEmpty@?$QList@VQString@@@@QBE_NXZ 00446710 f i quazipdir.obj
 0001:00045730       ?same_key@?$QHashNode@VQString@@UQHashDummyValue@@@@QBE_NIABVQString@@@Z 00446730 f i quazipdir.obj
 0001:00045790       ?simplePath@QuaZipDirPrivate@@ABE?AVQString@@XZ 00446790 f i quazipdir.obj
 0001:000457e0       ?swap@?$QList@UQuaZipFileInfo64@@@@QAEXAAV1@@Z 004467e0 f i quazipdir.obj
 0001:00045810       ?swap@?$QList@VQString@@@@QAEXAAV1@@Z 00446810 f i quazipdir.obj
 0001:00045840       ?t@Node@?$QList@UQuaZipFileInfo64@@@@QAEAAUQuaZipFileInfo64@@XZ 00446840 f i quazipdir.obj
 0001:00045880       ?readData@QuaZipFile@@MAE_JPAD_J@Z 00446880 f   quazipfile.obj
 0001:000458f0       ?writeData@QuaZipFile@@MAE_JPBD_J@Z 004468f0 f   quazipfile.obj
 0001:00045970       ??0QuaZipFile@@QAE@XZ      00446970 f   quazipfile.obj
 0001:00045a10       ??0QuaZipFile@@QAE@PAVQObject@@@Z 00446a10 f   quazipfile.obj
 0001:00045ac0       ??0QuaZipFile@@QAE@ABVQString@@PAVQObject@@@Z 00446ac0 f   quazipfile.obj
 0001:00045b70       ??0QuaZipFile@@QAE@ABVQString@@0W4CaseSensitivity@QuaZip@@PAVQObject@@@Z 00446b70 f   quazipfile.obj
 0001:00045c20       ??0QuaZipFile@@QAE@PAVQuaZip@@PAVQObject@@@Z 00446c20 f   quazipfile.obj
 0001:00045cd0       ??1QuaZipFile@@UAE@XZ      00446cd0 f   quazipfile.obj
 0001:00045d70       ?getZipName@QuaZipFile@@QBE?AVQString@@XZ 00446d70 f   quazipfile.obj
 0001:00045e70       ?getZip@QuaZipFile@@QBEPAVQuaZip@@XZ 00446e70 f   quazipfile.obj
 0001:00045eb0       ?getFileName@QuaZipFile@@QBE?AVQString@@XZ 00446eb0 f   quazipfile.obj
 0001:00045ef0       ?getCaseSensitivity@QuaZipFile@@QBE?AW4CaseSensitivity@QuaZip@@XZ 00446ef0 f   quazipfile.obj
 0001:00045f10       ?getActualFileName@QuaZipFile@@QBE?AVQString@@XZ 00446f10 f   quazipfile.obj
 0001:00046020       ?setZipName@QuaZipFile@@QAEXABVQString@@@Z 00447020 f   quazipfile.obj
 0001:00046140       ?isRaw@QuaZipFile@@QBE_NXZ 00447140 f   quazipfile.obj
 0001:00046160       ?setZip@QuaZipFile@@QAEXPAVQuaZip@@@Z 00447160 f   quazipfile.obj
 0001:00046270       ?setFileName@QuaZipFile@@QAEXABVQString@@W4CaseSensitivity@QuaZip@@@Z 00447270 f   quazipfile.obj
 0001:000463f0       ?open@QuaZipFile@@UAE_NV?$QFlags@W4OpenModeFlag@QIODevice@@@@@Z 004473f0 f   quazipfile.obj
 0001:00046410       ?open@QuaZipFile@@QAE_NV?$QFlags@W4OpenModeFlag@QIODevice@@@@PAH1_NPBD@Z 00447410 f   quazipfile.obj
 0001:00046710       ?open@QuaZipFile@@QAE_NV?$QFlags@W4OpenModeFlag@QIODevice@@@@ABUQuaZipNewInfo@@PBDIHH_NHHH@Z 00447710 f   quazipfile.obj
 0001:00046bb0       ?isSequential@QuaZipFile@@UBE_NXZ 00447bb0 f   quazipfile.obj
 0001:00046bc0       ?pos@QuaZipFile@@UBE_JXZ   00447bc0 f   quazipfile.obj
 0001:00046cb0       ?atEnd@QuaZipFile@@UBE_NXZ 00447cb0 f   quazipfile.obj
 0001:00046db0       ?size@QuaZipFile@@UBE_JXZ  00447db0 f   quazipfile.obj
 0001:00046e70       ?csize@QuaZipFile@@QBE_JXZ 00447e70 f   quazipfile.obj
 0001:00046f20       ?usize@QuaZipFile@@QBE_JXZ 00447f20 f   quazipfile.obj
 0001:00046fd0       ?getFileInfo@QuaZipFile@@QAE_NPAUQuaZipFileInfo@@@Z 00447fd0 f   quazipfile.obj
 0001:00047080       ?getFileInfo@QuaZipFile@@QAE_NPAUQuaZipFileInfo64@@@Z 00448080 f   quazipfile.obj
 0001:00047100       ?close@QuaZipFile@@UAEXXZ  00448100 f   quazipfile.obj
 0001:00047300       ?getZipError@QuaZipFile@@QBEHXZ 00448300 f   quazipfile.obj
 0001:00047320       ?bytesAvailable@QuaZipFile@@UBE_JXZ 00448320 f   quazipfile.obj
 0001:00047360       ?setZipError@QuaZipFilePrivate@@ABEXH@Z 00448360 f   quazipfile.obj
 0001:00047b80       ??0QLatin1Char@@QAE@D@Z    00448b80 f i quazipfile.obj
 0001:00047ba0       ??0QuaZipFilePrivate@@AAE@PAVQuaZipFile@@@Z 00448ba0 f i quazipfile.obj
 0001:00047c40       ??0QuaZipFilePrivate@@AAE@PAVQuaZipFile@@ABVQString@@1W4CaseSensitivity@QuaZip@@@Z 00448c40 f i quazipfile.obj
 0001:00047e00       ??0QuaZipFilePrivate@@AAE@PAVQuaZipFile@@ABVQString@@@Z 00448e00 f i quazipfile.obj
 0001:00047f30       ??0QuaZipFilePrivate@@AAE@PAVQuaZipFile@@PAVQuaZip@@@Z 00448f30 f i quazipfile.obj
 0001:00047fc0       ??1QuaZipFilePrivate@@AAE@XZ 00448fc0 f i quazipfile.obj
 0001:00048070       ??7?$QFlags@W4OpenModeFlag@QIODevice@@@@QBE_NXZ 00449070 f i quazipfile.obj
 0001:000480b0       ??_EQuaZipFile@@UAEPAXI@Z  004490b0 f i quazipfile.obj
 0001:00048140       ??_GQuaZipFile@@UAEPAXI@Z  00449140 f i quazipfile.obj
 0001:00048180       ??_GQuaZipFilePrivate@@AAEPAXI@Z 00449180 f i quazipfile.obj
 0001:000481c0       ?resetZipError@QuaZipFilePrivate@@ABEXXZ 004491c0 f i quazipfile.obj
 0001:000481e0       ?getPermissions@QuaZipFileInfo@@QBE?AV?$QFlags@W4Permission@QFileDevice@@@@XZ 004491e0 f   quazipfileinfo.obj
 0001:00048210       ?getPermissions@QuaZipFileInfo64@@QBE?AV?$QFlags@W4Permission@QFileDevice@@@@XZ 00449210 f   quazipfileinfo.obj
 0001:00048240       ?toQuaZipFileInfo@QuaZipFileInfo64@@QBE_NAAUQuaZipFileInfo@@@Z 00449240 f   quazipfileinfo.obj
 0001:00048370       ?getNTFSmTime@QuaZipFileInfo64@@QBE?AVQDateTime@@PAH@Z 00449370 f   quazipfileinfo.obj
 0001:000483b0       ?getNTFSaTime@QuaZipFileInfo64@@QBE?AVQDateTime@@PAH@Z 004493b0 f   quazipfileinfo.obj
 0001:000483f0       ?getNTFScTime@QuaZipFileInfo64@@QBE?AVQDateTime@@PAH@Z 004493f0 f   quazipfileinfo.obj
 0001:00048aa0       ??0?$QFlags@W4Permission@QFileDevice@@@@QAE@PQPrivate@0@H@Z 00449aa0 f i quazipfileinfo.obj
 0001:00048ac0       ??_5?$QFlags@W4Permission@QFileDevice@@@@QAEAAV0@W4Permission@QFileDevice@@@Z 00449ac0 f i quazipfileinfo.obj
 0001:00048af0       ??0QuaZipNewInfo@@QAE@ABVQString@@@Z 00449af0 f   quazipnewinfo.obj
 0001:00048bb0       ??0QuaZipNewInfo@@QAE@ABVQString@@0@Z 00449bb0 f   quazipnewinfo.obj
 0001:00048d30       ??0QuaZipNewInfo@@QAE@ABUQuaZipFileInfo@@@Z 00449d30 f   quazipnewinfo.obj
 0001:00048de0       ??0QuaZipNewInfo@@QAE@ABUQuaZipFileInfo64@@@Z 00449de0 f   quazipnewinfo.obj
 0001:00048e90       ?setFileDateTime@QuaZipNewInfo@@QAEXABVQString@@@Z 00449e90 f   quazipnewinfo.obj
 0001:00048f30       ?setFilePermissions@QuaZipNewInfo@@QAEXABVQString@@@Z 00449f30 f   quazipnewinfo.obj
 0001:00048fd0       ?setPermissions@QuaZipNewInfo@@QAEXV?$QFlags@W4Permission@QFileDevice@@@@@Z 00449fd0 f   quazipnewinfo.obj
 0001:00049010       ?setFileNTFSTimes@QuaZipNewInfo@@QAEXABVQString@@@Z 0044a010 f   quazipnewinfo.obj
 0001:00049190       ?setFileNTFSmTime@QuaZipNewInfo@@QAEXABVQDateTime@@H@Z 0044a190 f   quazipnewinfo.obj
 0001:000491d0       ?setFileNTFSaTime@QuaZipNewInfo@@QAEXABVQDateTime@@H@Z 0044a1d0 f   quazipnewinfo.obj
 0001:00049210       ?setFileNTFScTime@QuaZipNewInfo@@QAEXABVQDateTime@@H@Z 0044a210 f   quazipnewinfo.obj
 0001:00049f50       ??$QuaZipNewInfo_init@UQuaZipFileInfo64@@@@YAXAAUQuaZipNewInfo@@ABUQuaZipFileInfo64@@@Z 0044af50 f i quazipnewinfo.obj
 0001:0004a000       ??$QuaZipNewInfo_init@UQuaZipFileInfo@@@@YAXAAUQuaZipNewInfo@@ABUQuaZipFileInfo@@@Z 0044b000 f i quazipnewinfo.obj
 0001:0004a0b0       ??0?$QFlags@W4Permission@QFileDevice@@@@QAE@VQFlag@@@Z 0044b0b0 f i quazipnewinfo.obj
 0001:0004a0e0       ??I?$QFlags@W4Permission@QFileDevice@@@@QBE?AV0@W4Permission@QFileDevice@@@Z 0044b0e0 f i quazipnewinfo.obj
 0001:0004a120       _unzStringFileNameCompare  0044b120 f   unzip.obj
 0001:0004a160       _unzOpen                   0044b160 f   unzip.obj
 0001:0004a180       _unzOpen64                 0044b180 f   unzip.obj
 0001:0004a1a0       _unzOpen2                  0044b1a0 f   unzip.obj
 0001:0004a1f0       _unzOpen2_64               0044b1f0 f   unzip.obj
 0001:0004a250       _unzOpenInternal           0044b250 f   unzip.obj
 0001:0004a910       _unzClose                  0044b910 f   unzip.obj
 0001:0004a9a0       _unzGetGlobalInfo          0044b9a0 f   unzip.obj
 0001:0004a9e0       _unzGetGlobalInfo64        0044b9e0 f   unzip.obj
 0001:0004aa20       _unzGetGlobalComment       0044ba20 f   unzip.obj
 0001:0004aaf0       _unzGoToFirstFile          0044baf0 f   unzip.obj
 0001:0004ab90       _unzGoToNextFile           0044bb90 f   unzip.obj
 0001:0004acd0       _unzLocateFile             0044bcd0 f   unzip.obj
 0001:0004aeb0       _unzGetFilePos             0044beb0 f   unzip.obj
 0001:0004af00       _unzGoToFilePos            0044bf00 f   unzip.obj
 0001:0004af60       _unzGetFilePos64           0044bf60 f   unzip.obj
 0001:0004afd0       _unzGoToFilePos64          0044bfd0 f   unzip.obj
 0001:0004b070       _unzGetCurrentFileInfo64   0044c070 f   unzip.obj
 0001:0004b0a0       _unzGetCurrentFileInfo     0044c0a0 f   unzip.obj
 0001:0004b1b0       _unzGetCurrentFileZStreamPos64 0044c1b0 f   unzip.obj
 0001:0004b210       _unzOpenCurrentFile        0044c210 f   unzip.obj
 0001:0004b230       _unzOpenCurrentFilePassword 0044c230 f   unzip.obj
 0001:0004b250       _unzOpenCurrentFile2       0044c250 f   unzip.obj
 0001:0004b270       _unzOpenCurrentFile3       0044c270 f   unzip.obj
 0001:0004b740       _unzCloseCurrentFile       0044c740 f   unzip.obj
 0001:0004b830       _unzReadCurrentFile        0044c830 f   unzip.obj
 0001:0004bd90       _unztell                   0044cd90 f   unzip.obj
 0001:0004bdd0       _unztell64                 0044cdd0 f   unzip.obj
 0001:0004be20       _unzeof                    0044ce20 f   unzip.obj
 0001:0004be80       _unzGetLocalExtrafield     0044ce80 f   unzip.obj
 0001:0004bf90       _unzGetOffset64            0044cf90 f   unzip.obj
 0001:0004c030       _unzGetOffset              0044d030 f   unzip.obj
 0001:0004c060       _unzSetOffset64            0044d060 f   unzip.obj
 0001:0004c100       _unzSetOffset              0044d100 f   unzip.obj
 0001:0004c120       _unzSetFlags               0044d120 f   unzip.obj
 0001:0004c160       _unzClearFlags             0044d160 f   unzip.obj
 0001:0004d8d0       ??0AdminLogin@@QAE@PAVQWidget@@@Z 0044e8d0 f   adminlogin.obj
 0001:0004da70       ??1AdminLogin@@UAE@XZ      0044ea70 f   adminlogin.obj
 0001:0004daa0       ?exec@AdminLogin@@UAEHXZ   0044eaa0 f   adminlogin.obj
 0001:0004dac0       ?initUI@AdminLogin@@AAEXXZ 0044eac0 f   adminlogin.obj
 0001:0004e280       ?initConnect@AdminLogin@@AAEXXZ 0044f280 f   adminlogin.obj
 0001:0004e310       ?adminLogin@AdminLogin@@AAEXXZ 0044f310 f   adminlogin.obj
 0001:0004e620       _zipOpen                   0044f620 f   zip.obj
 0001:0004e640       _zipOpen64                 0044f640 f   zip.obj
 0001:0004e660       _zipOpen2                  0044f660 f   zip.obj
 0001:0004e6c0       _zipOpen2_64               0044f6c0 f   zip.obj
 0001:0004e730       _zipOpen3                  0044f730 f   zip.obj
 0001:0004e950       _zipOpenNewFileInZip       0044f950 f   zip.obj
 0001:0004e9a0       _zipOpenNewFileInZip64     0044f9a0 f   zip.obj
 0001:0004e9f0       _zipOpenNewFileInZip2      0044f9f0 f   zip.obj
 0001:0004ea40       _zipOpenNewFileInZip2_64   0044fa40 f   zip.obj
 0001:0004ea90       _zipOpenNewFileInZip3      0044fa90 f   zip.obj
 0001:0004eaf0       _zipOpenNewFileInZip3_64   0044faf0 f   zip.obj
 0001:0004eb50       _zipOpenNewFileInZip4      0044fb50 f   zip.obj
 0001:0004ebb0       _zipOpenNewFileInZip4_64   0044fbb0 f   zip.obj
 0001:0004f3a0       _zipWriteInFileInZip       004503a0 f   zip.obj
 0001:0004f590       _zipCloseFileInZip         00450590 f   zip.obj
 0001:0004f5b0       _zipCloseFileInZipRaw      004505b0 f   zip.obj
 0001:0004f5d0       _zipCloseFileInZipRaw64    004505d0 f   zip.obj
 0001:0004fde0       _zipClose                  00450de0 f   zip.obj
 0001:00050040       _zipRemoveExtraInfoBlock   00451040 f   zip.obj
 0001:00050170       _zipSetFlags               00451170 f   zip.obj
 0001:000501d0       _zipClearFlags             004511d0 f   zip.obj
 0001:00051220       _LoadCentralDirectoryRecord 00452220 f   zip.obj
 0001:00051890       _Write_LocalFileHeader     00452890 f   zip.obj
 0001:00051d50       _Write_Zip64EndOfCentralDirectoryLocator 00452d50 f   zip.obj
 0001:00051e10       _Write_Zip64EndOfCentralDirectoryRecord 00452e10 f   zip.obj
 0001:00051fc0       _Write_EndOfCentralDirectoryRecord 00452fc0 f   zip.obj
 0001:000521c0       _Write_GlobalComment       004531c0 f   zip.obj
 0001:00053320       ??0?$QFlags@W4WindowType@Qt@@@@QAE@PQPrivate@0@H@Z 00454320 f i adminlogin.obj
 0001:0005333f       ??_EAdminLogin@@W7AEPAXI@Z 0045433f f i adminlogin.obj
 0001:00053350       ??_GAdminLogin@@UAEPAXI@Z  00454350 f i adminlogin.obj
 0001:00053350       ??_EAdminLogin@@UAEPAXI@Z  00454350 f i adminlogin.obj
 0001:00053390       ?data_ptr@?$QStaticStringData@$09@@QBEPAU?$QTypedArrayData@G@@XZ 00454390 f i adminlogin.obj
 0001:000533f0       ?isStatic@RefCount@QtPrivate@@QBE_NXZ 004543f0 f i adminlogin.obj
 0001:00053430       ?retranslateUi@Ui_AdminLogin@@QAEXPAVQDialog@@@Z 00454430 f i adminlogin.obj
 0001:000534e0       ?setupUi@Ui_AdminLogin@@QAEXPAVQDialog@@@Z 004544e0 f i adminlogin.obj
 0001:00053690       ??0EMRVersion@@QAE@PAVQWidget@@@Z 00454690 f   emrversion.obj
 0001:00053820       ??1EMRVersion@@UAE@XZ      00454820 f   emrversion.obj
 0001:00053850       ?initUI@EMRVersion@@AAEXXZ 00454850 f   emrversion.obj
 0001:00054240       ?initConnect@EMRVersion@@AAEXXZ 00455240 f   emrversion.obj
 0001:000545c0       ??0?$QFlags@W4AlignmentFlag@Qt@@@@QAE@PQPrivate@0@H@Z 004555c0 f i emrversion.obj
 0001:000545e0       ??0?$QFlags@W4WindowType@Qt@@@@QAE@W4WindowType@Qt@@@Z 004555e0 f i emrversion.obj
 0001:00054600       ??_5?$QFlags@W4WindowType@Qt@@@@QAEAAV0@W4WindowType@Qt@@@Z 00455600 f i emrversion.obj
 0001:00054624       ??_EEMRVersion@@W7AEPAXI@Z 00455624 f i emrversion.obj
 0001:0005462e       ??_EQGridLayout@@W7AEPAXI@Z 0045562e f i emrversion.obj
 0001:00054638       ??_EQLabel@@W7AEPAXI@Z     00455638 f i emrversion.obj
 0001:00054642       ??_EQPushButton@@W7AEPAXI@Z 00455642 f i emrversion.obj
 0001:00054650       ??_GEMRVersion@@UAEPAXI@Z  00455650 f i emrversion.obj
 0001:00054650       ??_EEMRVersion@@UAEPAXI@Z  00455650 f i emrversion.obj
 0001:00054690       ??_GQGridLayout@@UAEPAXI@Z 00455690 f i emrversion.obj
 0001:00054690       ??_EQGridLayout@@UAEPAXI@Z 00455690 f i emrversion.obj
 0001:000546d0       ??_GQLabel@@UAEPAXI@Z      004556d0 f i emrversion.obj
 0001:000546d0       ??_EQLabel@@UAEPAXI@Z      004556d0 f i emrversion.obj
 0001:00054710       ??_GQPushButton@@UAEPAXI@Z 00455710 f i emrversion.obj
 0001:00054710       ??_EQPushButton@@UAEPAXI@Z 00455710 f i emrversion.obj
 0001:00054750       ?retranslateUi@Ui_EMRVersion@@QAEXPAVQDialog@@@Z 00455750 f i emrversion.obj
 0001:00054800       ?setupUi@Ui_EMRVersion@@QAEXPAVQDialog@@@Z 00455800 f i emrversion.obj
 0001:00054920       ?tr@EMRVersion@@SA?AVQString@@PBD0H@Z 00455920 f i emrversion.obj
 0001:00054970       ??0AutoSaveMgr@@QAE@PAVOperateMgr@@@Z 00455970 f   AutoSaveMgr.obj
 0001:000549a0       ??1AutoSaveMgr@@QAE@XZ     004559a0 f   AutoSaveMgr.obj
 0001:000549c0       ?changeStatus@AutoSaveMgr@@QAEXDD@Z 004559c0 f   AutoSaveMgr.obj
 0001:00054a20       ?myUpdate@AutoSaveMgr@@QAEXXZ 00455a20 f   AutoSaveMgr.obj
 0001:00054aa0       ??0SetUnfoldChoiceWidgetAction@@QAE@PAVStepActionManger@@@Z 00455aa0 f   SetUnfoldChoiceWidgetAction.obj
 0001:00054c90       ??1SetUnfoldChoiceWidgetAction@@UAE@XZ 00455c90 f   SetUnfoldChoiceWidgetAction.obj
 0001:00055070       ?unDo@SetUnfoldChoiceWidgetAction@@UAEXXZ 00456070 f   SetUnfoldChoiceWidgetAction.obj
 0001:000550f0       ?reDo@SetUnfoldChoiceWidgetAction@@UAEXXZ 004560f0 f   SetUnfoldChoiceWidgetAction.obj
 0001:00055170       ?initAction@SetUnfoldChoiceWidgetAction@@QAEXPAVUnfoldChoiceWidgetTemplete@@V?$QMap@VQString@@V1@@@1V?$QList@H@@2@Z 00456170 f   SetUnfoldChoiceWidgetAction.obj
 0001:00055230       ?initBeforObjList@SetUnfoldChoiceWidgetAction@@QAEXPAV?$QList@PAVViewObj@@@@0PAV?$QList@PAVChoiceItemTextWidget@@@@@Z 00456230 f   SetUnfoldChoiceWidgetAction.obj
 0001:00055270       ?initAfterObjList@SetUnfoldChoiceWidgetAction@@QAEXPAV?$QList@PAVViewObj@@@@0PAV?$QList@PAVChoiceItemTextWidget@@@@@Z 00456270 f   SetUnfoldChoiceWidgetAction.obj
 0001:00055670       ??$_Move@AAPAU?$QMapData@VQString@@V1@@@@std@@YA$$QAPAU?$QMapData@VQString@@V1@@@AAPAU1@@Z 00456670 f i SetUnfoldChoiceWidgetAction.obj
 0001:00055680       ??$qSwap@PAU?$QMapData@VQString@@V1@@@@@YAXAAPAU?$QMapData@VQString@@V1@@@0@Z 00456680 f i SetUnfoldChoiceWidgetAction.obj
 0001:000556a0       ??$swap@PAU?$QMapData@VQString@@V1@@@@std@@YAXAAPAU?$QMapData@VQString@@V1@@@0@Z 004566a0 f i SetUnfoldChoiceWidgetAction.obj
 0001:000556f0       ??0?$QList@H@@QAE@ABV0@@Z  004566f0 f i SetUnfoldChoiceWidgetAction.obj
 0001:00055810       ??0?$QList@H@@QAE@XZ       00456810 f i SetUnfoldChoiceWidgetAction.obj
 0001:00055830       ??0?$QList@PAVChoiceItemTextWidget@@@@QAE@XZ 00456830 f i SetUnfoldChoiceWidgetAction.obj
 0001:00055850       ??0?$QList@PAVViewObj@@@@QAE@XZ 00456850 f i SetUnfoldChoiceWidgetAction.obj
 0001:00055870       ??0?$QMap@VQString@@V1@@@QAE@ABV0@@Z 00456870 f i SetUnfoldChoiceWidgetAction.obj
 0001:00055910       ??0?$QMap@VQString@@V1@@@QAE@XZ 00456910 f i SetUnfoldChoiceWidgetAction.obj
 0001:00055930       ??1?$QList@H@@QAE@XZ       00456930 f i SetUnfoldChoiceWidgetAction.obj
 0001:00055970       ??1?$QList@PAVChoiceItemTextWidget@@@@QAE@XZ 00456970 f i SetUnfoldChoiceWidgetAction.obj
 0001:000559b0       ??1?$QList@PAVViewObj@@@@QAE@XZ 004569b0 f i SetUnfoldChoiceWidgetAction.obj
 0001:000559f0       ??1?$QMap@VQString@@V1@@@QAE@XZ 004569f0 f i SetUnfoldChoiceWidgetAction.obj
 0001:00055a20       ??4?$QList@H@@QAEAAV0@ABV0@@Z 00456a20 f i SetUnfoldChoiceWidgetAction.obj
 0001:00055ac0       ??4?$QList@PAVChoiceItemTextWidget@@@@QAEAAV0@$$QAV0@@Z 00456ac0 f i SetUnfoldChoiceWidgetAction.obj
 0001:00055af0       ??4?$QList@PAVViewObj@@@@QAEAAV0@$$QAV0@@Z 00456af0 f i SetUnfoldChoiceWidgetAction.obj
 0001:00055b20       ??4?$QMap@VQString@@V1@@@QAEAAV0@ABV0@@Z 00456b20 f i SetUnfoldChoiceWidgetAction.obj
 0001:00055bc0       ??_G?$QList@PAVChoiceItemTextWidget@@@@QAEPAXI@Z 00456bc0 f i SetUnfoldChoiceWidgetAction.obj
 0001:00055c00       ??_G?$QList@PAVViewObj@@@@QAEPAXI@Z 00456c00 f i SetUnfoldChoiceWidgetAction.obj
 0001:00055c40       ??_GSetUnfoldChoiceWidgetAction@@UAEPAXI@Z 00456c40 f i SetUnfoldChoiceWidgetAction.obj
 0001:00055c40       ??_ESetUnfoldChoiceWidgetAction@@UAEPAXI@Z 00456c40 f i SetUnfoldChoiceWidgetAction.obj
 0001:00055c80       ?at@?$QList@PAVChoiceItemTextWidget@@@@QBEABQAVChoiceItemTextWidget@@H@Z 00456c80 f i SetUnfoldChoiceWidgetAction.obj
 0001:00055d10       ?at@?$QList@PAVViewObj@@@@QBEABQAVViewObj@@H@Z 00456d10 f i SetUnfoldChoiceWidgetAction.obj
 0001:00055da0       ?clear@?$QList@PAVChoiceItemTextWidget@@@@QAEXXZ 00456da0 f i SetUnfoldChoiceWidgetAction.obj
 0001:00055e30       ?clear@?$QList@PAVViewObj@@@@QAEXXZ 00456e30 f i SetUnfoldChoiceWidgetAction.obj
 0001:00055ec0       ?copy@?$QMapNode@VQString@@V1@@@QBEPAU1@PAU?$QMapData@VQString@@V1@@@@Z 00456ec0 f i SetUnfoldChoiceWidgetAction.obj
 0001:00055fb0       ?create@?$QMapData@VQString@@V1@@@SAPAU1@XZ 00456fb0 f i SetUnfoldChoiceWidgetAction.obj
 0001:00055fc0       ?createNode@?$QMapData@VQString@@V1@@@QAEPAU?$QMapNode@VQString@@V1@@@ABVQString@@0PAU2@_N@Z 00456fc0 f i SetUnfoldChoiceWidgetAction.obj
 0001:00056170       ?dealloc@?$QList@H@@AAEXPAUData@QListData@@@Z 00457170 f i SetUnfoldChoiceWidgetAction.obj
 0001:000561c0       ?dealloc@?$QList@PAVChoiceItemTextWidget@@@@AAEXPAUData@QListData@@@Z 004571c0 f i SetUnfoldChoiceWidgetAction.obj
 0001:00056210       ?dealloc@?$QList@PAVViewObj@@@@AAEXPAUData@QListData@@@Z 00457210 f i SetUnfoldChoiceWidgetAction.obj
 0001:00056260       ?destroy@?$QMapData@VQString@@V1@@@QAEXXZ 00457260 f i SetUnfoldChoiceWidgetAction.obj
 0001:000562c0       ?destroySubTree@?$QMapNode@VQString@@V1@@@QAEXXZ 004572c0 f i SetUnfoldChoiceWidgetAction.obj
 0001:00056350       ?leftNode@?$QMapNode@VQString@@V1@@@QBEPAU1@XZ 00457350 f i SetUnfoldChoiceWidgetAction.obj
 0001:00056370       ?node_copy@?$QList@H@@AAEXPAUNode@1@00@Z 00457370 f i SetUnfoldChoiceWidgetAction.obj
 0001:000565c0       ?node_destruct@?$QList@H@@AAEXPAUNode@1@0@Z 004575c0 f i SetUnfoldChoiceWidgetAction.obj
 0001:00056630       ?node_destruct@?$QList@PAVChoiceItemTextWidget@@@@AAEXPAUNode@1@0@Z 00457630 f i SetUnfoldChoiceWidgetAction.obj
 0001:000566a0       ?node_destruct@?$QList@PAVViewObj@@@@AAEXPAUNode@1@0@Z 004576a0 f i SetUnfoldChoiceWidgetAction.obj
 0001:00056710       ?rightNode@?$QMapNode@VQString@@V1@@@QBEPAU1@XZ 00457710 f i SetUnfoldChoiceWidgetAction.obj
 0001:00056730       ?root@?$QMapData@VQString@@V1@@@QBEPAU?$QMapNode@VQString@@V1@@@XZ 00457730 f i SetUnfoldChoiceWidgetAction.obj
 0001:00056750       ?size@?$QList@PAVChoiceItemTextWidget@@@@QBEHXZ 00457750 f i SetUnfoldChoiceWidgetAction.obj
 0001:00056770       ?size@?$QList@PAVViewObj@@@@QBEHXZ 00457770 f i SetUnfoldChoiceWidgetAction.obj
 0001:00056790       ?swap@?$QList@H@@QAEXAAV1@@Z 00457790 f i SetUnfoldChoiceWidgetAction.obj
 0001:000567c0       ?swap@?$QMap@VQString@@V1@@@QAEXAAV1@@Z 004577c0 f i SetUnfoldChoiceWidgetAction.obj
 0001:000567f0       ?t@Node@?$QList@PAVChoiceItemTextWidget@@@@QAEAAPAVChoiceItemTextWidget@@XZ 004577f0 f i SetUnfoldChoiceWidgetAction.obj
 0001:00056820       ?t@Node@?$QList@PAVViewObj@@@@QAEAAPAVViewObj@@XZ 00457820 f i SetUnfoldChoiceWidgetAction.obj
 0001:00056850       ??0ChoiceItemTextWidget@@QAE@PAVWriterManager@@PAVBaseContainer@@DHH_N@Z 00457850 f   ChoiceItemTextWidget.obj
 0001:00056960       ??0ChoiceItemTextWidget@@QAE@PAVWriterManager@@PAV0@@Z 00457960 f   ChoiceItemTextWidget.obj
 0001:00056990       ??1ChoiceItemTextWidget@@UAE@XZ 00457990 f   ChoiceItemTextWidget.obj
 0001:00056a60       ?setTempleteProperty@ChoiceItemTextWidget@@UAE_NAAV?$QMap@VQString@@V1@@@@Z 00457a60 f   ChoiceItemTextWidget.obj
 0001:00056a70       ?setTitle@ChoiceItemTextWidget@@UAEXVQString@@_N@Z 00457a70 f   ChoiceItemTextWidget.obj
 0001:00056b40       ?setChecked@ChoiceItemTextWidget@@QAEX_N@Z 00457b40 f   ChoiceItemTextWidget.obj
 0001:00056b60       ?getChecked@ChoiceItemTextWidget@@QAE_NXZ 00457b60 f   ChoiceItemTextWidget.obj
 0001:00056b80       ?setDrawTxtParam@ChoiceItemTextWidget@@UAE_NPAVStrContentData@@@Z 00457b80 f   ChoiceItemTextWidget.obj
 0001:00056bd0       ?setPaddingLeft@ChoiceItemTextWidget@@QAEXH@Z 00457bd0 f   ChoiceItemTextWidget.obj
 0001:00056bf0       ?getPaddingLeft@ChoiceItemTextWidget@@QAEHXZ 00457bf0 f   ChoiceItemTextWidget.obj
 0001:00056d00       ??_GChoiceItemTextWidget@@UAEPAXI@Z 00457d00 f i ChoiceItemTextWidget.obj
 0001:00056d00       ??_EChoiceItemTextWidget@@UAEPAXI@Z 00457d00 f i ChoiceItemTextWidget.obj
 0001:00056d40       ?dealloc@?$QList@PAVBaseContainer@@@@AAEXPAUData@QListData@@@Z 00457d40 f i ChoiceItemTextWidget.obj
 0001:00056d90       ?detach@?$QList@PAVBaseContainer@@@@QAEXXZ 00457d90 f i ChoiceItemTextWidget.obj
 0001:00056dc0       ?detach_helper@?$QList@PAVBaseContainer@@@@AAEXH@Z 00457dc0 f i ChoiceItemTextWidget.obj
 0001:00056ee0       ?detach_helper@?$QList@PAVBaseContainer@@@@AAEXXZ 00457ee0 f i ChoiceItemTextWidget.obj
 0001:00056f10       ?detach_helper_grow@?$QList@PAVBaseContainer@@@@AAEPAUNode@1@HH@Z 00457f10 f i ChoiceItemTextWidget.obj
 0001:00057110       ?indexOf@?$QList@PAVBaseContainer@@@@QBEHABQAVBaseContainer@@H@Z 00458110 f i ChoiceItemTextWidget.obj
 0001:000571f0       ?node_construct@?$QList@PAVBaseContainer@@@@AAEXPAUNode@1@ABQAVBaseContainer@@@Z 004581f0 f i ChoiceItemTextWidget.obj
 0001:000572b0       ?node_copy@?$QList@PAVBaseContainer@@@@AAEXPAUNode@1@00@Z 004582b0 f i ChoiceItemTextWidget.obj
 0001:00057500       ?node_destruct@?$QList@PAVBaseContainer@@@@AAEXPAUNode@1@0@Z 00458500 f i ChoiceItemTextWidget.obj
 0001:00057570       ?node_destruct@?$QList@PAVBaseContainer@@@@AAEXPAUNode@1@@Z 00458570 f i ChoiceItemTextWidget.obj
 0001:000575a0       ?prepend@?$QList@PAVBaseContainer@@@@QAEXABQAVBaseContainer@@@Z 004585a0 f i ChoiceItemTextWidget.obj
 0001:00057770       ?push_front@?$QList@PAVBaseContainer@@@@QAEXABQAVBaseContainer@@@Z 00458770 f i ChoiceItemTextWidget.obj
 0001:00057790       ?removeAll@?$QList@PAVBaseContainer@@@@QAEHABQAVBaseContainer@@@Z 00458790 f i ChoiceItemTextWidget.obj
 0001:000578a0       ?setTitle@BaseTemplate@@UAEXVQString@@@Z 004588a0 f i ChoiceItemTextWidget.obj
 0001:000578c0       ?t@Node@?$QList@PAVBaseContainer@@@@QAEAAPAVBaseContainer@@XZ 004588c0 f i ChoiceItemTextWidget.obj
 0001:000578f0       ??0UnfoldChoiceWidgetTempleteParam@@QAE@PAVBaseTemplate@@PAVCodeParams@@@Z 004588f0 f   UnfoldChoiceWidgetTempleteParam.obj
 0001:00057970       ??1UnfoldChoiceWidgetTempleteParam@@UAE@XZ 00458970 f   UnfoldChoiceWidgetTempleteParam.obj
 0001:000579a0       ?setChoiceTempleteOwner@UnfoldChoiceWidgetTempleteParam@@QAEXPAVUnfoldChoiceWidgetTemplete@@@Z 004589a0 f   UnfoldChoiceWidgetTempleteParam.obj
 0001:000579c0       ?saveSelfData@UnfoldChoiceWidgetTempleteParam@@UAEXPAVBaseIOTools@@@Z 004589c0 f   UnfoldChoiceWidgetTempleteParam.obj
 0001:00057bf0       ?loadSelfData@UnfoldChoiceWidgetTempleteParam@@UAEXPAVBaseIOTools@@@Z 00458bf0 f   UnfoldChoiceWidgetTempleteParam.obj
 0001:00057c40       ?createOwner@UnfoldChoiceWidgetTempleteParam@@UAEPAVBaseContainer@@PAV2@PAVBaseIOTools@@_N@Z 00458c40 f   UnfoldChoiceWidgetTempleteParam.obj
 0001:00058060       ??_GUnfoldChoiceWidgetTempleteParam@@UAEPAXI@Z 00459060 f i UnfoldChoiceWidgetTempleteParam.obj
 0001:00058060       ??_EUnfoldChoiceWidgetTempleteParam@@UAEPAXI@Z 00459060 f i UnfoldChoiceWidgetTempleteParam.obj
 0001:000580a0       ?append@?$QList@H@@QAEXABH@Z 004590a0 f i UnfoldChoiceWidgetTempleteParam.obj
 0001:00058270       ?at@?$QList@H@@QBEABHH@Z   00459270 f i UnfoldChoiceWidgetTempleteParam.obj
 0001:00058300       ?detach_helper_grow@?$QList@H@@AAEPAUNode@1@HH@Z 00459300 f i UnfoldChoiceWidgetTempleteParam.obj
 0001:00058500       ?node_construct@?$QList@H@@AAEXPAUNode@1@ABH@Z 00459500 f i UnfoldChoiceWidgetTempleteParam.obj
 0001:000585c0       ?node_destruct@?$QList@H@@AAEXPAUNode@1@@Z 004595c0 f i UnfoldChoiceWidgetTempleteParam.obj
 0001:000585f0       ?push_back@?$QList@H@@QAEXABH@Z 004595f0 f i UnfoldChoiceWidgetTempleteParam.obj
 0001:00058610       ?push_back@?$QList@VQString@@@@QAEXABVQString@@@Z 00459610 f i UnfoldChoiceWidgetTempleteParam.obj
 0001:00058630       ?size@?$QList@H@@QBEHXZ    00459630 f i UnfoldChoiceWidgetTempleteParam.obj
 0001:00058650       ?t@Node@?$QList@H@@QAEAAHXZ 00459650 f i UnfoldChoiceWidgetTempleteParam.obj
 0001:00058680       ?metaObject@EMRVersion@@UBEPBUQMetaObject@@XZ 00459680 f   moc_emrversion.obj
 0001:000586c0       ?qt_metacast@EMRVersion@@UAEPAXPBD@Z 004596c0 f   moc_emrversion.obj
 0001:00058700       ?qt_metacall@EMRVersion@@UAEHW4Call@QMetaObject@@HPAPAX@Z 00459700 f   moc_emrversion.obj
 0001:00058740       ?qt_static_metacall@EMRVersion@@CAXPAVQObject@@W4Call@QMetaObject@@HPAPAX@Z 00459740 f   moc_emrversion.obj
 0001:00058780       ?GetModuleByRetAddr@CCrashStack@@AAE?AVQString@@PAEAAPAE@Z 00459780 f   CrashStack.obj
 0001:00058900       ?GetCallStack@CCrashStack@@AAE?AVQString@@PAU_EXCEPTION_POINTERS@@@Z 00459900 f   CrashStack.obj
 0001:00058b10       ?GetVersionStr@CCrashStack@@AAE?AVQString@@XZ 00459b10 f   CrashStack.obj
 0001:00058ff0       ?GetHardwareInaformation@CCrashStack@@AAE_NAAVQString@@0@Z 00459ff0 f   CrashStack.obj
 0001:00059970       ??0CCrashStack@@QAE@PAU_EXCEPTION_POINTERS@@@Z 0045a970 f   CrashStack.obj
 0001:00059990       ?GetExceptionInfo@CCrashStack@@QAE?AVQString@@XZ 0045a990 f   CrashStack.obj
 0001:0005a4d0       ??0Data_t@_bstr_t@@QAE@PB_W@Z 0045b4d0 f i CrashStack.obj
 0001:0005a530       ??0_bstr_t@@QAE@PB_W@Z     0045b530 f i CrashStack.obj
 0001:0005a5f0       ??1Data_t@_bstr_t@@AAE@XZ  0045b5f0 f i CrashStack.obj
 0001:0005a610       ??1_bstr_t@@QAE@XZ         0045b610 f i CrashStack.obj
 0001:0005a630       ??2Data_t@_bstr_t@@SAPAXI@Z 0045b630 f i CrashStack.obj
 0001:0005a650       ??B_bstr_t@@QBEPA_WXZ      0045b650 f i CrashStack.obj
 0001:0005a690       ??_GData_t@_bstr_t@@AAEPAXI@Z 0045b690 f i CrashStack.obj
 0001:0005a6d0       ?GetWString@Data_t@_bstr_t@@QAEAAPA_WXZ 0045b6d0 f i CrashStack.obj
 0001:0005a6f0       ?Release@Data_t@_bstr_t@@QAEKXZ 0045b6f0 f i CrashStack.obj
 0001:0005a760       ?_Free@Data_t@_bstr_t@@AAEXXZ 0045b760 f i CrashStack.obj
 0001:0005a7d0       ?_Free@_bstr_t@@AAEXXZ     0045b7d0 f i CrashStack.obj
 0001:0005b220       ??0AttributeDialog@@QAE@PAVQWidget@@@Z 0045c220 f   AttributeDialog.obj
 0001:0005b600       ??1AttributeDialog@@UAE@XZ 0045c600 f   AttributeDialog.obj
 0001:0005b670       ?fillColorList@AttributeDialog@@QAEXPAVQComboBox@@@Z 0045c670 f   AttributeDialog.obj
 0001:0005b840       ?actionOK@AttributeDialog@@QAEXXZ 0045c840 f   AttributeDialog.obj
 0001:0005b9f0       ?actionCancel@AttributeDialog@@QAEXXZ 0045c9f0 f   AttributeDialog.obj
 0001:0005ba00       ?actionCheckBox@AttributeDialog@@QAEXH@Z 0045ca00 f   AttributeDialog.obj
 0001:0005bb20       ?actionComboBox_3@AttributeDialog@@QAEXVQString@@@Z 0045cb20 f   AttributeDialog.obj
 0001:0005c0f0       ??0?$QFlags@W4StandardButton@QDialogButtonBox@@@@QAE@VQFlag@@@Z 0045d0f0 f i AttributeDialog.obj
 0001:0005c120       ??0?$QFlags@W4StandardButton@QDialogButtonBox@@@@QAE@W4StandardButton@QDialogButtonBox@@@Z 0045d120 f i AttributeDialog.obj
 0001:0005c140       ??A?$QList@VQString@@@@QAEAAVQString@@H@Z 0045d140 f i AttributeDialog.obj
 0001:0005c1d0       ??U?$QFlags@W4StandardButton@QDialogButtonBox@@@@QBE?AV0@W4StandardButton@QDialogButtonBox@@@Z 0045d1d0 f i AttributeDialog.obj
 0001:0005c210       ??U@YA?AV?$QFlags@W4StandardButton@QDialogButtonBox@@@@W4StandardButton@QDialogButtonBox@@0@Z 0045d210 f i AttributeDialog.obj
 0001:0005c23f       ??_EAttributeDialog@@W7AEPAXI@Z 0045d23f f i AttributeDialog.obj
 0001:0005c249       ??_EQCheckBox@@W7AEPAXI@Z  0045d249 f i AttributeDialog.obj
 0001:0005c253       ??_EQComboBox@@W7AEPAXI@Z  0045d253 f i AttributeDialog.obj
 0001:0005c25d       ??_EQDialogButtonBox@@W7AEPAXI@Z 0045d25d f i AttributeDialog.obj
 0001:0005c267       ??_EQLineEdit@@W7AEPAXI@Z  0045d267 f i AttributeDialog.obj
 0001:0005c280       ??_EAttributeDialog@@UAEPAXI@Z 0045d280 f i AttributeDialog.obj
 0001:0005c280       ??_GAttributeDialog@@UAEPAXI@Z 0045d280 f i AttributeDialog.obj
 0001:0005c2c0       ??_EQCheckBox@@UAEPAXI@Z   0045d2c0 f i AttributeDialog.obj
 0001:0005c2c0       ??_GQCheckBox@@UAEPAXI@Z   0045d2c0 f i AttributeDialog.obj
 0001:0005c300       ??_GQComboBox@@UAEPAXI@Z   0045d300 f i AttributeDialog.obj
 0001:0005c300       ??_EQComboBox@@UAEPAXI@Z   0045d300 f i AttributeDialog.obj
 0001:0005c340       ??_GQDialogButtonBox@@UAEPAXI@Z 0045d340 f i AttributeDialog.obj
 0001:0005c340       ??_EQDialogButtonBox@@UAEPAXI@Z 0045d340 f i AttributeDialog.obj
 0001:0005c380       ??_GQIntValidator@@UAEPAXI@Z 0045d380 f i AttributeDialog.obj
 0001:0005c380       ??_EQIntValidator@@UAEPAXI@Z 0045d380 f i AttributeDialog.obj
 0001:0005c3c0       ??_GQLineEdit@@UAEPAXI@Z   0045d3c0 f i AttributeDialog.obj
 0001:0005c3c0       ??_EQLineEdit@@UAEPAXI@Z   0045d3c0 f i AttributeDialog.obj
 0001:0005c400       ??_GQSpacerItem@@UAEPAXI@Z 0045d400 f i AttributeDialog.obj
 0001:0005c400       ??_EQSpacerItem@@UAEPAXI@Z 0045d400 f i AttributeDialog.obj
 0001:0005c440       ?data_ptr@?$QStaticStringData@$04@@QBEPAU?$QTypedArrayData@G@@XZ 0045d440 f i AttributeDialog.obj
 0001:0005c4a0       ?data_ptr@?$QStaticStringData@$06@@QBEPAU?$QTypedArrayData@G@@XZ 0045d4a0 f i AttributeDialog.obj
 0001:0005c500       ?data_ptr@?$QStaticStringData@$07@@QBEPAU?$QTypedArrayData@G@@XZ 0045d500 f i AttributeDialog.obj
 0001:0005c560       ?data_ptr@?$QStaticStringData@$08@@QBEPAU?$QTypedArrayData@G@@XZ 0045d560 f i AttributeDialog.obj
 0001:0005c5c0       ?data_ptr@?$QStaticStringData@$0M@@@QBEPAU?$QTypedArrayData@G@@XZ 0045d5c0 f i AttributeDialog.obj
 0001:0005c620       ?data_ptr@?$QStaticStringData@$0P@@@QBEPAU?$QTypedArrayData@G@@XZ 0045d620 f i AttributeDialog.obj
 0001:0005c680       ?retranslateUi@Ui_AttributeDialog@@QAEXPAVQDialog@@@Z 0045d680 f i AttributeDialog.obj
 0001:0005ce20       ?setupUi@Ui_AttributeDialog@@QAEXPAVQDialog@@@Z 0045de20 f i AttributeDialog.obj
 0001:0005ea30       ??0PictureEditWindow@@QAE@PAVImgConTentData@@PAVQWidget@@@Z 0045fa30 f   PictureEditWindow.obj
 0001:0005eb50       ??1PictureEditWindow@@UAE@XZ 0045fb50 f   PictureEditWindow.obj
 0001:0005ebc0       ?init@PictureEditWindow@@QAEXXZ 0045fbc0 f   PictureEditWindow.obj
 0001:0005efb0       ?closeEvent@PictureEditWindow@@UAEXPAVQCloseEvent@@@Z 0045ffb0 f   PictureEditWindow.obj
 0001:0005f190       ?resizeEvent@PictureEditWindow@@UAEXPAVQResizeEvent@@@Z 00460190 f   PictureEditWindow.obj
 0001:0005f220       ?getImageSnap@PictureEditWindow@@QAEXPAVImgConTentData@@@Z 00460220 f   PictureEditWindow.obj
 0001:0005f260       ?canleFocus@PictureEditWindow@@QAEXXZ 00460260 f   PictureEditWindow.obj
 0001:0005f280       ?keyPressEvent@PictureEditWindow@@MAEXPAVQKeyEvent@@@Z 00460280 f   PictureEditWindow.obj
 0001:0005f480       ?initToolBar@PictureEditWindow@@AAEXXZ 00460480 f   PictureEditWindow.obj
 0001:00060390       ?initItem@PictureEditWindow@@AAEXXZ 00461390 f   PictureEditWindow.obj
 0001:000603e0       ?saveSnap@PictureEditWindow@@AAEXXZ 004613e0 f   PictureEditWindow.obj
 0001:00060540       ?actionClicked@PictureEditWindow@@QAEXXZ 00461540 f   PictureEditWindow.obj
 0001:00060e50       ??0?$QFlags@W4AlignmentFlag@Qt@@@@QAE@VQFlag@@@Z 00461e50 f i PictureEditWindow.obj
 0001:00060e80       ??0?$QFlags@W4AlignmentFlag@Qt@@@@QAE@W4AlignmentFlag@Qt@@@Z 00461e80 f i PictureEditWindow.obj
 0001:00060ea0       ??0?$QFlags@W4StandardButton@QMessageBox@@@@QAE@VQFlag@@@Z 00461ea0 f i PictureEditWindow.obj
 0001:00060ed0       ??0?$QFlags@W4StandardButton@QMessageBox@@@@QAE@W4StandardButton@QMessageBox@@@Z 00461ed0 f i PictureEditWindow.obj
 0001:00060ef0       ??0?$QFlags@W4WindowType@Qt@@@@QAE@VQFlag@@@Z 00461ef0 f i PictureEditWindow.obj
 0001:00060f20       ??0?$QList@UStrItemData@@@@QAE@ABV0@@Z 00461f20 f i PictureEditWindow.obj
 0001:00061040       ??0?$QList@UStrItemData@@@@QAE@XZ 00462040 f i PictureEditWindow.obj
 0001:00061060       ??0StrItemData@@QAE@ABU0@@Z 00462060 f i PictureEditWindow.obj
 0001:000611b0       ??1?$QList@UStrItemData@@@@QAE@XZ 004621b0 f i PictureEditWindow.obj
 0001:000611f0       ??1StrItemData@@QAE@XZ     004621f0 f i PictureEditWindow.obj
 0001:00061280       ??U?$QFlags@W4AlignmentFlag@Qt@@@@QBE?AV0@W4AlignmentFlag@Qt@@@Z 00462280 f i PictureEditWindow.obj
 0001:000612c0       ??U?$QFlags@W4StandardButton@QMessageBox@@@@QBE?AV0@W4StandardButton@QMessageBox@@@Z 004622c0 f i PictureEditWindow.obj
 0001:00061300       ??U?$QFlags@W4WindowType@Qt@@@@QBE?AV0@W4WindowType@Qt@@@Z 00462300 f i PictureEditWindow.obj
 0001:00061340       ??U@YA?AV?$QFlags@W4AlignmentFlag@Qt@@@@W4AlignmentFlag@Qt@@0@Z 00462340 f i PictureEditWindow.obj
 0001:00061370       ??U@YA?AV?$QFlags@W4StandardButton@QMessageBox@@@@W4StandardButton@QMessageBox@@0@Z 00462370 f i PictureEditWindow.obj
 0001:000613a0       ??U@YA?AV?$QFlags@W4WindowType@Qt@@@@W4WindowType@Qt@@0@Z 004623a0 f i PictureEditWindow.obj
 0001:000613cf       ??_EPictureEditWindow@@W7AEPAXI@Z 004623cf f i PictureEditWindow.obj
 0001:000613d9       ??_EQGraphicsView@@W7AEPAXI@Z 004623d9 f i PictureEditWindow.obj
 0001:000613e3       ??_EQHBoxLayout@@W7AEPAXI@Z 004623e3 f i PictureEditWindow.obj
 0001:000613f0       ??_GPictureEditWindow@@UAEPAXI@Z 004623f0 f i PictureEditWindow.obj
 0001:000613f0       ??_EPictureEditWindow@@UAEPAXI@Z 004623f0 f i PictureEditWindow.obj
 0001:00061430       ??_EQButtonGroup@@UAEPAXI@Z 00462430 f i PictureEditWindow.obj
 0001:00061430       ??_GQButtonGroup@@UAEPAXI@Z 00462430 f i PictureEditWindow.obj
 0001:00061470       ??_EQGraphicsView@@UAEPAXI@Z 00462470 f i PictureEditWindow.obj
 0001:00061470       ??_GQGraphicsView@@UAEPAXI@Z 00462470 f i PictureEditWindow.obj
 0001:000614b0       ??_EQHBoxLayout@@UAEPAXI@Z 004624b0 f i PictureEditWindow.obj
 0001:000614b0       ??_GQHBoxLayout@@UAEPAXI@Z 004624b0 f i PictureEditWindow.obj
 0001:000614f0       ??_EQImage@@UAEPAXI@Z      004624f0 f i PictureEditWindow.obj
 0001:000614f0       ??_GQImage@@UAEPAXI@Z      004624f0 f i PictureEditWindow.obj
 0001:00061530       ??_GStrItemData@@QAEPAXI@Z 00462530 f i PictureEditWindow.obj
 0001:00061570       ?dealloc@?$QList@UStrItemData@@@@AAEXPAUData@QListData@@@Z 00462570 f i PictureEditWindow.obj
 0001:000615c0       ?isEmpty@?$QList@UStrItemData@@@@QBE_NXZ 004625c0 f i PictureEditWindow.obj
 0001:000615e0       ?node_copy@?$QList@UStrItemData@@@@AAEXPAUNode@1@00@Z 004625e0 f i PictureEditWindow.obj
 0001:000618a0       ?node_destruct@?$QList@UStrItemData@@@@AAEXPAUNode@1@0@Z 004628a0 f i PictureEditWindow.obj
 0001:00061940       ??0MyGraphicsScene@@QAE@VQString@@PAVPictureEditWindow@@@Z 00462940 f   MyGraphicsScene.obj
 0001:00061aa0       ?mousePressEvent@MyGraphicsScene@@UAEXPAVQGraphicsSceneMouseEvent@@@Z 00462aa0 f   MyGraphicsScene.obj
 0001:00061cb0       ?mouseMoveEvent@MyGraphicsScene@@UAEXPAVQGraphicsSceneMouseEvent@@@Z 00462cb0 f   MyGraphicsScene.obj
 0001:00061d30       ?mouseReleaseEvent@MyGraphicsScene@@UAEXPAVQGraphicsSceneMouseEvent@@@Z 00462d30 f   MyGraphicsScene.obj
 0001:00061db0       ?keyPressEvent@MyGraphicsScene@@UAEXPAVQKeyEvent@@@Z 00462db0 f   MyGraphicsScene.obj
 0001:00061e10       ?setType@MyGraphicsScene@@QAEXW4Shape@PictureShape@@@Z 00462e10 f   MyGraphicsScene.obj
 0001:00061e30       ?setAttribute@MyGraphicsScene@@QAEXXZ 00462e30 f   MyGraphicsScene.obj
 0001:00061e40       ?width@MyGraphicsScene@@QAEHXZ 00462e40 f   MyGraphicsScene.obj
 0001:00061e60       ?height@MyGraphicsScene@@QAEHXZ 00462e60 f   MyGraphicsScene.obj
 0001:00061e80       ?addLastItems@MyGraphicsScene@@QAEXAAV?$QList@UStrItemData@@@@@Z 00462e80 f   MyGraphicsScene.obj
 0001:00062440       ?isChanged@MyGraphicsScene@@QAE_NXZ 00463440 f   MyGraphicsScene.obj
 0001:00062460       ?cancelFoucs@MyGraphicsScene@@QAEXXZ 00463460 f   MyGraphicsScene.obj
 0001:00062490       ?saveData@MyGraphicsScene@@QAEAAV?$QList@UStrItemData@@@@XZ 00463490 f   MyGraphicsScene.obj
 0001:00062880       ?changedFoucs@MyGraphicsScene@@QAEXXZ 00463880 f   MyGraphicsScene.obj
 0001:00062940       ?createShape@MyGraphicsScene@@AAEXPAVQGraphicsSceneMouseEvent@@@Z 00463940 f   MyGraphicsScene.obj
 0001:00062df0       ?deleteItem@MyGraphicsScene@@AAEXPAVQKeyEvent@@@Z 00463df0 f   MyGraphicsScene.obj
 0001:00062ef0       ?addLastItem@MyGraphicsScene@@AAEXXZ 00463ef0 f   MyGraphicsScene.obj
 0001:00063070       ?initImg@MyGraphicsScene@@AAEXVQString@@@Z 00464070 f   MyGraphicsScene.obj
 0001:00063760       ??0?$QFlags@W4ImageConversionFlag@Qt@@@@QAE@W4ImageConversionFlag@Qt@@@Z 00464760 f i MyGraphicsScene.obj
 0001:00063780       ??0?$QForeachContainer@V?$QList@PAVQGraphicsItem@@@@@@QAE@ABV?$QList@PAVQGraphicsItem@@@@@Z 00464780 f i MyGraphicsScene.obj
 0001:00063820       ??0?$QList@PAVQGraphicsItem@@@@QAE@ABV0@@Z 00464820 f i MyGraphicsScene.obj
 0001:00063940       ??0StrItemData@@QAE@XZ     00464940 f i MyGraphicsScene.obj
 0001:00063a20       ??0const_iterator@?$QList@PAVQGraphicsItem@@@@QAE@PAUNode@1@@Z 00464a20 f i MyGraphicsScene.obj
 0001:00063a40       ??1?$QForeachContainer@V?$QList@PAVQGraphicsItem@@@@@@QAE@XZ 00464a40 f i MyGraphicsScene.obj
 0001:00063a60       ??1?$QList@PAVQGraphicsItem@@@@QAE@XZ 00464a60 f i MyGraphicsScene.obj
 0001:00063aa0       ??1MyGraphicsScene@@UAE@XZ 00464aa0 f i MyGraphicsScene.obj
 0001:00063b10       ??4?$QList@UStrItemData@@@@QAEAAV0@$$QAV0@@Z 00464b10 f i MyGraphicsScene.obj
 0001:00063b40       ??9const_iterator@?$QList@PAVQGraphicsItem@@@@QBE_NABV01@@Z 00464b40 f i MyGraphicsScene.obj
 0001:00063b80       ??A?$QList@PAVQGraphicsItem@@@@QAEAAPAVQGraphicsItem@@H@Z 00464b80 f i MyGraphicsScene.obj
 0001:00063c10       ??A?$QList@UStrItemData@@@@QAEAAUStrItemData@@H@Z 00464c10 f i MyGraphicsScene.obj
 0001:00063ca0       ??Dconst_iterator@?$QList@PAVQGraphicsItem@@@@QBEABQAVQGraphicsItem@@XZ 00464ca0 f i MyGraphicsScene.obj
 0001:00063cc0       ??Econst_iterator@?$QList@PAVQGraphicsItem@@@@QAEAAV01@XZ 00464cc0 f i MyGraphicsScene.obj
 0001:00063cf0       ??_EMyGraphicsScene@@UAEPAXI@Z 00464cf0 f i MyGraphicsScene.obj
 0001:00063cf0       ??_GMyGraphicsScene@@UAEPAXI@Z 00464cf0 f i MyGraphicsScene.obj
 0001:00063d30       ?append@?$QList@UStrItemData@@@@QAEXABUStrItemData@@@Z 00464d30 f i MyGraphicsScene.obj
 0001:00063f10       ?begin@?$QList@PAVQGraphicsItem@@@@QBE?AVconst_iterator@1@XZ 00464f10 f i MyGraphicsScene.obj
 0001:00063f40       ?clear@?$QList@UStrItemData@@@@QAEXXZ 00464f40 f i MyGraphicsScene.obj
 0001:00063fd0       ?dealloc@?$QList@PAVQGraphicsItem@@@@AAEXPAUData@QListData@@@Z 00464fd0 f i MyGraphicsScene.obj
 0001:00064020       ?detach@?$QList@PAVQGraphicsItem@@@@QAEXXZ 00465020 f i MyGraphicsScene.obj
 0001:00064050       ?detach@?$QList@UStrItemData@@@@QAEXXZ 00465050 f i MyGraphicsScene.obj
 0001:00064080       ?detach_helper@?$QList@PAVQGraphicsItem@@@@AAEXH@Z 00465080 f i MyGraphicsScene.obj
 0001:000641a0       ?detach_helper@?$QList@PAVQGraphicsItem@@@@AAEXXZ 004651a0 f i MyGraphicsScene.obj
 0001:000641d0       ?detach_helper@?$QList@UStrItemData@@@@AAEXH@Z 004651d0 f i MyGraphicsScene.obj
 0001:000642f0       ?detach_helper@?$QList@UStrItemData@@@@AAEXXZ 004652f0 f i MyGraphicsScene.obj
 0001:00064320       ?detach_helper_grow@?$QList@UStrItemData@@@@AAEPAUNode@1@HH@Z 00465320 f i MyGraphicsScene.obj
 0001:00064520       ?end@?$QList@PAVQGraphicsItem@@@@QBE?AVconst_iterator@1@XZ 00465520 f i MyGraphicsScene.obj
 0001:00064550       ?node_construct@?$QList@UStrItemData@@@@AAEXPAUNode@1@ABUStrItemData@@@Z 00465550 f i MyGraphicsScene.obj
 0001:00064680       ?node_copy@?$QList@PAVQGraphicsItem@@@@AAEXPAUNode@1@00@Z 00465680 f i MyGraphicsScene.obj
 0001:000648d0       ?node_destruct@?$QList@PAVQGraphicsItem@@@@AAEXPAUNode@1@0@Z 004658d0 f i MyGraphicsScene.obj
 0001:00064940       ?node_destruct@?$QList@UStrItemData@@@@AAEXPAUNode@1@@Z 00465940 f i MyGraphicsScene.obj
 0001:000649b0       ?push_back@?$QList@UStrItemData@@@@QAEXABUStrItemData@@@Z 004659b0 f i MyGraphicsScene.obj
 0001:000649d0       ?size@?$QList@PAVQGraphicsItem@@@@QBEHXZ 004659d0 f i MyGraphicsScene.obj
 0001:000649f0       ?size@?$QList@UStrItemData@@@@QBEHXZ 004659f0 f i MyGraphicsScene.obj
 0001:00064a10       ?t@Node@?$QList@PAVQGraphicsItem@@@@QAEAAPAVQGraphicsItem@@XZ 00465a10 f i MyGraphicsScene.obj
 0001:00064a40       ?t@Node@?$QList@UStrItemData@@@@QAEAAUStrItemData@@XZ 00465a40 f i MyGraphicsScene.obj
 0001:00064a80       ??0EllipseItem@@QAE@XZ     00465a80 f   EllipseItem.obj
 0001:00064bf0       ??1EllipseItem@@UAE@XZ     00465bf0 f   EllipseItem.obj
 0001:00064c20       ?startDraw@EllipseItem@@UAEXPAVQGraphicsSceneMouseEvent@@@Z 00465c20 f   EllipseItem.obj
 0001:00064c70       ?drawing@EllipseItem@@UAEXPAVQGraphicsSceneMouseEvent@@@Z 00465c70 f   EllipseItem.obj
 0001:00064d00       ?getType@EllipseItem@@UAEHXZ 00465d00 f   EllipseItem.obj
 0001:00064d20       ?getData@EllipseItem@@QAEXAAUStrItemData@@@Z 00465d20 f   EllipseItem.obj
 0001:00064d50       ?setData@EllipseItem@@QAEXUStrItemData@@@Z 00465d50 f   EllipseItem.obj
 0001:00064d90       ?init@EllipseItem@@QAEXVQPointF@@@Z 00465d90 f   EllipseItem.obj
 0001:00064ec0       ??0?$QFlags@W4GraphicsItemFlag@QGraphicsItem@@@@QAE@VQFlag@@@Z 00465ec0 f i EllipseItem.obj
 0001:00064ef0       ??0?$QFlags@W4GraphicsItemFlag@QGraphicsItem@@@@QAE@W4GraphicsItemFlag@QGraphicsItem@@@Z 00465ef0 f i EllipseItem.obj
 0001:00064f10       ??0PictureShape@@QAE@XZ    00465f10 f i EllipseItem.obj
 0001:00064f30       ??U?$QFlags@W4GraphicsItemFlag@QGraphicsItem@@@@QBE?AV0@W4GraphicsItemFlag@QGraphicsItem@@@Z 00465f30 f i EllipseItem.obj
 0001:00064f70       ??U@YA?AV?$QFlags@W4GraphicsItemFlag@QGraphicsItem@@@@W4GraphicsItemFlag@QGraphicsItem@@0@Z 00465f70 f i EllipseItem.obj
 0001:00064fa0       ??_GEllipseItem@@UAEPAXI@Z 00465fa0 f i EllipseItem.obj
 0001:00064fa0       ??_EEllipseItem@@UAEPAXI@Z 00465fa0 f i EllipseItem.obj
 0001:00064fe0       ??0FileData@@QAE@VQString@@DH@Z 00465fe0 f   FileData.obj
 0001:00065060       ??1FileData@@QAE@XZ        00466060 f   FileData.obj
 0001:00065080       ?getFileName@FileData@@QAE?AVQString@@XZ 00466080 f   FileData.obj
 0001:000650b0       ?getFileType@FileData@@QAEDXZ 004660b0 f   FileData.obj
 0001:000650d0       ?getFileAuthority@FileData@@QAEHXZ 004660d0 f   FileData.obj
 0001:000650f0       ?isReadOnly@FileData@@QAE_NXZ 004660f0 f   FileData.obj
 0001:00065120       ?setFileAuthority@FileData@@QAE_ND@Z 00466120 f   FileData.obj
 0001:00065150       ?saveReadWriteAuthorityLastReadWriteAuthority@FileData@@QAEXXZ 00466150 f   FileData.obj
 0001:00065170       ?backupReadWriteAuthority@FileData@@QAEXXZ 00466170 f   FileData.obj
 0001:00065190       ?canEditTemplateProperty@FileData@@QAE_NXZ 00466190 f   FileData.obj
 0001:000651c0       ?canEditTemplate@FileData@@QAE_NXZ 004661c0 f   FileData.obj
 0001:000651f0       ?canWrite@FileData@@QAE_NXZ 004661f0 f   FileData.obj
 0001:000652b0       ??0PatientInfo@@QAE@XZ     004662b0 f   PatientInfo.obj
 0001:00065310       ??0PatientInfo@@QAE@VQString@@0@Z 00466310 f   PatientInfo.obj
 0001:000653b0       ??1PatientInfo@@QAE@XZ     004663b0 f   PatientInfo.obj
 0001:00065410       ?doSave@PatientInfo@@QAEXPAVBaseIOTools@@@Z 00466410 f   PatientInfo.obj
 0001:00065460       ?doLoad@PatientInfo@@QAEXPAVBaseIOTools@@@Z 00466460 f   PatientInfo.obj
 0001:00065510       ?initInfo@PatientInfo@@QAEXVQString@@0@Z 00466510 f   PatientInfo.obj
 0001:00065590       ?getUserID@PatientInfo@@QAE?AVQString@@XZ 00466590 f   PatientInfo.obj
 0001:000655c0       ?getUserName@PatientInfo@@QAE?AVQString@@XZ 004665c0 f   PatientInfo.obj
 0001:000656d0       ??0SetAutorityInput@@QAE@PAVWriterManager@@W4SetAutotityOperateType@@@Z 004666d0 f   SetAutorityInput.obj
 0001:00065760       ??0SetAutorityInput@@QAE@PAVWriterManager@@W4SetAutotityOperateType@@VQString@@@Z 00466760 f   SetAutorityInput.obj
 0001:00065810       ??0SetAutorityInput@@QAE@PAVWriterManager@@W4SetAutotityOperateType@@H@Z 00466810 f   SetAutorityInput.obj
 0001:000658b0       ??1SetAutorityInput@@UAE@XZ 004668b0 f   SetAutorityInput.obj
 0001:00065910       ?doAction@SetAutorityInput@@UAEXXZ 00466910 f   SetAutorityInput.obj
 0001:000659b0       ?closeAllLevelOneTempleteWriteAutority@SetAutorityInput@@QAEXXZ 004669b0 f   SetAutorityInput.obj
 0001:00065a40       ?closeAllLevelOneTempleteWriteAutorityExcept@SetAutorityInput@@QAEXVQString@@@Z 00466a40 f   SetAutorityInput.obj
 0001:00065b60       ?deleteLevelOneTempleteByCodeId@SetAutorityInput@@QAEXVQString@@@Z 00466b60 f   SetAutorityInput.obj
 0001:00065c50       ?setFileAuthority@SetAutorityInput@@QAEXH@Z 00466c50 f   SetAutorityInput.obj
 0001:00065dc0       ??_ESetAutorityInput@@UAEPAXI@Z 00466dc0 f i SetAutorityInput.obj
 0001:00065dc0       ??_GSetAutorityInput@@UAEPAXI@Z 00466dc0 f i SetAutorityInput.obj
 0001:00065e00       ?at@?$QList@PAVBaseContainer@@@@QBEABQAVBaseContainer@@H@Z 00466e00 f i SetAutorityInput.obj
 0001:00065e90       ?size@?$QList@PAVBaseContainer@@@@QBEHXZ 00466e90 f i SetAutorityInput.obj
 0001:00065eb0       ??0ShortcutKeyInputParam@@QAE@PAVWriterManager@@W4ShortcutType@@@Z 00466eb0 f   ShortcutKeyInputParam.obj
 0001:00065f70       ??0ShortcutKeyInputParam@@QAE@PAVWriterManager@@PAVMyAppEntrance@@W4ShortcutType@@@Z 00466f70 f   ShortcutKeyInputParam.obj
 0001:00066030       ??0ShortcutKeyInputParam@@QAE@PAVWriterManager@@W4ShortcutType@@0@Z 00467030 f   ShortcutKeyInputParam.obj
 0001:000660f0       ??0ShortcutKeyInputParam@@QAE@PAVWriterManager@@W4ShortcutType@@0VQSize@@@Z 004670f0 f   ShortcutKeyInputParam.obj
 0001:000661c0       ??0ShortcutKeyInputParam@@QAE@PAVWriterManager@@W4ShortcutType@@VQString@@@Z 004671c0 f   ShortcutKeyInputParam.obj
 0001:000662a0       ??1ShortcutKeyInputParam@@UAE@XZ 004672a0 f   ShortcutKeyInputParam.obj
 0001:00066340       ?doAction@ShortcutKeyInputParam@@UAEXXZ 00467340 f   ShortcutKeyInputParam.obj
 0001:000665c0       ?initShowTidyAction@ShortcutKeyInputParam@@QAEX_N@Z 004675c0 f   ShortcutKeyInputParam.obj
 0001:000665e0       ?initSetPageProportyAction@ShortcutKeyInputParam@@QAEXAAV?$QMap@VQString@@V1@@@@Z 004675e0 f   ShortcutKeyInputParam.obj
 0001:00066600       ?initAddString@ShortcutKeyInputParam@@QAEXVQString@@@Z 00467600 f   ShortcutKeyInputParam.obj
 0001:00066660       ?initGenerateExcel@ShortcutKeyInputParam@@QAEXHH_N@Z 00467660 f   ShortcutKeyInputParam.obj
 0001:00066690       ?initContinuePrint@ShortcutKeyInputParam@@QAEXHH@Z 00467690 f   ShortcutKeyInputParam.obj
 0001:000668b0       ??$qMapLessThanKey@VQString@@@@YA_NABVQString@@0@Z 004678b0 f i ShortcutKeyInputParam.obj
 0001:000668d0       ??0iterator@?$QMap@VQString@@V1@@@QAE@PAU?$QMapNode@VQString@@V1@@@@Z 004678d0 f i ShortcutKeyInputParam.obj
 0001:000668f0       ??_EShortcutKeyInputParam@@UAEPAXI@Z 004678f0 f i ShortcutKeyInputParam.obj
 0001:000668f0       ??_GShortcutKeyInputParam@@UAEPAXI@Z 004678f0 f i ShortcutKeyInputParam.obj
 0001:00066930       ?detach@?$QMap@VQString@@V1@@@QAEXXZ 00467930 f i ShortcutKeyInputParam.obj
 0001:00066960       ?detach_helper@?$QMap@VQString@@V1@@@AAEXXZ 00467960 f i ShortcutKeyInputParam.obj
 0001:00066a00       ?end@?$QMapData@VQString@@V1@@@QAEPAU?$QMapNode@VQString@@V1@@@XZ 00467a00 f i ShortcutKeyInputParam.obj
 0001:00066a20       ?insert@?$QMap@VQString@@V1@@@QAE?AViterator@1@ABVQString@@0@Z 00467a20 f i ShortcutKeyInputParam.obj
 0001:00066b60       ??0UIMsgFindAndReplaceParams@@QAE@PAVWriterManager@@DVQString@@@Z 00467b60 f   UIMsgFindAndReplaceParams.obj
 0001:00066c00       ??0UIMsgFindAndReplaceParams@@QAE@PAVWriterManager@@DVQString@@1@Z 00467c00 f   UIMsgFindAndReplaceParams.obj
 0001:00066cb0       ??1UIMsgFindAndReplaceParams@@UAE@XZ 00467cb0 f   UIMsgFindAndReplaceParams.obj
 0001:00066d20       ?doAction@UIMsgFindAndReplaceParams@@UAEXXZ 00467d20 f   UIMsgFindAndReplaceParams.obj
 0001:00066ee0       ??_GUIMsgFindAndReplaceParams@@UAEPAXI@Z 00467ee0 f i UIMsgFindAndReplaceParams.obj
 0001:00066ee0       ??_EUIMsgFindAndReplaceParams@@UAEPAXI@Z 00467ee0 f i UIMsgFindAndReplaceParams.obj
 0001:00066f20       ??0UIMsgSetPageParams@@QAE@PAVWriterManager@@_NFHHHHHH@Z 00467f20 f   UIMsgSetPageParams.obj
 0001:00066fa0       ??1UIMsgSetPageParams@@UAE@XZ 00467fa0 f   UIMsgSetPageParams.obj
 0001:00066fc0       ?doAction@UIMsgSetPageParams@@UAEXXZ 00467fc0 f   UIMsgSetPageParams.obj
 0001:00067050       ??_EUIMsgSetPageParams@@UAEPAXI@Z 00468050 f i UIMsgSetPageParams.obj
 0001:00067050       ??_GUIMsgSetPageParams@@UAEPAXI@Z 00468050 f i UIMsgSetPageParams.obj
 0001:00067090       ??0UIMsgSetParagraphFloatParams@@QAE@PAVWriterManager@@DM@Z 00468090 f   UIMsgSetParagraphFloatParams.obj
 0001:000670d0       ??1UIMsgSetParagraphFloatParams@@UAE@XZ 004680d0 f   UIMsgSetParagraphFloatParams.obj
 0001:000670f0       ?doAction@UIMsgSetParagraphFloatParams@@UAEXXZ 004680f0 f   UIMsgSetParagraphFloatParams.obj
 0001:00067150       ??_GUIMsgSetParagraphFloatParams@@UAEPAXI@Z 00468150 f i UIMsgSetParagraphFloatParams.obj
 0001:00067150       ??_EUIMsgSetParagraphFloatParams@@UAEPAXI@Z 00468150 f i UIMsgSetParagraphFloatParams.obj
 0001:00067190       ??0UIMsgSetParagraphIndentParams@@QAE@PAVWriterManager@@HHDH@Z 00468190 f   UIMsgSetParagraphIndentParams.obj
 0001:000671e0       ??1UIMsgSetParagraphIndentParams@@UAE@XZ 004681e0 f   UIMsgSetParagraphIndentParams.obj
 0001:00067200       ?doAction@UIMsgSetParagraphIndentParams@@UAEXXZ 00468200 f   UIMsgSetParagraphIndentParams.obj
 0001:00067260       ??_GUIMsgSetParagraphIndentParams@@UAEPAXI@Z 00468260 f i UIMsgSetParagraphIndentParams.obj
 0001:00067260       ??_EUIMsgSetParagraphIndentParams@@UAEPAXI@Z 00468260 f i UIMsgSetParagraphIndentParams.obj
 0001:000672a0       ??0UIMsgSetParagraphIntParams@@QAE@PAVWriterManager@@DH@Z 004682a0 f   UIMsgSetParagraphIntParams.obj
 0001:000672e0       ??1UIMsgSetParagraphIntParams@@UAE@XZ 004682e0 f   UIMsgSetParagraphIntParams.obj
 0001:00067300       ?doAction@UIMsgSetParagraphIntParams@@UAEXXZ 00468300 f   UIMsgSetParagraphIntParams.obj
 0001:00067380       ??_GUIMsgSetParagraphIntParams@@UAEPAXI@Z 00468380 f i UIMsgSetParagraphIntParams.obj
 0001:00067380       ??_EUIMsgSetParagraphIntParams@@UAEPAXI@Z 00468380 f i UIMsgSetParagraphIntParams.obj
 0001:000673c0       ??0ArrowItem@@QAE@XZ       004683c0 f   ArrowItem.obj
 0001:00067530       ??1ArrowItem@@UAE@XZ       00468530 f   ArrowItem.obj
 0001:000675a0       ?startDraw@ArrowItem@@UAEXPAVQGraphicsSceneMouseEvent@@@Z 004685a0 f   ArrowItem.obj
 0001:000675e0       ?drawing@ArrowItem@@UAEXPAVQGraphicsSceneMouseEvent@@@Z 004685e0 f   ArrowItem.obj
 0001:00067b00       ?getType@ArrowItem@@UAEHXZ 00468b00 f   ArrowItem.obj
 0001:00067b20       ?getData@ArrowItem@@QAEXAAUStrItemData@@@Z 00468b20 f   ArrowItem.obj
 0001:00067b40       ?setData@ArrowItem@@QAEXUStrItemData@@@Z 00468b40 f   ArrowItem.obj
 0001:00067ba0       ?init@ArrowItem@@QAEXVQPointF@@@Z 00468ba0 f   ArrowItem.obj
 0001:00067dc0       ??_EArrowItem@@UAEPAXI@Z   00468dc0 f i ArrowItem.obj
 0001:00067dc0       ??_GArrowItem@@UAEPAXI@Z   00468dc0 f i ArrowItem.obj
 0001:00067e00       ??0CircularItem@@QAE@XZ    00468e00 f   CircularItem.obj
 0001:00067f70       ??1CircularItem@@UAE@XZ    00468f70 f   CircularItem.obj
 0001:00067fa0       ?startDraw@CircularItem@@UAEXPAVQGraphicsSceneMouseEvent@@@Z 00468fa0 f   CircularItem.obj
 0001:00067ff0       ?drawing@CircularItem@@UAEXPAVQGraphicsSceneMouseEvent@@@Z 00468ff0 f   CircularItem.obj
 0001:00068130       ?getType@CircularItem@@UAEHXZ 00469130 f   CircularItem.obj
 0001:00068150       ?getData@CircularItem@@QAEXAAUStrItemData@@@Z 00469150 f   CircularItem.obj
 0001:00068180       ?setData@CircularItem@@QAEXUStrItemData@@@Z 00469180 f   CircularItem.obj
 0001:000681c0       ?init@CircularItem@@QAEXVQPointF@@@Z 004691c0 f   CircularItem.obj
 0001:00068320       ??$_Pow_int@N@@YANNH@Z     00469320 f i CircularItem.obj
 0001:000683d0       ??_ECircularItem@@UAEPAXI@Z 004693d0 f i CircularItem.obj
 0001:000683d0       ??_GCircularItem@@UAEPAXI@Z 004693d0 f i CircularItem.obj
 0001:00068410       ?pow@@YANNH@Z              00469410 f i CircularItem.obj
 0001:00068440       ??0FreeLineItem@@QAE@XZ    00469440 f   FreeLineItem.obj
 0001:00068560       ??1FreeLineItem@@UAE@XZ    00469560 f   FreeLineItem.obj
 0001:000685d0       ?startDraw@FreeLineItem@@UAEXPAVQGraphicsSceneMouseEvent@@@Z 004695d0 f   FreeLineItem.obj
 0001:00068650       ?drawing@FreeLineItem@@UAEXPAVQGraphicsSceneMouseEvent@@@Z 00469650 f   FreeLineItem.obj
 0001:00068760       ?getType@FreeLineItem@@UAEHXZ 00469760 f   FreeLineItem.obj
 0001:00068780       ?getData@FreeLineItem@@QAEXAAUStrItemData@@@Z 00469780 f   FreeLineItem.obj
 0001:000687a0       ?setData@FreeLineItem@@QAEXUStrItemData@@@Z 004697a0 f   FreeLineItem.obj
 0001:00068800       ?init@FreeLineItem@@QAEXVQPointF@@@Z 00469800 f   FreeLineItem.obj
 0001:00068950       ??_GFreeLineItem@@UAEPAXI@Z 00469950 f i FreeLineItem.obj
 0001:00068950       ??_EFreeLineItem@@UAEPAXI@Z 00469950 f i FreeLineItem.obj
 0001:00068990       ??0LineItem@@QAE@XZ        00469990 f   LineItem.obj
 0001:00068aa0       ??1LineItem@@UAE@XZ        00469aa0 f   LineItem.obj
 0001:00068ad0       ?startDraw@LineItem@@UAEXPAVQGraphicsSceneMouseEvent@@@Z 00469ad0 f   LineItem.obj
 0001:00068b20       ?drawing@LineItem@@UAEXPAVQGraphicsSceneMouseEvent@@@Z 00469b20 f   LineItem.obj
 0001:00068b90       ?getType@LineItem@@UAEHXZ  00469b90 f   LineItem.obj
 0001:00068bb0       ?getData@LineItem@@QAEXAAUStrItemData@@@Z 00469bb0 f   LineItem.obj
 0001:00068be0       ?setData@LineItem@@QAEXUStrItemData@@@Z 00469be0 f   LineItem.obj
 0001:00068c10       ?init@LineItem@@QAEXVQPointF@@@Z 00469c10 f   LineItem.obj
 0001:00068d10       ??_ELineItem@@UAEPAXI@Z    00469d10 f i LineItem.obj
 0001:00068d10       ??_GLineItem@@UAEPAXI@Z    00469d10 f i LineItem.obj
 0001:00068d50       ??0UIMsgSetSysIntParams@@QAE@PAVWriterManager@@DH@Z 00469d50 f   UIMsgSetSysIntParams.obj
 0001:00068d90       ??1UIMsgSetSysIntParams@@UAE@XZ 00469d90 f   UIMsgSetSysIntParams.obj
 0001:00068db0       ?doAction@UIMsgSetSysIntParams@@UAEXXZ 00469db0 f   UIMsgSetSysIntParams.obj
 0001:00068e50       ??_EUIMsgSetSysIntParams@@UAEPAXI@Z 00469e50 f i UIMsgSetSysIntParams.obj
 0001:00068e50       ??_GUIMsgSetSysIntParams@@UAEPAXI@Z 00469e50 f i UIMsgSetSysIntParams.obj
 0001:00068e90       ??0UIMsgSetSysSignalParams@@QAE@PAVWriterManager@@H@Z 00469e90 f   UIMsgSetSysSignalParams.obj
 0001:00068ed0       ??1UIMsgSetSysSignalParams@@UAE@XZ 00469ed0 f   UIMsgSetSysSignalParams.obj
 0001:00068ef0       ?doAction@UIMsgSetSysSignalParams@@UAEXXZ 00469ef0 f   UIMsgSetSysSignalParams.obj
 0001:00069020       ??_EUIMsgSetSysSignalParams@@UAEPAXI@Z 0046a020 f i UIMsgSetSysSignalParams.obj
 0001:00069020       ??_GUIMsgSetSysSignalParams@@UAEPAXI@Z 0046a020 f i UIMsgSetSysSignalParams.obj
 0001:00069060       ??0UIMsgSetSysStrParams@@QAE@PAVWriterManager@@DVQString@@@Z 0046a060 f   UIMsgSetSysStrParams.obj
 0001:000690f0       ??1UIMsgSetSysStrParams@@UAE@XZ 0046a0f0 f   UIMsgSetSysStrParams.obj
 0001:00069150       ?doAction@UIMsgSetSysStrParams@@UAEXXZ 0046a150 f   UIMsgSetSysStrParams.obj
 0001:00069260       ??_EUIMsgSetSysStrParams@@UAEPAXI@Z 0046a260 f i UIMsgSetSysStrParams.obj
 0001:00069260       ??_GUIMsgSetSysStrParams@@UAEPAXI@Z 0046a260 f i UIMsgSetSysStrParams.obj
 0001:000692a0       ??0UserInfo@@QAE@PAVOperateMgr@@@Z 0046a2a0 f   UserInfo.obj
 0001:00069320       ??0UserInfo@@QAE@PAVOperateMgr@@VQString@@1PAVAuthorityData@@@Z 0046a320 f   UserInfo.obj
 0001:000693d0       ??1UserInfo@@QAE@XZ        0046a3d0 f   UserInfo.obj
 0001:00069480       ?doSave@UserInfo@@QAEXPAVBaseIOTools@@@Z 0046a480 f   UserInfo.obj
 0001:00069500       ?doLoad@UserInfo@@QAEXPAVBaseIOTools@@@Z 0046a500 f   UserInfo.obj
 0001:00069670       ?getUserID@UserInfo@@QAE?AVQString@@XZ 0046a670 f   UserInfo.obj
 0001:000696b0       ?getUserName@UserInfo@@QAE?AVQString@@XZ 0046a6b0 f   UserInfo.obj
 0001:00069800       ??_GAuthorityData@@QAEPAXI@Z 0046a800 f i UserInfo.obj
 0001:00069840       ??0OperateMgr@@QAE@PAVWriterManager@@PAVBaseIOTools@@@Z 0046a840 f   OperateMgr.obj
 0001:00069d70       ??1OperateMgr@@QAE@XZ      0046ad70 f   OperateMgr.obj
 0001:0006a2e0       ?myUpdate@OperateMgr@@QAEXXZ 0046b2e0 f   OperateMgr.obj
 0001:0006a300       ?changeStatus@OperateMgr@@QAEXD@Z 0046b300 f   OperateMgr.obj
 0001:0006a320       ?doSaveToByteArry@OperateMgr@@QAEXAAVQByteArray@@_N@Z 0046b320 f   OperateMgr.obj
 0001:0006a3c0       ?doSaveDataOnly@OperateMgr@@QAEX_N@Z 0046b3c0 f   OperateMgr.obj
 0001:0006a4f0       ?autoSave@OperateMgr@@QAEXXZ 0046b4f0 f   OperateMgr.obj
 0001:0006a560       ?doLoad1@OperateMgr@@QAEX_N@Z 0046b560 f   OperateMgr.obj
 0001:0006a9b0       ?doInsertRecord@OperateMgr@@QAEXVQString@@_N@Z 0046b9b0 f   OperateMgr.obj
 0001:0006acd0       ?activeRecordFromRecordListByFocus@OperateMgr@@QAEXAAVQString@@@Z 0046bcd0 f   OperateMgr.obj
 0001:0006ae10       ?getByteArray@OperateMgr@@QAE?AVQByteArray@@XZ 0046be10 f   OperateMgr.obj
 0001:0006ae50       ?getTitleTemp@OperateMgr@@QAEPAVBaseContainer@@XZ 0046be50 f   OperateMgr.obj
 0001:0006ae70       ?getBottomTemp@OperateMgr@@QAEPAVBaseContainer@@XZ 0046be70 f   OperateMgr.obj
 0001:0006ae90       ?getWriterMgr@OperateMgr@@QAEPAVWriterManager@@XZ 0046be90 f   OperateMgr.obj
 0001:0006aea0       ?getSystemParams@OperateMgr@@QAEPAVSystemParams@@XZ 0046bea0 f   OperateMgr.obj
 0001:0006aed0       ?getFileData@OperateMgr@@QAEPAVFileData@@XZ 0046bed0 f   OperateMgr.obj
 0001:0006aef0       ?getVersionInt@OperateMgr@@QAEHXZ 0046bef0 f   OperateMgr.obj
 0001:0006af10       ?getVersion@OperateMgr@@QAE?AVQString@@XZ 0046bf10 f   OperateMgr.obj
 0001:0006af50       ?clearView@OperateMgr@@QAEX_N@Z 0046bf50 f   OperateMgr.obj
 0001:0006afc0       ?clearRootTempAndView@OperateMgr@@QAEXXZ 0046bfc0 f   OperateMgr.obj
 0001:0006b080       ?getFlag@OperateMgr@@QAEPAVViewObj@@XZ 0046c080 f   OperateMgr.obj
 0001:0006b0a0       ?getFocus@OperateMgr@@QAEPAVViewObj@@XZ 0046c0a0 f   OperateMgr.obj
 0001:0006b0d0       ?setFocusOfEndPress@OperateMgr@@QAEXPAVViewObj@@D@Z 0046c0d0 f   OperateMgr.obj
 0001:0006b100       ?getFocusAndDirection@OperateMgr@@QAEXAAPAVViewObj@@AAD@Z 0046c100 f   OperateMgr.obj
 0001:0006b130       ?getFocusAndDirectionAndPagePanY@OperateMgr@@QAEXAAPAVViewObj@@AADAAPAVBaseViewParam@@AAH@Z 0046c130 f   OperateMgr.obj
 0001:0006b180       ?setPress@OperateMgr@@QAEXDPAVViewObj@@D_N@Z 0046c180 f   OperateMgr.obj
 0001:0006b460       ?savePressStartAndEnd@OperateMgr@@QAEXD@Z 0046c460 f   OperateMgr.obj
 0001:0006b4e0       ?backSetPressStartAndEnd@OperateMgr@@QAEX_ND@Z 0046c4e0 f   OperateMgr.obj
 0001:0006b610       ?savePressStartAndEnd2@OperateMgr@@QAEXD@Z 0046c610 f   OperateMgr.obj
 0001:0006b690       ?backSetPressStartAndEnd2@OperateMgr@@QAEX_ND@Z 0046c690 f   OperateMgr.obj
 0001:0006b7c0       ?checkIsNeedUndo@OperateMgr@@QAEXXZ 0046c7c0 f   OperateMgr.obj
 0001:0006b7e0       ?getFocusRowInsideW@OperateMgr@@QAEHXZ 0046c7e0 f   OperateMgr.obj
 0001:0006b820       ?refreshFlagLogic@OperateMgr@@QAEXXZ 0046c820 f   OperateMgr.obj
 0001:0006b850       ?getPressStart@OperateMgr@@QAEPAVFlagParam@@XZ 0046c850 f   OperateMgr.obj
 0001:0006b870       ?getPressEnd@OperateMgr@@QAEPAVFlagParam@@XZ 0046c870 f   OperateMgr.obj
 0001:0006b890       ?getWindow@OperateMgr@@QAEPAVViewObj@@XZ 0046c890 f   OperateMgr.obj
 0001:0006b8f0       ?getWinData@OperateMgr@@QAEPAVTxtWinData@@XZ 0046c8f0 f   OperateMgr.obj
 0001:0006b920       ?getPagePanel@OperateMgr@@QAEPAVViewObj@@XZ 0046c920 f   OperateMgr.obj
 0001:0006b960       ?setEffectLogicPage@OperateMgr@@QAEXPAVViewObj@@@Z 0046c960 f   OperateMgr.obj
 0001:0006b990       ?getEffectLogicPage@OperateMgr@@QAEPAVViewObj@@XZ 0046c990 f   OperateMgr.obj
 0001:0006b9b0       ?setEffectLoopPage@OperateMgr@@QAEXPAVViewObj@@@Z 0046c9b0 f   OperateMgr.obj
 0001:0006b9d0       ?getEffectLoopPage@OperateMgr@@QAEPAVViewObj@@XZ 0046c9d0 f   OperateMgr.obj
 0001:0006b9f0       ?setFileAuthority@OperateMgr@@QAE_NH@Z 0046c9f0 f   OperateMgr.obj
 0001:0006ba10       ?setTitleView@OperateMgr@@QAEX_N@Z 0046ca10 f   OperateMgr.obj
 0001:0006ba70       ?setBottomView@OperateMgr@@QAEX_N@Z 0046ca70 f   OperateMgr.obj
 0001:0006bad0       ?setTitleNumberViewType@OperateMgr@@QAEXD@Z 0046cad0 f   OperateMgr.obj
 0001:0006bb30       ?setBottomNumberViewType@OperateMgr@@QAEXD@Z 0046cb30 f   OperateMgr.obj
 0001:0006bba0       ?setParagraphNumberView@OperateMgr@@QAEX_N@Z 0046cba0 f   OperateMgr.obj
 0001:0006bc00       ?setUpsidedown@OperateMgr@@QAEX_N@Z 0046cc00 f   OperateMgr.obj
 0001:0006bc20       ?isFree@OperateMgr@@QAE_NXZ 0046cc20 f   OperateMgr.obj
 0001:0006bc50       ?isSaving@OperateMgr@@QAE_NXZ 0046cc50 f   OperateMgr.obj
 0001:0006bc80       ?findStr@OperateMgr@@QAE_NFVQString@@@Z 0046cc80 f   OperateMgr.obj
 0001:0006c680       ?replaceStr@OperateMgr@@QAE_NFVQString@@0_N@Z 0046d680 f   OperateMgr.obj
 0001:0006d530       ?findContainerChildren@OperateMgr@@QAEDPAV?$QList@PAVBaseContainer@@@@DVQString@@HAAH1@Z 0046e530 f   OperateMgr.obj
 0001:0006df20       ?findTemplateChildren@OperateMgr@@QAEDPAVBaseContainer@@DVQString@@1@Z 0046ef20 f   OperateMgr.obj
 0001:0006e480       ?pressLeft@OperateMgr@@QAEXXZ 0046f480 f   OperateMgr.obj
 0001:0006e560       ?pressRight@OperateMgr@@QAEXXZ 0046f560 f   OperateMgr.obj
 0001:0006e690       ?pressUp@OperateMgr@@QAEXXZ 0046f690 f   OperateMgr.obj
 0001:0006e700       ?pressDown@OperateMgr@@QAEXXZ 0046f700 f   OperateMgr.obj
 0001:0006e7a0       ?pressEnter@OperateMgr@@QAEXH_N@Z 0046f7a0 f   OperateMgr.obj
 0001:0006e9e0       ?pressBackspace@OperateMgr@@QAEHD_N@Z 0046f9e0 f   OperateMgr.obj
 0001:0006ed90       ?pressDel@OperateMgr@@QAEHD_N@Z 0046fd90 f   OperateMgr.obj
 0001:0006f1b0       ?doUndo@OperateMgr@@QAEXXZ 004701b0 f   OperateMgr.obj
 0001:0006f1f0       ?doRedo@OperateMgr@@QAEXXZ 004701f0 f   OperateMgr.obj
 0001:0006f210       ?doCopy@OperateMgr@@QAEXXZ 00470210 f   OperateMgr.obj
 0001:0006f270       ?doCut@OperateMgr@@QAEXXZ  00470270 f   OperateMgr.obj
 0001:0006f350       ?doPast@OperateMgr@@QAEXXZ 00470350 f   OperateMgr.obj
 0001:0006f9b0       ?addImgScaleAction@OperateMgr@@QAEXPAVBaseViewParam@@HH@Z 004709b0 f   OperateMgr.obj
 0001:0006f9f0       ?refreshFocusTxtData@OperateMgr@@QAEXXZ 004709f0 f   OperateMgr.obj
 0001:0006fae0       ?getFocusTxtData@OperateMgr@@QAEPAVStrContentData@@XZ 00470ae0 f   OperateMgr.obj
 0001:0006fb00       ?setFocusParagraphIndentParam@OperateMgr@@QAEXHHDH@Z 00470b00 f   OperateMgr.obj
 0001:0006fde0       ?setHorizonAlignType@OperateMgr@@QAEXD@Z 00470de0 f   OperateMgr.obj
 0001:00070100       ?setRowDisTimes@OperateMgr@@QAEXM@Z 00471100 f   OperateMgr.obj
 0001:00070340       ?repointFocusParagraphDataAndExcelVerticalAlignType@OperateMgr@@QAEXPAVViewObj@@@Z 00471340 f   OperateMgr.obj
 0001:00070370       ?getFocusParagraphData@OperateMgr@@QAEPAVParagraphData@@XZ 00471370 f   OperateMgr.obj
 0001:00070390       ?isOnShowTidy@OperateMgr@@QAE_NXZ 00471390 f   OperateMgr.obj
 0001:000703a0       ?showTidy@OperateMgr@@QAEX_N@Z 004713a0 f   OperateMgr.obj
 0001:000703e0       ?doPrint@OperateMgr@@QAEXXZ 004713e0 f   OperateMgr.obj
 0001:000703f0       ?addCurrentTime@OperateMgr@@QAEXXZ 004713f0 f   OperateMgr.obj
 0001:00070500       ?getFocusMedicalCodeID@OperateMgr@@QAE?AVQString@@XZ 00471500 f   OperateMgr.obj
 0001:00070530       ?clearAllAction@OperateMgr@@QAEXXZ 00471530 f   OperateMgr.obj
 0001:00070550       ?addNoTitleNode@OperateMgr@@QAEXVQString@@0H@Z 00471550 f   OperateMgr.obj
 0001:000705f0       ?addTitleNode@OperateMgr@@QAEXVQString@@0H0@Z 004715f0 f   OperateMgr.obj
 0001:00070720       ?setTitleOrBottomCanWrite@OperateMgr@@QAEXH_N@Z 00471720 f   OperateMgr.obj
 0001:00070760       ?setExcelParagraphAlignVerticalType@OperateMgr@@QAEXH@Z 00471760 f   OperateMgr.obj
 0001:00071020       ?createSetExcelLayoutAction@OperateMgr@@QAEPAVExcelVerticalLayoutAction@@PAV?$QList@PAVExcelCellData@@@@V?$QList@H@@1AA_N@Z 00472020 f   OperateMgr.obj
 0001:000711a0       ?setFontFamily@OperateMgr@@QAEXVQString@@@Z 004721a0 f   OperateMgr.obj
 0001:000714b0       ?setFontBold@OperateMgr@@QAEX_N@Z 004724b0 f   OperateMgr.obj
 0001:00071570       ?setFontItalic@OperateMgr@@QAEX_N@Z 00472570 f   OperateMgr.obj
 0001:00071630       ?setFontSize@OperateMgr@@QAEXH@Z 00472630 f   OperateMgr.obj
 0001:000716f0       ?setFontColor@OperateMgr@@QAEXH@Z 004726f0 f   OperateMgr.obj
 0001:000717b0       ?setBackgroundColor@OperateMgr@@QAEXH@Z 004727b0 f   OperateMgr.obj
 0001:00071870       ?setFlowType@OperateMgr@@QAEXD@Z 00472870 f   OperateMgr.obj
 0001:00071930       ?setUnderlineParam@OperateMgr@@QAEXDF@Z 00472930 f   OperateMgr.obj
 0001:00071b50       ?setDelLineParam@OperateMgr@@QAEXDF@Z 00472b50 f   OperateMgr.obj
 0001:00071d80       ?resizeWindow@OperateMgr@@QAEXHH@Z 00472d80 f   OperateMgr.obj
 0001:00071e20       ?setPageParams@OperateMgr@@QAED_N0FHHHHHH@Z 00472e20 f   OperateMgr.obj
 0001:000722b0       ?getPageParams@OperateMgr@@QAEXAA_NAAFAAH22222@Z 004732b0 f   OperateMgr.obj
 0001:00072340       ?selectAll@OperateMgr@@QAEXXZ 00473340 f   OperateMgr.obj
 0001:000723d0       ?clearChooseList@OperateMgr@@QAEX_N@Z 004733d0 f   OperateMgr.obj
 0001:00072460       ?refreshChooseList@OperateMgr@@QAEX_N00@Z 00473460 f   OperateMgr.obj
 0001:00072730       ?isChoosed@OperateMgr@@QAE_NPAVBaseContainer@@@Z 00473730 f   OperateMgr.obj
 0001:00072760       ?getChoosedSize@OperateMgr@@QAEHXZ 00473760 f   OperateMgr.obj
 0001:00072790       ?getChooseList@OperateMgr@@QAEPAV?$QList@PAVBaseContainer@@@@XZ 00473790 f   OperateMgr.obj
 0001:000727b0       ?hadExcelCellInChooseList@OperateMgr@@QAE_NXZ 004737b0 f   OperateMgr.obj
 0001:00072820       ?getUserID@OperateMgr@@QAEHXZ 00473820 f   OperateMgr.obj
 0001:00072830       ?addStr@OperateMgr@@QAEXVQString@@_N1@Z 00473830 f   OperateMgr.obj
 0001:00073170       ?addImg@OperateMgr@@QAEXVQString@@@Z 00474170 f   OperateMgr.obj
 0001:00073580       ?addFixTextWidget@OperateMgr@@QAEXPAV?$QMap@VQString@@V1@@@@Z 00474580 f   OperateMgr.obj
 0001:00073820       ?createNodeTile@OperateMgr@@QAEPAVBaseContainer@@PAVCodeParams@@@Z 00474820 f   OperateMgr.obj
 0001:000738b0       ?addStructurationTextWidget@OperateMgr@@QAEXPAV?$QMap@VQString@@V1@@@@Z 004748b0 f   OperateMgr.obj
 0001:00073b50       ?addInputTextWidget@OperateMgr@@QAEXPAV?$QMap@VQString@@V1@@@@Z 00474b50 f   OperateMgr.obj
 0001:00073e20       ?addMenStruationTemplete@OperateMgr@@QAEXPAV?$QMap@VQString@@V1@@@@Z 00474e20 f   OperateMgr.obj
 0001:00074140       ?addMacroTemplet@OperateMgr@@QAEXPAV?$QMap@VQString@@V1@@@@Z 00475140 f   OperateMgr.obj
 0001:000744a0       ?addTempleteChoiceWedget@OperateMgr@@QAEXPAV?$QMap@VQString@@V1@@@@Z 004754a0 f   OperateMgr.obj
 0001:00074820       ?addUnfoldChoiceWedget@OperateMgr@@QAEXPAV?$QMap@VQString@@V1@@@@Z 00475820 f   OperateMgr.obj
 0001:00074b80       ?addExcel@OperateMgr@@QAEXHH_N@Z 00475b80 f   OperateMgr.obj
 0001:00074e40       ?addHorizontalLine@OperateMgr@@QAE_NXZ 00475e40 f   OperateMgr.obj
 0001:00075090       ?addEndPageLine@OperateMgr@@QAE_NXZ 00476090 f   OperateMgr.obj
 0001:00075300       ?setRowBottomLineType@OperateMgr@@QAE_ND_N0@Z 00476300 f   OperateMgr.obj
 0001:000753a0       ?getRowBottomLineType@OperateMgr@@QAEDXZ 004763a0 f   OperateMgr.obj
 0001:000753c0       ?getPageByIndex@OperateMgr@@QAEPAVBaseContainer@@H@Z 004763c0 f   OperateMgr.obj
 0001:00075400       ?setNeedUndo@OperateMgr@@QAEX_N@Z 00476400 f   OperateMgr.obj
 0001:00075420       ?getNeedUndo@OperateMgr@@QAE_NXZ 00476420 f   OperateMgr.obj
 0001:00075440       ?refreshPagePanelByFocus@OperateMgr@@QAEXXZ 00476440 f   OperateMgr.obj
 0001:00076050       ?setNeedRefreshPagePanelYByFlag@OperateMgr@@QAEX_N@Z 00477050 f   OperateMgr.obj
 0001:00076070       ?getTotalClip@OperateMgr@@QAEPAHXZ 00477070 f   OperateMgr.obj
 0001:00076090       ?refreshTotalClipInside@OperateMgr@@QAEXHHHH@Z 00477090 f   OperateMgr.obj
 0001:00076160       ?refreshTotalClipOutside@OperateMgr@@QAEXHHHH@Z 00477160 f   OperateMgr.obj
 0001:000761d0       ?clearTotalClip@OperateMgr@@QAEXXZ 004771d0 f   OperateMgr.obj
 0001:00076210       ?getContentParagraphByIndex@OperateMgr@@QAEPAVBaseParagraph@@H@Z 00477210 f   OperateMgr.obj
 0001:00076260       ?refreshToolbarParams@OperateMgr@@QAEXXZ 00477260 f   OperateMgr.obj
 0001:000762b0       ?setDestEffectLogicPageIndex@OperateMgr@@QAEXH@Z 004772b0 f   OperateMgr.obj
 0001:000762d0       ?refreshEffectLogicPageByDestIndex@OperateMgr@@QAEXXZ 004772d0 f   OperateMgr.obj
 0001:00076320       ?addToChooseList@OperateMgr@@QAEXPAVBaseContainer@@@Z 00477320 f   OperateMgr.obj
 0001:00076450       ?needRefreshChooseList@OperateMgr@@QAE_NXZ 00477450 f   OperateMgr.obj
 0001:000764a0       ?judgeListLess@OperateMgr@@QAEXPAVViewObj@@0_N@Z 004774a0 f   OperateMgr.obj
 0001:00076500       ?judgeListOverflow@OperateMgr@@QAEXPAVViewObj@@0_N@Z 00477500 f   OperateMgr.obj
 0001:00076560       ?judgeListLess@OperateMgr@@QAEXPAV?$QList@PAVBaseContainer@@@@_N@Z 00477560 f   OperateMgr.obj
 0001:00076620       ?judgeListOverflow@OperateMgr@@QAEXPAV?$QList@PAVBaseContainer@@@@_N@Z 00477620 f   OperateMgr.obj
 0001:000766e0       ?judgeHaveOtherStrParamTxt@OperateMgr@@QAE_NDVQString@@@Z 004776e0 f   OperateMgr.obj
 0001:00076850       ?judgeHaveOtherParamTxt@OperateMgr@@QAE_NDH@Z 00477850 f   OperateMgr.obj
 0001:000769d0       ?removeObjAfterLastEnter@OperateMgr@@QAE_NPAVBaseChildrenManager@@@Z 004779d0 f   OperateMgr.obj
 0001:00076a90       ?addRowChildrenToChooseList@OperateMgr@@AAEXPAVViewObj@@0HHHHHH@Z 00477a90 f   OperateMgr.obj
 0001:00076db0       ?addToChooseList@OperateMgr@@AAEXPAVBaseContainer@@HH@Z 00477db0 f   OperateMgr.obj
 0001:00076ea0       ?addAllContentToViewSideWithOutParagraph@OperateMgr@@AAEXXZ 00477ea0 f   OperateMgr.obj
 0001:00077130       ?repointFocusParagraphData@OperateMgr@@AAEXPAVViewObj@@@Z 00478130 f   OperateMgr.obj
 0001:000771a0       ?repointFocusExcelVerticalAlignType@OperateMgr@@AAEXPAVViewObj@@@Z 004781a0 f   OperateMgr.obj
 0001:00077270       ?refreshChooseListUpsidedown@OperateMgr@@AAE_NPAVViewObj@@D0D00@Z 00478270 f   OperateMgr.obj
 0001:000773b0       ?judgeCanDelChooseList@OperateMgr@@AAE_NXZ 004783b0 f   OperateMgr.obj
 0001:00077490       ?judgeCanDelFixTempOnMedicalRecod@OperateMgr@@AAE_NPAVBaseContainer@@@Z 00478490 f   OperateMgr.obj
 0001:000774d0       ?judgeCanDelObj@OperateMgr@@AAE_NPAVBaseContainer@@W4ActionTypeOnDeleteObj@@@Z 004784d0 f   OperateMgr.obj
 0001:00077780       ?judgeCanDelEnter@OperateMgr@@AAE_NPAVBaseContainer@@@Z 00478780 f   OperateMgr.obj
 0001:00077800       ?delChooseList@OperateMgr@@AAEHD_N@Z 00478800 f   OperateMgr.obj
 0001:00077bf0       ?refreshNearestObj@OperateMgr@@AAEPAVViewObj@@D@Z 00478bf0 f   OperateMgr.obj
 0001:00077d50       ?resetFocusWhenCopy@OperateMgr@@AAEXXZ 00478d50 f   OperateMgr.obj
 0001:00077e40       ?isFocusInChooseList@OperateMgr@@AAE_NXZ 00478e40 f   OperateMgr.obj
 0001:00077ef0       ?judgeCurFocusCanWrite@OperateMgr@@AAE_N_N0@Z 00478ef0 f   OperateMgr.obj
 0001:00077f50       ?judgeCurFocusCanWrite@OperateMgr@@AAE_NPAVViewObj@@DAAPAVBaseTemplate@@AAH_N3@Z 00478f50 f   OperateMgr.obj
 0001:00078160       ?getWinMaxY@OperateMgr@@AAEHPAVLayoutViewParam@@AAH@Z 00479160 f   OperateMgr.obj
 0001:000781d0       ?addNode@OperateMgr@@AAEXVQString@@0HPAVCodeParams@@@Z 004791d0 f   OperateMgr.obj
 0001:00078440       ?setTxtNumParams@OperateMgr@@AAEXDH@Z 00479440 f   OperateMgr.obj
 0001:00078530       ?doSetFontBold@OperateMgr@@AAEXPAV?$QList@PAVBaseContainer@@@@H@Z 00479530 f   OperateMgr.obj
 0001:000786d0       ?doSetFontItalic@OperateMgr@@AAEXPAV?$QList@PAVBaseContainer@@@@H@Z 004796d0 f   OperateMgr.obj
 0001:00078800       ?doSetFontSize@OperateMgr@@AAEXPAV?$QList@PAVBaseContainer@@@@H@Z 00479800 f   OperateMgr.obj
 0001:00078980       ?doSetFontColor@OperateMgr@@AAEXPAV?$QList@PAVBaseContainer@@@@H@Z 00479980 f   OperateMgr.obj
 0001:00078a80       ?doSetBackgroundColor@OperateMgr@@AAEXPAV?$QList@PAVBaseContainer@@@@H@Z 00479a80 f   OperateMgr.obj
 0001:00078b80       ?doSetFlowType@OperateMgr@@AAEXPAV?$QList@PAVBaseContainer@@@@H@Z 00479b80 f   OperateMgr.obj
 0001:00078d10       ?getActionMgr@OperateMgr@@QAEPAVActionMgr@@XZ 00479d10 f   OperateMgr.obj
 0001:00078d30       ?getCurStepMgr@OperateMgr@@QAEPAVStepActionManger@@XZ 00479d30 f   OperateMgr.obj
 0001:00078d50       ?createNewAction@OperateMgr@@QAEXXZ 00479d50 f   OperateMgr.obj
 0001:00078d70       ?deleteAction@OperateMgr@@QAEXXZ 00479d70 f   OperateMgr.obj
 0001:00078d90       ?addToLocalAction@OperateMgr@@QAEXPAVBaseAction@@@Z 00479d90 f   OperateMgr.obj
 0001:00078db0       ?addToLocalActionAt@OperateMgr@@QAEXPAVBaseAction@@H@Z 00479db0 f   OperateMgr.obj
 0001:00078dd0       ?getLocalAction@OperateMgr@@QAEPAV?$QList@PAVBaseAction@@@@XZ 00479dd0 f   OperateMgr.obj
 0001:00078df0       ?getLocalActionLastAction@OperateMgr@@QAEPAVBaseAction@@XZ 00479df0 f   OperateMgr.obj
 0001:00078e10       ?preliminaryTreatmentChooseList@OperateMgr@@QAEXAA_N@Z 00479e10 f   OperateMgr.obj
 0001:00079000       ?CanFileWrite@OperateMgr@@QAE_NXZ 0047a000 f   OperateMgr.obj
 0001:00079020       ?getBufDrawParamList@OperateMgr@@QAEPAV?$QList@PAVStrContentData@@@@XZ 0047a020 f   OperateMgr.obj
 0001:00079040       ?loadOtherMedicalRecord@OperateMgr@@QAEXVQString@@PAVQByteArray@@@Z 0047a040 f   OperateMgr.obj
 0001:000790e0       ?loadOtherMedicalRecord@OperateMgr@@QAEXVQString@@PAVQDataStream@@@Z 0047a0e0 f   OperateMgr.obj
 0001:000793c0       ?gotoMedicalRecord@OperateMgr@@QAEXVQString@@@Z 0047a3c0 f   OperateMgr.obj
 0001:00079580       ?refreshMiddleButtonPlace@OperateMgr@@QAEXMMM@Z 0047a580 f   OperateMgr.obj
 0001:00079610       ?addExcelTempelateToOperate@OperateMgr@@QAEXPAVExcelTemplete@@@Z 0047a610 f   OperateMgr.obj
 0001:00079650       ?refreshExcel@OperateMgr@@QAEXXZ 0047a650 f   OperateMgr.obj
 0001:000796c0       ?clearBufferExcelTemp@OperateMgr@@QAEXXZ 0047a6c0 f   OperateMgr.obj
 0001:000796e0       ?setPaperTypeBySystemParam@OperateMgr@@QAEXAAVQPrinter@@@Z 0047a6e0 f   OperateMgr.obj
 0001:00079740       ?addHospitalTitle@OperateMgr@@AAEXPAVBaseContainer@@_N@Z 0047a740 f   OperateMgr.obj
 0001:000799f0       ?isContinueIfInExcelCell@OperateMgr@@AAE_NPAVViewObj@@H@Z 0047a9f0 f   OperateMgr.obj
 0001:00079a70       ?findMaxWidthInTemplate@OperateMgr@@AAEHAAV?$QList@PAVBaseContainer@@@@@Z 0047aa70 f   OperateMgr.obj
 0001:00079b20       ?canAddTemplateList@OperateMgr@@AAE_NAAV?$QList@PAVBaseContainer@@@@PAVViewObj@@@Z 0047ab20 f   OperateMgr.obj
 0001:00079b60       ?canAddTemplate@OperateMgr@@AAE_NPAVBaseContainer@@PAVViewObj@@@Z 0047ab60 f   OperateMgr.obj
 0001:00079c90       ?canExcelCellContainObjList@OperateMgr@@QAE_NAAV?$QList@PAVBaseContainer@@@@PAVViewObj@@@Z 0047ac90 f   OperateMgr.obj
 0001:00079d90       ?canExcelCellContainObj@OperateMgr@@QAE_NPAVBaseContainer@@PAVViewObj@@@Z 0047ad90 f   OperateMgr.obj
 0001:0007e8d0       ??0?$QList@PAVBaseContainer@@@@QAE@XZ 0047f8d0 f i OperateMgr.obj
 0001:0007e8f0       ??0?$QList@PAVExcelCellData@@@@QAE@XZ 0047f8f0 f i OperateMgr.obj
 0001:0007e910       ??0?$QList@PAVExcelTemplete@@@@QAE@XZ 0047f910 f i OperateMgr.obj
 0001:0007e930       ??0?$QList@PAVParagraphData@@@@QAE@XZ 0047f930 f i OperateMgr.obj
 0001:0007e950       ??0?$QList@PAVStrContentData@@@@QAE@XZ 0047f950 f i OperateMgr.obj
 0001:0007e970       ??0?$QMapIterator@VQString@@V1@@@QAE@ABV?$QMap@VQString@@V1@@@@Z 0047f970 f i OperateMgr.obj
 0001:0007ea00       ??0const_iterator@?$QList@PAVBaseContainer@@@@QAE@PAUNode@1@@Z 0047fa00 f i OperateMgr.obj
 0001:0007ea20       ??0const_iterator@?$QMap@VQString@@V1@@@QAE@PBU?$QMapNode@VQString@@V1@@@@Z 0047fa20 f i OperateMgr.obj
 0001:0007ea40       ??0iterator@?$QList@PAVBaseContainer@@@@QAE@ABV01@@Z 0047fa40 f i OperateMgr.obj
 0001:0007ea60       ??0iterator@?$QList@PAVBaseContainer@@@@QAE@PAUNode@1@@Z 0047fa60 f i OperateMgr.obj
 0001:0007ea80       ??1?$QList@PAVBaseContainer@@@@QAE@XZ 0047fa80 f i OperateMgr.obj
 0001:0007eac0       ??1?$QList@PAVExcelCellData@@@@QAE@XZ 0047fac0 f i OperateMgr.obj
 0001:0007eb00       ??1?$QList@PAVExcelTemplete@@@@QAE@XZ 0047fb00 f i OperateMgr.obj
 0001:0007eb40       ??1?$QList@PAVParagraphData@@@@QAE@XZ 0047fb40 f i OperateMgr.obj
 0001:0007eb80       ??1?$QList@PAVStrContentData@@@@QAE@XZ 0047fb80 f i OperateMgr.obj
 0001:0007ebc0       ??1?$QMapIterator@VQString@@V1@@@QAE@XZ 0047fbc0 f i OperateMgr.obj
 0001:0007ebe0       ??4?$QList@H@@QAEAAV0@$$QAV0@@Z 0047fbe0 f i OperateMgr.obj
 0001:0007ec10       ??4?$QList@PAVBaseContainer@@@@QAEAAV0@$$QAV0@@Z 0047fc10 f i OperateMgr.obj
 0001:0007ec40       ??4?$QList@PAVExcelCellData@@@@QAEAAV0@$$QAV0@@Z 0047fc40 f i OperateMgr.obj
 0001:0007ec70       ??4?$QList@PAVExcelTemplete@@@@QAEAAV0@$$QAV0@@Z 0047fc70 f i OperateMgr.obj
 0001:0007eca0       ??4?$QList@PAVParagraphData@@@@QAEAAV0@$$QAV0@@Z 0047fca0 f i OperateMgr.obj
 0001:0007ecd0       ??4?$QList@PAVStrContentData@@@@QAEAAV0@$$QAV0@@Z 0047fcd0 f i OperateMgr.obj
 0001:0007ed00       ??Fiterator@?$QList@PAVBaseContainer@@@@QAEAAV01@XZ 0047fd00 f i OperateMgr.obj
 0001:0007ed30       ??Yiterator@?$QList@PAVBaseContainer@@@@QAEAAV01@H@Z 0047fd30 f i OperateMgr.obj
 0001:0007ed60       ??_G?$QList@PAVBaseContainer@@@@QAEPAXI@Z 0047fd60 f i OperateMgr.obj
 0001:0007eda0       ??_G?$QList@PAVExcelTemplete@@@@QAEPAXI@Z 0047fda0 f i OperateMgr.obj
 0001:0007ede0       ??_G?$QList@PAVParagraphData@@@@QAEPAXI@Z 0047fde0 f i OperateMgr.obj
 0001:0007ee20       ??_G?$QList@PAVStrContentData@@@@QAEPAXI@Z 0047fe20 f i OperateMgr.obj
 0001:0007ee60       ??_GAutoSaveMgr@@QAEPAXI@Z 0047fe60 f i OperateMgr.obj
 0001:0007eea0       ??_GFlagParam@@QAEPAXI@Z   0047fea0 f i OperateMgr.obj
 0001:0007eee0       ??_GSystemParams@@QAEPAXI@Z 0047fee0 f i OperateMgr.obj
 0001:0007ef20       ?append@?$QList@PAVBaseContainer@@@@QAEXABQAVBaseContainer@@@Z 0047ff20 f i OperateMgr.obj
 0001:0007f0f0       ?append@?$QList@PAVExcelCellData@@@@QAEXABQAVExcelCellData@@@Z 004800f0 f i OperateMgr.obj
 0001:0007f2c0       ?append@?$QList@PAVExcelTemplete@@@@QAEXABQAVExcelTemplete@@@Z 004802c0 f i OperateMgr.obj
 0001:0007f490       ?append@?$QList@PAVParagraphData@@@@QAEXABQAVParagraphData@@@Z 00480490 f i OperateMgr.obj
 0001:0007f660       ?at@?$QList@PAVBaseParagraph@@@@QBEABQAVBaseParagraph@@H@Z 00480660 f i OperateMgr.obj
 0001:0007f6f0       ?at@?$QList@PAVExcelCellData@@@@QBEABQAVExcelCellData@@H@Z 004806f0 f i OperateMgr.obj
 0001:0007f780       ?at@?$QList@PAVExcelTemplete@@@@QBEABQAVExcelTemplete@@H@Z 00480780 f i OperateMgr.obj
 0001:0007f810       ?begin@?$QList@PAVBaseContainer@@@@QAE?AViterator@1@XZ 00480810 f i OperateMgr.obj
 0001:0007f850       ?begin@?$QMapData@VQString@@V1@@@QAEPAU?$QMapNode@VQString@@V1@@@XZ 00480850 f i OperateMgr.obj
 0001:0007f880       ?clear@?$QList@H@@QAEXXZ   00480880 f i OperateMgr.obj
 0001:0007f910       ?clear@?$QList@PAVBaseContainer@@@@QAEXXZ 00480910 f i OperateMgr.obj
 0001:0007f9a0       ?clear@?$QList@PAVExcelCellData@@@@QAEXXZ 004809a0 f i OperateMgr.obj
 0001:0007fa30       ?clear@?$QList@PAVExcelTemplete@@@@QAEXXZ 00480a30 f i OperateMgr.obj
 0001:0007fac0       ?clear@?$QList@PAVParagraphData@@@@QAEXXZ 00480ac0 f i OperateMgr.obj
 0001:0007fb50       ?clear@?$QList@PAVStrContentData@@@@QAEXXZ 00480b50 f i OperateMgr.obj
 0001:0007fbe0       ?constBegin@?$QList@PAVBaseContainer@@@@QBE?AVconst_iterator@1@XZ 00480be0 f i OperateMgr.obj
 0001:0007fc10       ?constBegin@?$QMap@VQString@@V1@@@QBE?AVconst_iterator@1@XZ 00480c10 f i OperateMgr.obj
 0001:0007fc40       ?constEnd@?$QList@PAVBaseContainer@@@@QBE?AVconst_iterator@1@XZ 00480c40 f i OperateMgr.obj
 0001:0007fc70       ?constEnd@?$QMap@VQString@@V1@@@QBE?AVconst_iterator@1@XZ 00480c70 f i OperateMgr.obj
 0001:0007fca0       ?contains@?$QList@PAVBaseContainer@@@@QBE_NABQAVBaseContainer@@@Z 00480ca0 f i OperateMgr.obj
 0001:0007fd20       ?data_ptr@?$QStaticStringData@$03@@QBEPAU?$QTypedArrayData@G@@XZ 00480d20 f i OperateMgr.obj
 0001:0007fd80       ?dealloc@?$QList@PAVExcelCellData@@@@AAEXPAUData@QListData@@@Z 00480d80 f i OperateMgr.obj
 0001:0007fdd0       ?dealloc@?$QList@PAVExcelTemplete@@@@AAEXPAUData@QListData@@@Z 00480dd0 f i OperateMgr.obj
 0001:0007fe20       ?dealloc@?$QList@PAVParagraphData@@@@AAEXPAUData@QListData@@@Z 00480e20 f i OperateMgr.obj
 0001:0007fe70       ?dealloc@?$QList@PAVStrContentData@@@@AAEXPAUData@QListData@@@Z 00480e70 f i OperateMgr.obj
 0001:0007fec0       ?detach_helper_grow@?$QList@PAVExcelCellData@@@@AAEPAUNode@1@HH@Z 00480ec0 f i OperateMgr.obj
 0001:000800c0       ?detach_helper_grow@?$QList@PAVExcelTemplete@@@@AAEPAUNode@1@HH@Z 004810c0 f i OperateMgr.obj
 0001:000802c0       ?detach_helper_grow@?$QList@PAVParagraphData@@@@AAEPAUNode@1@HH@Z 004812c0 f i OperateMgr.obj
 0001:000804c0       ?end@?$QList@PAVBaseContainer@@@@QAE?AViterator@1@XZ 004814c0 f i OperateMgr.obj
 0001:00080500       ?erase@?$QList@PAVBaseContainer@@@@QAE?AViterator@1@V21@@Z 00481500 f i OperateMgr.obj
 0001:000805f0       ?findNode@?$QMapData@VQString@@V1@@@QBEPAU?$QMapNode@VQString@@V1@@@ABVQString@@@Z 004815f0 f i OperateMgr.obj
 0001:00080660       ?indexOf@?$QList@PAVExcelTemplete@@@@QBEHABQAVExcelTemplete@@H@Z 00481660 f i OperateMgr.obj
 0001:00080740       ?isEmpty@?$QList@PAVBaseContainer@@@@QBE_NXZ 00481740 f i OperateMgr.obj
 0001:00080760       ?isValidIterator@?$QList@PAVBaseContainer@@@@ABE_NABViterator@1@@Z 00481760 f i OperateMgr.obj
 0001:000807c0       ?lowerBound@?$QMapNode@VQString@@V1@@@QAEPAU1@ABVQString@@@Z 004817c0 f i OperateMgr.obj
 0001:00080840       ?node_construct@?$QList@PAVExcelCellData@@@@AAEXPAUNode@1@ABQAVExcelCellData@@@Z 00481840 f i OperateMgr.obj
 0001:00080900       ?node_construct@?$QList@PAVExcelTemplete@@@@AAEXPAUNode@1@ABQAVExcelTemplete@@@Z 00481900 f i OperateMgr.obj
 0001:000809c0       ?node_construct@?$QList@PAVParagraphData@@@@AAEXPAUNode@1@ABQAVParagraphData@@@Z 004819c0 f i OperateMgr.obj
 0001:00080a80       ?node_copy@?$QList@PAVExcelCellData@@@@AAEXPAUNode@1@00@Z 00481a80 f i OperateMgr.obj
 0001:00080cd0       ?node_copy@?$QList@PAVExcelTemplete@@@@AAEXPAUNode@1@00@Z 00481cd0 f i OperateMgr.obj
 0001:00080f20       ?node_copy@?$QList@PAVParagraphData@@@@AAEXPAUNode@1@00@Z 00481f20 f i OperateMgr.obj
 0001:00081170       ?node_destruct@?$QList@PAVExcelCellData@@@@AAEXPAUNode@1@0@Z 00482170 f i OperateMgr.obj
 0001:000811e0       ?node_destruct@?$QList@PAVExcelCellData@@@@AAEXPAUNode@1@@Z 004821e0 f i OperateMgr.obj
 0001:00081210       ?node_destruct@?$QList@PAVExcelTemplete@@@@AAEXPAUNode@1@0@Z 00482210 f i OperateMgr.obj
 0001:00081280       ?node_destruct@?$QList@PAVExcelTemplete@@@@AAEXPAUNode@1@@Z 00482280 f i OperateMgr.obj
 0001:000812b0       ?node_destruct@?$QList@PAVParagraphData@@@@AAEXPAUNode@1@0@Z 004822b0 f i OperateMgr.obj
 0001:00081320       ?node_destruct@?$QList@PAVParagraphData@@@@AAEXPAUNode@1@@Z 00482320 f i OperateMgr.obj
 0001:00081350       ?node_destruct@?$QList@PAVStrContentData@@@@AAEXPAUNode@1@0@Z 00482350 f i OperateMgr.obj
 0001:000813c0       ?push_back@?$QList@PAVBaseContainer@@@@QAEXABQAVBaseContainer@@@Z 004823c0 f i OperateMgr.obj
 0001:000813e0       ?push_back@?$QList@PAVExcelCellData@@@@QAEXABQAVExcelCellData@@@Z 004823e0 f i OperateMgr.obj
 0001:00081400       ?push_back@?$QList@PAVExcelTemplete@@@@QAEXABQAVExcelTemplete@@@Z 00482400 f i OperateMgr.obj
 0001:00081420       ?push_back@?$QList@PAVParagraphData@@@@QAEXABQAVParagraphData@@@Z 00482420 f i OperateMgr.obj
 0001:00081440       ?removeAt@?$QList@PAVBaseContainer@@@@QAEXH@Z 00482440 f i OperateMgr.obj
 0001:000814a0       ?removeFirst@?$QList@PAVBaseContainer@@@@QAEXXZ 004824a0 f i OperateMgr.obj
 0001:00081520       ?removeLast@?$QList@PAVBaseContainer@@@@QAEXXZ 00482520 f i OperateMgr.obj
 0001:000815b0       ?showErrorMessageBox@MessageBoxW@@SAXVQString@@0@Z 004825b0 f i OperateMgr.obj
 0001:00081700       ?size@?$QList@PAVBaseParagraph@@@@QBEHXZ 00482700 f i OperateMgr.obj
 0001:00081720       ?size@?$QList@PAVExcelCellData@@@@QBEHXZ 00482720 f i OperateMgr.obj
 0001:00081740       ?size@?$QList@PAVExcelTemplete@@@@QBEHXZ 00482740 f i OperateMgr.obj
 0001:00081760       ?t@Node@?$QList@PAVBaseParagraph@@@@QAEAAPAVBaseParagraph@@XZ 00482760 f i OperateMgr.obj
 0001:00081790       ?t@Node@?$QList@PAVExcelCellData@@@@QAEAAPAVExcelCellData@@XZ 00482790 f i OperateMgr.obj
 0001:000817c0       ?t@Node@?$QList@PAVExcelTemplete@@@@QAEAAPAVExcelTemplete@@XZ 004827c0 f i OperateMgr.obj
 0001:000817f0       ?value@?$QMap@VQString@@V1@@@QBE?BVQString@@ABV2@0@Z 004827f0 f i OperateMgr.obj
 0001:00081870       ??0ContentDataFactory@@QAE@XZ 00482870 f   ContentDataFactory.obj
 0001:00081880       ??1ContentDataFactory@@QAE@XZ 00482880 f   ContentDataFactory.obj
 0001:00081890       ?loadObjID@ContentDataFactory@@SAXPAVBaseIOTools@@VQString@@AAH222@Z 00482890 f   ContentDataFactory.obj
 0001:00081920       ?loadData@ContentDataFactory@@SAPAVBaseContainer@@PAVWriterManager@@PAVBaseIOTools@@PAV2@D@Z 00482920 f   ContentDataFactory.obj
 0001:00082b60       ?loadCodeParams@ContentDataFactory@@SAPAVCodeParams@@PAVBaseIOTools@@PAVBaseContentData@@@Z 00483b60 f   ContentDataFactory.obj
 0001:00082cc0       ?getParagraphDataCopy@ContentDataFactory@@SAPAVParagraphData@@PAV2@@Z 00483cc0 f   ContentDataFactory.obj
 0001:00082d40       ?createDefaultParagraphData@ContentDataFactory@@SAPAVParagraphData@@XZ 00483d40 f   ContentDataFactory.obj
 0001:00082dc0       ?createDefaultTxtData@ContentDataFactory@@SAPAVStrContentData@@XZ 00483dc0 f   ContentDataFactory.obj
 0001:00083420       ??0LogicFactory@@QAE@XZ    00484420 f   LogicFactory.obj
 0001:00083430       ??1LogicFactory@@QAE@XZ    00484430 f   LogicFactory.obj
 0001:00083440       ?createLogic@LogicFactory@@SAPAVBaseLogic@@PAVViewObj@@@Z 00484440 f   LogicFactory.obj
 0001:00083580       ??0AddTempletWidgetAction@@QAE@PAVStepActionManger@@@Z 00484580 f   AddTempletWidgetAction.obj
 0001:000835e0       ??1AddTempletWidgetAction@@UAE@XZ 004845e0 f   AddTempletWidgetAction.obj
 0001:000836b0       ?unDo@AddTempletWidgetAction@@UAEXXZ 004846b0 f   AddTempletWidgetAction.obj
 0001:00083710       ?reDo@AddTempletWidgetAction@@UAEXXZ 00484710 f   AddTempletWidgetAction.obj
 0001:00083770       ?deleteTemplete@AddTempletWidgetAction@@QAEXPAVViewObj@@D@Z 00484770 f   AddTempletWidgetAction.obj
 0001:000837e0       ?addTemplete@AddTempletWidgetAction@@QAEXPAVViewObj@@D0D@Z 004847e0 f   AddTempletWidgetAction.obj
 0001:00083870       ?initAddAction@AddTempletWidgetAction@@QAEXPAVBaseTemplate@@0HPAVViewObj@@D1D@Z 00484870 f   AddTempletWidgetAction.obj
 0001:000838d0       ?initDeleteAction@AddTempletWidgetAction@@QAEXPAVBaseTemplate@@0HPAVViewObj@@D1D@Z 004848d0 f   AddTempletWidgetAction.obj
 0001:00083a20       ??_EAddTempletWidgetAction@@UAEPAXI@Z 00484a20 f i AddTempletWidgetAction.obj
 0001:00083a20       ??_GAddTempletWidgetAction@@UAEPAXI@Z 00484a20 f i AddTempletWidgetAction.obj
 0001:00083a60       ??0ExcelCellChangeLineAction@@QAE@PAVStepActionManger@@PAVExcelTemplete@@@Z 00484a60 f   ExcelCellChangeLineAction.obj
 0001:00083bd0       ??1ExcelCellChangeLineAction@@UAE@XZ 00484bd0 f   ExcelCellChangeLineAction.obj
 0001:00083d60       ?addChangeLine@ExcelCellChangeLineAction@@QAEXPAVExcelCellData@@DPAVLine@@1@Z 00484d60 f   ExcelCellChangeLineAction.obj
 0001:00083db0       ?setRelayout@ExcelCellChangeLineAction@@QAEX_N@Z 00484db0 f   ExcelCellChangeLineAction.obj
 0001:00083dd0       ?unDo@ExcelCellChangeLineAction@@UAEXXZ 00484dd0 f   ExcelCellChangeLineAction.obj
 0001:00083ec0       ?reDo@ExcelCellChangeLineAction@@UAEXXZ 00484ec0 f   ExcelCellChangeLineAction.obj
 0001:00084100       ??0?$QList@D@@QAE@XZ       00485100 f i ExcelCellChangeLineAction.obj
 0001:00084120       ??0?$QList@PAVLine@@@@QAE@XZ 00485120 f i ExcelCellChangeLineAction.obj
 0001:00084140       ??1?$QList@D@@QAE@XZ       00485140 f i ExcelCellChangeLineAction.obj
 0001:00084180       ??1?$QList@PAVLine@@@@QAE@XZ 00485180 f i ExcelCellChangeLineAction.obj
 0001:000841c0       ??4?$QList@D@@QAEAAV0@$$QAV0@@Z 004851c0 f i ExcelCellChangeLineAction.obj
 0001:000841f0       ??4?$QList@PAVLine@@@@QAEAAV0@$$QAV0@@Z 004851f0 f i ExcelCellChangeLineAction.obj
 0001:00084220       ??_G?$QList@D@@QAEPAXI@Z   00485220 f i ExcelCellChangeLineAction.obj
 0001:00084260       ??_G?$QList@PAVExcelCellData@@@@QAEPAXI@Z 00485260 f i ExcelCellChangeLineAction.obj
 0001:000842a0       ??_G?$QList@PAVLine@@@@QAEPAXI@Z 004852a0 f i ExcelCellChangeLineAction.obj
 0001:000842e0       ??_EExcelCellChangeLineAction@@UAEPAXI@Z 004852e0 f i ExcelCellChangeLineAction.obj
 0001:000842e0       ??_GExcelCellChangeLineAction@@UAEPAXI@Z 004852e0 f i ExcelCellChangeLineAction.obj
 0001:00084320       ?append@?$QList@D@@QAEXABD@Z 00485320 f i ExcelCellChangeLineAction.obj
 0001:000844f0       ?append@?$QList@PAVLine@@@@QAEXABQAVLine@@@Z 004854f0 f i ExcelCellChangeLineAction.obj
 0001:000846c0       ?at@?$QList@D@@QBEABDH@Z   004856c0 f i ExcelCellChangeLineAction.obj
 0001:00084750       ?at@?$QList@PAVLine@@@@QBEABQAVLine@@H@Z 00485750 f i ExcelCellChangeLineAction.obj
 0001:000847e0       ?clear@?$QList@D@@QAEXXZ   004857e0 f i ExcelCellChangeLineAction.obj
 0001:00084870       ?clear@?$QList@PAVLine@@@@QAEXXZ 00485870 f i ExcelCellChangeLineAction.obj
 0001:00084900       ?dealloc@?$QList@D@@AAEXPAUData@QListData@@@Z 00485900 f i ExcelCellChangeLineAction.obj
 0001:00084950       ?dealloc@?$QList@PAVLine@@@@AAEXPAUData@QListData@@@Z 00485950 f i ExcelCellChangeLineAction.obj
 0001:000849a0       ?detach_helper_grow@?$QList@D@@AAEPAUNode@1@HH@Z 004859a0 f i ExcelCellChangeLineAction.obj
 0001:00084ba0       ?detach_helper_grow@?$QList@PAVLine@@@@AAEPAUNode@1@HH@Z 00485ba0 f i ExcelCellChangeLineAction.obj
 0001:00084da0       ?node_construct@?$QList@D@@AAEXPAUNode@1@ABD@Z 00485da0 f i ExcelCellChangeLineAction.obj
 0001:00084e60       ?node_construct@?$QList@PAVLine@@@@AAEXPAUNode@1@ABQAVLine@@@Z 00485e60 f i ExcelCellChangeLineAction.obj
 0001:00084f20       ?node_copy@?$QList@D@@AAEXPAUNode@1@00@Z 00485f20 f i ExcelCellChangeLineAction.obj
 0001:00085170       ?node_copy@?$QList@PAVLine@@@@AAEXPAUNode@1@00@Z 00486170 f i ExcelCellChangeLineAction.obj
 0001:000853c0       ?node_destruct@?$QList@D@@AAEXPAUNode@1@0@Z 004863c0 f i ExcelCellChangeLineAction.obj
 0001:00085430       ?node_destruct@?$QList@D@@AAEXPAUNode@1@@Z 00486430 f i ExcelCellChangeLineAction.obj
 0001:00085460       ?node_destruct@?$QList@PAVLine@@@@AAEXPAUNode@1@0@Z 00486460 f i ExcelCellChangeLineAction.obj
 0001:000854d0       ?node_destruct@?$QList@PAVLine@@@@AAEXPAUNode@1@@Z 004864d0 f i ExcelCellChangeLineAction.obj
 0001:00085500       ?push_back@?$QList@D@@QAEXABD@Z 00486500 f i ExcelCellChangeLineAction.obj
 0001:00085520       ?push_back@?$QList@PAVLine@@@@QAEXABQAVLine@@@Z 00486520 f i ExcelCellChangeLineAction.obj
 0001:00085540       ?t@Node@?$QList@D@@QAEAADXZ 00486540 f i ExcelCellChangeLineAction.obj
 0001:00085570       ?t@Node@?$QList@PAVLine@@@@QAEAAPAVLine@@XZ 00486570 f i ExcelCellChangeLineAction.obj
 0001:000855a0       ??0ExcelRelayoutAction@@QAE@PAVStepActionManger@@PAVExcelTemplete@@@Z 004865a0 f   ExcelRelayoutAction.obj
 0001:000855e0       ??1ExcelRelayoutAction@@UAE@XZ 004865e0 f   ExcelRelayoutAction.obj
 0001:00085610       ?unDo@ExcelRelayoutAction@@UAEXXZ 00486610 f   ExcelRelayoutAction.obj
 0001:00085630       ?reDo@ExcelRelayoutAction@@UAEXXZ 00486630 f   ExcelRelayoutAction.obj
 0001:00085680       ??_EExcelRelayoutAction@@UAEPAXI@Z 00486680 f i ExcelRelayoutAction.obj
 0001:00085680       ??_GExcelRelayoutAction@@UAEPAXI@Z 00486680 f i ExcelRelayoutAction.obj
 0001:000856c0       ??0LineMoveAction@@QAE@PAVStepActionManger@@PAVExcelTemplete@@@Z 004866c0 f   LineMoveAction.obj
 0001:00085870       ??1LineMoveAction@@UAE@XZ  00486870 f   LineMoveAction.obj
 0001:00085a10       ?addMoveLine@LineMoveAction@@QAEXPAVLine@@HHHH@Z 00486a10 f   LineMoveAction.obj
 0001:00085a70       ?setRelayout@LineMoveAction@@QAEX_N@Z 00486a70 f   LineMoveAction.obj
 0001:00085a90       ?unDo@LineMoveAction@@UAEXXZ 00486a90 f   LineMoveAction.obj
 0001:00085b50       ?reDo@LineMoveAction@@UAEXXZ 00486b50 f   LineMoveAction.obj
 0001:00085d50       ??_G?$QList@H@@QAEPAXI@Z   00486d50 f i LineMoveAction.obj
 0001:00085d90       ??_ELineMoveAction@@UAEPAXI@Z 00486d90 f i LineMoveAction.obj
 0001:00085d90       ??_GLineMoveAction@@UAEPAXI@Z 00486d90 f i LineMoveAction.obj
 0001:00085dd0       ?setDragPosition@Line@@QAEXH@Z 00486dd0 f i LineMoveAction.obj
 0001:00085df0       ?setPosition@Line@@QAEXH@Z 00486df0 f i LineMoveAction.obj
 0001:00085e10       ?size@?$QList@PAVLine@@@@QBEHXZ 00486e10 f i LineMoveAction.obj
 0001:00085e30       ??0NewOrDeleteCellDataAction@@QAE@PAVStepActionManger@@PAVExcelTemplete@@@Z 00486e30 f   NewOrDeleteCellDataAction.obj
 0001:00085f30       ??1NewOrDeleteCellDataAction@@UAE@XZ 00486f30 f   NewOrDeleteCellDataAction.obj
 0001:00086130       ?addCellData@NewOrDeleteCellDataAction@@QAEXPAVExcelCellData@@_N@Z 00487130 f   NewOrDeleteCellDataAction.obj
 0001:00086160       ?unDo@NewOrDeleteCellDataAction@@UAEXXZ 00487160 f   NewOrDeleteCellDataAction.obj
 0001:00086200       ?reDo@NewOrDeleteCellDataAction@@UAEXXZ 00487200 f   NewOrDeleteCellDataAction.obj
 0001:000863b0       ??0?$QList@_N@@QAE@XZ      004873b0 f i NewOrDeleteCellDataAction.obj
 0001:000863d0       ??1?$QList@_N@@QAE@XZ      004873d0 f i NewOrDeleteCellDataAction.obj
 0001:00086410       ??4?$QList@_N@@QAEAAV0@$$QAV0@@Z 00487410 f i NewOrDeleteCellDataAction.obj
 0001:00086440       ??_G?$QList@_N@@QAEPAXI@Z  00487440 f i NewOrDeleteCellDataAction.obj
 0001:00086480       ??_ENewOrDeleteCellDataAction@@UAEPAXI@Z 00487480 f i NewOrDeleteCellDataAction.obj
 0001:00086480       ??_GNewOrDeleteCellDataAction@@UAEPAXI@Z 00487480 f i NewOrDeleteCellDataAction.obj
 0001:000864c0       ?append@?$QList@_N@@QAEXAB_N@Z 004874c0 f i NewOrDeleteCellDataAction.obj
 0001:00086690       ?at@?$QList@_N@@QBEAB_NH@Z 00487690 f i NewOrDeleteCellDataAction.obj
 0001:00086720       ?clear@?$QList@_N@@QAEXXZ  00487720 f i NewOrDeleteCellDataAction.obj
 0001:000867b0       ?dealloc@?$QList@_N@@AAEXPAUData@QListData@@@Z 004877b0 f i NewOrDeleteCellDataAction.obj
 0001:00086800       ?detach@?$QList@PAVExcelCellData@@@@QAEXXZ 00487800 f i NewOrDeleteCellDataAction.obj
 0001:00086830       ?detach_helper@?$QList@PAVExcelCellData@@@@AAEXH@Z 00487830 f i NewOrDeleteCellDataAction.obj
 0001:00086950       ?detach_helper@?$QList@PAVExcelCellData@@@@AAEXXZ 00487950 f i NewOrDeleteCellDataAction.obj
 0001:00086980       ?detach_helper_grow@?$QList@_N@@AAEPAUNode@1@HH@Z 00487980 f i NewOrDeleteCellDataAction.obj
 0001:00086b80       ?indexOf@?$QList@PAVExcelCellData@@@@QBEHABQAVExcelCellData@@H@Z 00487b80 f i NewOrDeleteCellDataAction.obj
 0001:00086c60       ?node_construct@?$QList@_N@@AAEXPAUNode@1@AB_N@Z 00487c60 f i NewOrDeleteCellDataAction.obj
 0001:00086d20       ?node_copy@?$QList@_N@@AAEXPAUNode@1@00@Z 00487d20 f i NewOrDeleteCellDataAction.obj
 0001:00086f70       ?node_destruct@?$QList@_N@@AAEXPAUNode@1@0@Z 00487f70 f i NewOrDeleteCellDataAction.obj
 0001:00086fe0       ?node_destruct@?$QList@_N@@AAEXPAUNode@1@@Z 00487fe0 f i NewOrDeleteCellDataAction.obj
 0001:00087010       ?push_back@?$QList@_N@@QAEXAB_N@Z 00488010 f i NewOrDeleteCellDataAction.obj
 0001:00087030       ?removeAll@?$QList@PAVExcelCellData@@@@QAEHABQAVExcelCellData@@@Z 00488030 f i NewOrDeleteCellDataAction.obj
 0001:00087140       ?t@Node@?$QList@_N@@QAEAA_NXZ 00488140 f i NewOrDeleteCellDataAction.obj
 0001:00087170       ??0NewOrDeleteLineAction@@QAE@PAVStepActionManger@@PAVExcelTemplete@@@Z 00488170 f   NewOrDeleteLineAction.obj
 0001:000872c0       ??1NewOrDeleteLineAction@@UAE@XZ 004882c0 f   NewOrDeleteLineAction.obj
 0001:00087500       ?addLine@NewOrDeleteLineAction@@QAEXPAVLine@@_N1@Z 00488500 f   NewOrDeleteLineAction.obj
 0001:00087540       ?setRelayout@NewOrDeleteLineAction@@QAEX_N@Z 00488540 f   NewOrDeleteLineAction.obj
 0001:00087560       ?unDo@NewOrDeleteLineAction@@UAEXXZ 00488560 f   NewOrDeleteLineAction.obj
 0001:00087730       ?reDo@NewOrDeleteLineAction@@UAEXXZ 00488730 f   NewOrDeleteLineAction.obj
 0001:00087ae0       ??1Line@@QAE@XZ            00488ae0 f i NewOrDeleteLineAction.obj
 0001:00087af0       ??_GLine@@QAEPAXI@Z        00488af0 f i NewOrDeleteLineAction.obj
 0001:00087b30       ??_GNewOrDeleteLineAction@@UAEPAXI@Z 00488b30 f i NewOrDeleteLineAction.obj
 0001:00087b30       ??_ENewOrDeleteLineAction@@UAEPAXI@Z 00488b30 f i NewOrDeleteLineAction.obj
 0001:00087b70       ?detach@?$QList@PAVLine@@@@QAEXXZ 00488b70 f i NewOrDeleteLineAction.obj
 0001:00087ba0       ?detach_helper@?$QList@PAVLine@@@@AAEXH@Z 00488ba0 f i NewOrDeleteLineAction.obj
 0001:00087cc0       ?detach_helper@?$QList@PAVLine@@@@AAEXXZ 00488cc0 f i NewOrDeleteLineAction.obj
 0001:00087cf0       ?getDragPosition@Line@@QAEHXZ 00488cf0 f i NewOrDeleteLineAction.obj
 0001:00087d10       ?getPosition@Line@@QAEHXZ  00488d10 f i NewOrDeleteLineAction.obj
 0001:00087d30       ?indexOf@?$QList@PAVLine@@@@QBEHABQAVLine@@H@Z 00488d30 f i NewOrDeleteLineAction.obj
 0001:00087e10       ?removeAll@?$QList@PAVLine@@@@QAEHABQAVLine@@@Z 00488e10 f i NewOrDeleteLineAction.obj
 0001:00087f20       ?swap@?$QList@PAVLine@@@@QAEXHH@Z 00488f20 f i NewOrDeleteLineAction.obj
 0001:00088020       ??0SetChoiceWidgetAction@@QAE@PAVStepActionManger@@@Z 00489020 f   SetChoiceWidgetAction.obj
 0001:00088330       ??1SetChoiceWidgetAction@@UAE@XZ 00489330 f   SetChoiceWidgetAction.obj
 0001:00088970       ?unDo@SetChoiceWidgetAction@@UAEXXZ 00489970 f   SetChoiceWidgetAction.obj
 0001:00088a00       ?reDo@SetChoiceWidgetAction@@UAEXXZ 00489a00 f   SetChoiceWidgetAction.obj
 0001:00088a90       ?initAction@SetChoiceWidgetAction@@QAEXPAVChoiceWidgetTemplete@@V?$QMap@VQString@@V1@@@1V?$QList@H@@2@Z 00489a90 f   SetChoiceWidgetAction.obj
 0001:00088b50       ?initBeforObjList@SetChoiceWidgetAction@@QAEXPAV?$QList@PAVViewObj@@@@0PAV?$QList@PAVTextWidget@@@@@Z 00489b50 f   SetChoiceWidgetAction.obj
 0001:00088b90       ?initAfterObjList@SetChoiceWidgetAction@@QAEXPAV?$QList@PAVViewObj@@@@0PAV?$QList@PAVTextWidget@@@@@Z 00489b90 f   SetChoiceWidgetAction.obj
 0001:00088bd0       ?initHaveAndNotHaveObjList@SetChoiceWidgetAction@@QAEXPAV?$QList@PAVViewObj@@@@000@Z 00489bd0 f   SetChoiceWidgetAction.obj
 0001:00089120       ??0?$QList@PAVTextWidget@@@@QAE@XZ 0048a120 f i SetChoiceWidgetAction.obj
 0001:00089140       ??1?$QList@PAVTextWidget@@@@QAE@XZ 0048a140 f i SetChoiceWidgetAction.obj
 0001:00089180       ??4?$QList@PAVTextWidget@@@@QAEAAV0@$$QAV0@@Z 0048a180 f i SetChoiceWidgetAction.obj
 0001:000891b0       ??_G?$QList@PAVTextWidget@@@@QAEPAXI@Z 0048a1b0 f i SetChoiceWidgetAction.obj
 0001:000891f0       ??_ESetChoiceWidgetAction@@UAEPAXI@Z 0048a1f0 f i SetChoiceWidgetAction.obj
 0001:000891f0       ??_GSetChoiceWidgetAction@@UAEPAXI@Z 0048a1f0 f i SetChoiceWidgetAction.obj
 0001:00089230       ?at@?$QList@PAVTextWidget@@@@QBEABQAVTextWidget@@H@Z 0048a230 f i SetChoiceWidgetAction.obj
 0001:000892c0       ?clear@?$QList@PAVTextWidget@@@@QAEXXZ 0048a2c0 f i SetChoiceWidgetAction.obj
 0001:00089350       ?dealloc@?$QList@PAVTextWidget@@@@AAEXPAUData@QListData@@@Z 0048a350 f i SetChoiceWidgetAction.obj
 0001:000893a0       ?node_destruct@?$QList@PAVTextWidget@@@@AAEXPAUNode@1@0@Z 0048a3a0 f i SetChoiceWidgetAction.obj
 0001:00089410       ?size@?$QList@PAVTextWidget@@@@QBEHXZ 0048a410 f i SetChoiceWidgetAction.obj
 0001:00089430       ?t@Node@?$QList@PAVTextWidget@@@@QAEAAPAVTextWidget@@XZ 0048a430 f i SetChoiceWidgetAction.obj
 0001:00089460       ??0SetExcelCellPropertyAction@@QAE@PAVStepActionManger@@@Z 0048a460 f   SetExcelCellPropertyAction.obj
 0001:000894f0       ??1SetExcelCellPropertyAction@@UAE@XZ 0048a4f0 f   SetExcelCellPropertyAction.obj
 0001:00089560       ?initAction@SetExcelCellPropertyAction@@QAEXPAVExcelLayout@@PAVExcelCellData@@V?$QMap@VQString@@V1@@@2HH@Z 0048a560 f   SetExcelCellPropertyAction.obj
 0001:00089600       ?unDo@SetExcelCellPropertyAction@@UAEXXZ 0048a600 f   SetExcelCellPropertyAction.obj
 0001:00089640       ?reDo@SetExcelCellPropertyAction@@UAEXXZ 0048a640 f   SetExcelCellPropertyAction.obj
 0001:00089700       ??_ESetExcelCellPropertyAction@@UAEPAXI@Z 0048a700 f i SetExcelCellPropertyAction.obj
 0001:00089700       ??_GSetExcelCellPropertyAction@@UAEPAXI@Z 0048a700 f i SetExcelCellPropertyAction.obj
 0001:00089740       ??0SetExcelPropertyAction@@QAE@PAVStepActionManger@@@Z 0048a740 f   SetExcelPropertyAction.obj
 0001:000897f0       ??1SetExcelPropertyAction@@UAE@XZ 0048a7f0 f   SetExcelPropertyAction.obj
 0001:00089880       ?initAction@SetExcelPropertyAction@@QAEXPAVExcelLayout@@PAVExcelCellData@@V?$QMap@VQString@@V1@@@2_NHHVQString@@3HH4@Z 0048a880 f   SetExcelPropertyAction.obj
 0001:00089980       ?unDo@SetExcelPropertyAction@@UAEXXZ 0048a980 f   SetExcelPropertyAction.obj
 0001:00089a40       ?reDo@SetExcelPropertyAction@@UAEXXZ 0048aa40 f   SetExcelPropertyAction.obj
 0001:00089bf0       ??_ESetExcelPropertyAction@@UAEPAXI@Z 0048abf0 f i SetExcelPropertyAction.obj
 0001:00089bf0       ??_GSetExcelPropertyAction@@UAEPAXI@Z 0048abf0 f i SetExcelPropertyAction.obj
 0001:00089c30       ??0SetFocusAction@@QAE@PAVStepActionManger@@@Z 0048ac30 f   SetFocusAction.obj
 0001:00089c60       ??1SetFocusAction@@UAE@XZ  0048ac60 f   SetFocusAction.obj
 0001:00089cb0       ?initAction@SetFocusAction@@QAEXPAVViewObj@@D0D@Z 0048acb0 f   SetFocusAction.obj
 0001:00089cf0       ?unDo@SetFocusAction@@UAEXXZ 0048acf0 f   SetFocusAction.obj
 0001:00089d20       ?reDo@SetFocusAction@@UAEXXZ 0048ad20 f   SetFocusAction.obj
 0001:00089da0       ??_GSetFocusAction@@UAEPAXI@Z 0048ada0 f i SetFocusAction.obj
 0001:00089da0       ??_ESetFocusAction@@UAEPAXI@Z 0048ada0 f i SetFocusAction.obj
 0001:00089de0       ??0SetMacroWidgetAction@@QAE@PAVStepActionManger@@@Z 0048ade0 f   SetMacroWidgetAction.obj
 0001:0008a0c0       ??1SetMacroWidgetAction@@UAE@XZ 0048b0c0 f   SetMacroWidgetAction.obj
 0001:0008a470       ?unDo@SetMacroWidgetAction@@UAEXXZ 0048b470 f   SetMacroWidgetAction.obj
 0001:0008a4e0       ?reDo@SetMacroWidgetAction@@UAEXXZ 0048b4e0 f   SetMacroWidgetAction.obj
 0001:0008a550       ?initAction@SetMacroWidgetAction@@QAEXPAVMacroTemplete@@V?$QMap@VQString@@V1@@@1@Z 0048b550 f   SetMacroWidgetAction.obj
 0001:0008a5e0       ?initBeforObjList@SetMacroWidgetAction@@QAEXPAV?$QList@PAVViewObj@@@@000@Z 0048b5e0 f   SetMacroWidgetAction.obj
 0001:0008a650       ?initAfterObjList@SetMacroWidgetAction@@QAEXPAV?$QList@PAVViewObj@@@@000@Z 0048b650 f   SetMacroWidgetAction.obj
 0001:0008a6c0       ?copyObjListToObjList@SetMacroWidgetAction@@SAXPAV?$QList@PAVViewObj@@@@0_N@Z 0048b6c0 f   SetMacroWidgetAction.obj
 0001:0008aa70       ??_ESetMacroWidgetAction@@UAEPAXI@Z 0048ba70 f i SetMacroWidgetAction.obj
 0001:0008aa70       ??_GSetMacroWidgetAction@@UAEPAXI@Z 0048ba70 f i SetMacroWidgetAction.obj
 0001:0008aab0       ?append@?$QList@PAVViewObj@@@@QAEXABQAVViewObj@@@Z 0048bab0 f i SetMacroWidgetAction.obj
 0001:0008ac80       ?detach_helper_grow@?$QList@PAVViewObj@@@@AAEPAUNode@1@HH@Z 0048bc80 f i SetMacroWidgetAction.obj
 0001:0008ae80       ?node_construct@?$QList@PAVViewObj@@@@AAEXPAUNode@1@ABQAVViewObj@@@Z 0048be80 f i SetMacroWidgetAction.obj
 0001:0008af40       ?node_copy@?$QList@PAVViewObj@@@@AAEXPAUNode@1@00@Z 0048bf40 f i SetMacroWidgetAction.obj
 0001:0008b190       ?node_destruct@?$QList@PAVViewObj@@@@AAEXPAUNode@1@@Z 0048c190 f i SetMacroWidgetAction.obj
 0001:0008b1c0       ?push_back@?$QList@PAVViewObj@@@@QAEXABQAVViewObj@@@Z 0048c1c0 f i SetMacroWidgetAction.obj
 0001:0008b1e0       ??0SetMenstruationWidgetAction@@QAE@PAVStepActionManger@@@Z 0048c1e0 f   SetMenstruationWidgetAction.obj
 0001:0008b380       ??1SetMenstruationWidgetAction@@UAE@XZ 0048c380 f   SetMenstruationWidgetAction.obj
 0001:0008b630       ?unDo@SetMenstruationWidgetAction@@UAEXXZ 0048c630 f   SetMenstruationWidgetAction.obj
 0001:0008b690       ?reDo@SetMenstruationWidgetAction@@UAEXXZ 0048c690 f   SetMenstruationWidgetAction.obj
 0001:0008b6f0       ?initBeforObjList@SetMenstruationWidgetAction@@QAEXPAVMenstruationTemplete@@PAV?$QList@PAVViewObj@@@@1@Z 0048c6f0 f   SetMenstruationWidgetAction.obj
 0001:0008b730       ?initAfterObjList@SetMenstruationWidgetAction@@QAEXPAV?$QList@PAVViewObj@@@@0@Z 0048c730 f   SetMenstruationWidgetAction.obj
 0001:0008b9c0       ??_GSetMenstruationWidgetAction@@UAEPAXI@Z 0048c9c0 f i SetMenstruationWidgetAction.obj
 0001:0008b9c0       ??_ESetMenstruationWidgetAction@@UAEPAXI@Z 0048c9c0 f i SetMenstruationWidgetAction.obj
 0001:0008ba00       ??0SetPagePropertyAction@@QAE@PAVStepActionManger@@@Z 0048ca00 f   SetPagePropertyAction.obj
 0001:0008ba30       ??1SetPagePropertyAction@@UAE@XZ 0048ca30 f   SetPagePropertyAction.obj
 0001:0008ba50       ?doAction@SetPagePropertyAction@@QAEX_NFHHHHHH@Z 0048ca50 f   SetPagePropertyAction.obj
 0001:0008bb30       ?unDo@SetPagePropertyAction@@UAEXXZ 0048cb30 f   SetPagePropertyAction.obj
 0001:0008bb90       ?reDo@SetPagePropertyAction@@UAEXXZ 0048cb90 f   SetPagePropertyAction.obj
 0001:0008bc60       ??_GSetPagePropertyAction@@UAEPAXI@Z 0048cc60 f i SetPagePropertyAction.obj
 0001:0008bc60       ??_ESetPagePropertyAction@@UAEPAXI@Z 0048cc60 f i SetPagePropertyAction.obj
 0001:0008bca0       ??0SetParagraphFloatParamAction@@QAE@PAVStepActionManger@@@Z 0048cca0 f   SetParagraphFloatParamAction.obj
 0001:0008bd80       ??1SetParagraphFloatParamAction@@UAE@XZ 0048cd80 f   SetParagraphFloatParamAction.obj
 0001:0008bdb0       ?doAction@SetParagraphFloatParamAction@@QAEXPAV?$QList@PAVBaseContainer@@@@DMPAVViewObj@@D1D_N@Z 0048cdb0 f   SetParagraphFloatParamAction.obj
 0001:0008c120       ?unDo@SetParagraphFloatParamAction@@UAEXXZ 0048d120 f   SetParagraphFloatParamAction.obj
 0001:0008c430       ?reDo@SetParagraphFloatParamAction@@UAEXXZ 0048d430 f   SetParagraphFloatParamAction.obj
 0001:0008c720       ?getValue@SetParagraphFloatParamAction@@AAEMPAVParagraphData@@D@Z 0048d720 f   SetParagraphFloatParamAction.obj
 0001:0008ca10       ??0?$QList@M@@QAE@XZ       0048da10 f i SetParagraphFloatParamAction.obj
 0001:0008ca30       ??_ESetParagraphFloatParamAction@@UAEPAXI@Z 0048da30 f i SetParagraphFloatParamAction.obj
 0001:0008ca30       ??_GSetParagraphFloatParamAction@@UAEPAXI@Z 0048da30 f i SetParagraphFloatParamAction.obj
 0001:0008ca70       ?append@?$QList@M@@QAEXABM@Z 0048da70 f i SetParagraphFloatParamAction.obj
 0001:0008cc40       ?at@?$QList@M@@QBEABMH@Z   0048dc40 f i SetParagraphFloatParamAction.obj
 0001:0008ccd0       ?dealloc@?$QList@M@@AAEXPAUData@QListData@@@Z 0048dcd0 f i SetParagraphFloatParamAction.obj
 0001:0008cd20       ?detach_helper_grow@?$QList@M@@AAEPAUNode@1@HH@Z 0048dd20 f i SetParagraphFloatParamAction.obj
 0001:0008cf20       ?node_construct@?$QList@M@@AAEXPAUNode@1@ABM@Z 0048df20 f i SetParagraphFloatParamAction.obj
 0001:0008cfe0       ?node_copy@?$QList@M@@AAEXPAUNode@1@00@Z 0048dfe0 f i SetParagraphFloatParamAction.obj
 0001:0008d230       ?node_destruct@?$QList@M@@AAEXPAUNode@1@0@Z 0048e230 f i SetParagraphFloatParamAction.obj
 0001:0008d2a0       ?node_destruct@?$QList@M@@AAEXPAUNode@1@@Z 0048e2a0 f i SetParagraphFloatParamAction.obj
 0001:0008d2d0       ?push_back@?$QList@M@@QAEXABM@Z 0048e2d0 f i SetParagraphFloatParamAction.obj
 0001:0008d2f0       ?t@Node@?$QList@M@@QAEAAMXZ 0048e2f0 f i SetParagraphFloatParamAction.obj
 0001:0008d320       ??0SetParagraphIndentParamAction@@QAE@PAVStepActionManger@@@Z 0048e320 f   SetParagraphIndentParamAction.obj
 0001:0008d440       ??1SetParagraphIndentParamAction@@UAE@XZ 0048e440 f   SetParagraphIndentParamAction.obj
 0001:0008d470       ?doAction@SetParagraphIndentParamAction@@QAEXPAV?$QList@PAVBaseContainer@@@@HHDHPAVViewObj@@D1D_N@Z 0048e470 f   SetParagraphIndentParamAction.obj
 0001:0008d780       ?unDo@SetParagraphIndentParamAction@@UAEXXZ 0048e780 f   SetParagraphIndentParamAction.obj
 0001:0008dc70       ?reDo@SetParagraphIndentParamAction@@UAEXXZ 0048ec70 f   SetParagraphIndentParamAction.obj
 0001:0008e4a0       ??_ESetParagraphIndentParamAction@@UAEPAXI@Z 0048f4a0 f i SetParagraphIndentParamAction.obj
 0001:0008e4a0       ??_GSetParagraphIndentParamAction@@UAEPAXI@Z 0048f4a0 f i SetParagraphIndentParamAction.obj
 0001:0008e4e0       ?at@?$QList@PAVParagraphData@@@@QBEABQAVParagraphData@@H@Z 0048f4e0 f i SetParagraphIndentParamAction.obj
 0001:0008e570       ?t@Node@?$QList@PAVParagraphData@@@@QAEAAPAVParagraphData@@XZ 0048f570 f i SetParagraphIndentParamAction.obj
 0001:0008e5a0       ??0SetParagraphIntParamAction@@QAE@PAVStepActionManger@@@Z 0048f5a0 f   SetParagraphIntParamAction.obj
 0001:0008e680       ??1SetParagraphIntParamAction@@UAE@XZ 0048f680 f   SetParagraphIntParamAction.obj
 0001:0008e6b0       ?doAction@SetParagraphIntParamAction@@QAEXPAV?$QList@PAVBaseContainer@@@@DHPAVViewObj@@D1D_N@Z 0048f6b0 f   SetParagraphIntParamAction.obj
 0001:0008e9d0       ?unDo@SetParagraphIntParamAction@@UAEXXZ 0048f9d0 f   SetParagraphIntParamAction.obj
 0001:0008ecf0       ?reDo@SetParagraphIntParamAction@@UAEXXZ 0048fcf0 f   SetParagraphIntParamAction.obj
 0001:0008efe0       ?getValue@SetParagraphIntParamAction@@AAEHPAVParagraphData@@D@Z 0048ffe0 f   SetParagraphIntParamAction.obj
 0001:0008f2c0       ??_ESetParagraphIntParamAction@@UAEPAXI@Z 004902c0 f i SetParagraphIntParamAction.obj
 0001:0008f2c0       ??_GSetParagraphIntParamAction@@UAEPAXI@Z 004902c0 f i SetParagraphIntParamAction.obj
 0001:0008f300       ??0SetParagraphOtherParamAction@@QAE@PAVStepActionManger@@@Z 00490300 f   SetParagraphOtherParamAction.obj
 0001:0008f330       ??1SetParagraphOtherParamAction@@UAE@XZ 00490330 f   SetParagraphOtherParamAction.obj
 0001:0008f350       ?unDo@SetParagraphOtherParamAction@@UAEXXZ 00490350 f   SetParagraphOtherParamAction.obj
 0001:0008f390       ?reDo@SetParagraphOtherParamAction@@UAEXXZ 00490390 f   SetParagraphOtherParamAction.obj
 0001:0008f3d0       ?setParagraphNumberView@SetParagraphOtherParamAction@@QAEX_N0@Z 004903d0 f   SetParagraphOtherParamAction.obj
 0001:0008f3e0       ?setPageTitleView@SetParagraphOtherParamAction@@QAEX_N0@Z 004903e0 f   SetParagraphOtherParamAction.obj
 0001:0008f3f0       ?setPageBottomView@SetParagraphOtherParamAction@@QAEX_N0@Z 004903f0 f   SetParagraphOtherParamAction.obj
 0001:0008f400       ?showTidy@SetParagraphOtherParamAction@@QAEX_N0@Z 00490400 f   SetParagraphOtherParamAction.obj
 0001:0008f430       ?setPageTitleNumView@SetParagraphOtherParamAction@@QAEX_N0@Z 00490430 f   SetParagraphOtherParamAction.obj
 0001:0008f440       ?setPageBottomNumView@SetParagraphOtherParamAction@@QAEX_N0@Z 00490440 f   SetParagraphOtherParamAction.obj
 0001:0008f4a0       ??_GSetParagraphOtherParamAction@@UAEPAXI@Z 004904a0 f i SetParagraphOtherParamAction.obj
 0001:0008f4a0       ??_ESetParagraphOtherParamAction@@UAEPAXI@Z 004904a0 f i SetParagraphOtherParamAction.obj
 0001:0008f4e0       ??0SetSysIntParamAction@@QAE@PAVStepActionManger@@@Z 004904e0 f   SetSysIntParamAction.obj
 0001:0008f510       ??1SetSysIntParamAction@@UAE@XZ 00490510 f   SetSysIntParamAction.obj
 0001:0008f530       ?doAction@SetSysIntParamAction@@QAEXDH@Z 00490530 f   SetSysIntParamAction.obj
 0001:0008f560       ?unDo@SetSysIntParamAction@@UAEXXZ 00490560 f   SetSysIntParamAction.obj
 0001:0008f590       ?reDo@SetSysIntParamAction@@UAEXXZ 00490590 f   SetSysIntParamAction.obj
 0001:0008f5c0       ?getPreValue@SetSysIntParamAction@@AAEHXZ 004905c0 f   SetSysIntParamAction.obj
 0001:0008f630       ?setParamByType@SetSysIntParamAction@@AAEXDH@Z 00490630 f   SetSysIntParamAction.obj
 0001:0008f710       ??_GSetSysIntParamAction@@UAEPAXI@Z 00490710 f i SetSysIntParamAction.obj
 0001:0008f710       ??_ESetSysIntParamAction@@UAEPAXI@Z 00490710 f i SetSysIntParamAction.obj
 0001:0008f750       ??0SetTxtWidgetElementAction@@QAE@PAVStepActionManger@@@Z 00490750 f   SetTxtWidgetElementAction.obj
 0001:0008f910       ??1SetTxtWidgetElementAction@@UAE@XZ 00490910 f   SetTxtWidgetElementAction.obj
 0001:0008fbe0       ?unDo@SetTxtWidgetElementAction@@UAEXXZ 00490be0 f   SetTxtWidgetElementAction.obj
 0001:0008fc50       ?reDo@SetTxtWidgetElementAction@@UAEXXZ 00490c50 f   SetTxtWidgetElementAction.obj
 0001:0008fcc0       ?initAction@SetTxtWidgetElementAction@@QAEXPAVTextWidget@@V?$QMap@VQString@@V1@@@1@Z 00490cc0 f   SetTxtWidgetElementAction.obj
 0001:0008fd50       ?initBeforObjList@SetTxtWidgetElementAction@@QAEXPAV?$QList@PAVViewObj@@@@0@Z 00490d50 f   SetTxtWidgetElementAction.obj
 0001:0008fd90       ?initAfterObjList@SetTxtWidgetElementAction@@QAEXPAV?$QList@PAVViewObj@@@@0@Z 00490d90 f   SetTxtWidgetElementAction.obj
 0001:0008fdd0       ?copyObjListToObjList@SetTxtWidgetElementAction@@SAXPAV?$QList@PAVViewObj@@@@0_N@Z 00490dd0 f   SetTxtWidgetElementAction.obj
 0001:0008fe40       ?isSameObjInList@SetTxtWidgetElementAction@@SA_NPAV?$QList@PAVViewObj@@@@0@Z 00490e40 f   SetTxtWidgetElementAction.obj
 0001:0008fed0       ?isSameObjInTwoList@SetTxtWidgetElementAction@@SA_NPAV?$QList@PAVBaseContainer@@@@PAV?$QList@PAVViewObj@@@@@Z 00490ed0 f   SetTxtWidgetElementAction.obj
 0001:00090250       ??_GSetTxtWidgetElementAction@@UAEPAXI@Z 00491250 f i SetTxtWidgetElementAction.obj
 0001:00090250       ??_ESetTxtWidgetElementAction@@UAEPAXI@Z 00491250 f i SetTxtWidgetElementAction.obj
 0001:00090290       ??0SetWidgetElementPropertyAction@@QAE@PAVStepActionManger@@H@Z 00491290 f   SetWidgetElementPropertyAction.obj
 0001:000902d0       ??1SetWidgetElementPropertyAction@@UAE@XZ 004912d0 f   SetWidgetElementPropertyAction.obj
 0001:00090320       ?initFocus@SetWidgetElementPropertyAction@@QAEXPAVViewObj@@0DD@Z 00491320 f   SetWidgetElementPropertyAction.obj
 0001:00090390       ??_ESetWidgetElementPropertyAction@@UAEPAXI@Z 00491390 f i SetWidgetElementPropertyAction.obj
 0001:00090390       ??_GSetWidgetElementPropertyAction@@UAEPAXI@Z 00491390 f i SetWidgetElementPropertyAction.obj
 0001:000903d0       ??0BaseContainer@@QAE@PAVWriterManager@@H@Z 004913d0 f   BaseContainer.obj
 0001:000904c0       ??0BaseContainer@@QAE@PAVWriterManager@@HH@Z 004914c0 f   BaseContainer.obj
 0001:000905b0       ??0BaseContainer@@QAE@PAVWriterManager@@PAV0@@Z 004915b0 f   BaseContainer.obj
 0001:000906b0       ??1BaseContainer@@UAE@XZ   004916b0 f   BaseContainer.obj
 0001:00090800       ?initContentData@BaseContainer@@QAEXPAVBaseContentData@@@Z 00491800 f   BaseContainer.obj
 0001:00090820       ?setBlockType@BaseContainer@@QAEXH@Z 00491820 f   BaseContainer.obj
 0001:00090840       ?isBlock@BaseContainer@@QAE_ND@Z 00491840 f   BaseContainer.obj
 0001:00090860       ?initChildrenMgr@BaseContainer@@QAEXPAVBaseChildrenManager@@@Z 00491860 f   BaseContainer.obj
 0001:00090880       ?initLogicMgr@BaseContainer@@QAEXPAVLogicManager@@@Z 00491880 f   BaseContainer.obj
 0001:000908a0       ?haveDeleteFromParent@BaseContainer@@UAEXPAV1@@Z 004918a0 f   BaseContainer.obj
 0001:000908b0       ?haveAddToParent@BaseContainer@@UAEXPAV1@@Z 004918b0 f   BaseContainer.obj
 0001:000908c0       ?setParent@BaseContainer@@QAEXPAV1@@Z 004918c0 f   BaseContainer.obj
 0001:00090a30       ?clearParent@BaseContainer@@QAEXH@Z 00491a30 f   BaseContainer.obj
 0001:00090b00       ?setTempleteParent@BaseContainer@@QAEXPAV1@@Z 00491b00 f   BaseContainer.obj
 0001:00090b60       ?isObj@BaseContainer@@QAE_NH@Z 00491b60 f   BaseContainer.obj
 0001:00090b90       ?isView@BaseContainer@@QAE_NXZ 00491b90 f   BaseContainer.obj
 0001:00090bd0       ?isTemp@BaseContainer@@QAE_NXZ 00491bd0 f   BaseContainer.obj
 0001:00090bf0       ?isParagraph@BaseContainer@@QAE_NXZ 00491bf0 f   BaseContainer.obj
 0001:00090c10       ?isTxt@BaseContainer@@QAE_NXZ 00491c10 f   BaseContainer.obj
 0001:00090c60       ?isCommonTxt@BaseContainer@@QAE_NXZ 00491c60 f   BaseContainer.obj
 0001:00090c90       ?isEnterImgOrHLine@BaseContainer@@QAE_NXZ 00491c90 f   BaseContainer.obj
 0001:00090ce0       ?isPageNumber@BaseContainer@@QAE_NXZ 00491ce0 f   BaseContainer.obj
 0001:00090d20       ?isRow@BaseContainer@@QAE_NXZ 00491d20 f   BaseContainer.obj
 0001:00090d50       ?isExcelRow@BaseContainer@@QAE_NXZ 00491d50 f   BaseContainer.obj
 0001:00090df0       ?isHorizonOrEndPageRow@BaseContainer@@QAEDXZ 00491df0 f   BaseContainer.obj
 0001:00090e60       ?isEnter@BaseContainer@@QAE_NXZ 00491e60 f   BaseContainer.obj
 0001:00090e90       ?isNode@BaseContainer@@QAE_NXZ 00491e90 f   BaseContainer.obj
 0001:00090ec0       ?isHorizontalOrEndPageLine@BaseContainer@@QAEDXZ 00491ec0 f   BaseContainer.obj
 0001:00090f00       ?isTitleOrBottomView@BaseContainer@@QAE_NXZ 00491f00 f   BaseContainer.obj
 0001:00090f40       ?isTxtWindow@BaseContainer@@QAE_NXZ 00491f40 f   BaseContainer.obj
 0001:00090f70       ?isTemplateElement@BaseContainer@@QAE_NXZ 00491f70 f   BaseContainer.obj
 0001:00090fa0       ?isTempContainer@BaseContainer@@QAE_NXZ 00491fa0 f   BaseContainer.obj
 0001:00090fd0       ?isTempContainerExceptDest@BaseContainer@@QAE_NH@Z 00491fd0 f   BaseContainer.obj
 0001:00091010       ?getTempParent@BaseContainer@@QAEPAVBaseTemplate@@XZ 00492010 f   BaseContainer.obj
 0001:00091030       ?getParagraphParent@BaseContainer@@UAEPAVBaseParagraph@@XZ 00492030 f   BaseContainer.obj
 0001:00091050       ?getViewParent@BaseContainer@@UAEPAVViewObj@@XZ 00492050 f   BaseContainer.obj
 0001:00091070       ?getFirstView@BaseContainer@@QAEPAVViewObj@@XZ 00492070 f   BaseContainer.obj
 0001:000910d0       ?getLastView@BaseContainer@@QAEPAVViewObj@@XZ 004920d0 f   BaseContainer.obj
 0001:00091140       ?getLogicByClassID@BaseContainer@@QAEPAVBaseLogic@@H@Z 00492140 f   BaseContainer.obj
 0001:00091160       ?getStatus@BaseContainer@@QAEFXZ 00492160 f   BaseContainer.obj
 0001:00091180       ?changeStatus@BaseContainer@@QAEXF_N@Z 00492180 f   BaseContainer.obj
 0001:00091220       ?isTempleteParent@BaseContainer@@QAE_NPAV1@_N@Z 00492220 f   BaseContainer.obj
 0001:00091270       ?getFlagObj@BaseContainer@@QAEPAVViewObj@@XZ 00492270 f   BaseContainer.obj
 0001:000912a0       ?getFocusObjAndDir@BaseContainer@@QAEXAAPAVViewObj@@AAD@Z 004922a0 f   BaseContainer.obj
 0001:000912d0       ?savePressStartAndEnd@BaseContainer@@QAEXXZ 004922d0 f   BaseContainer.obj
 0001:00091300       ?backSetPressStartAndEnd@BaseContainer@@QAEX_N@Z 00492300 f   BaseContainer.obj
 0001:00091330       ?getFocusStrData@BaseContainer@@QAEPAVStrContentData@@XZ 00492330 f   BaseContainer.obj
 0001:00091360       ?haveMask@BaseContainer@@UAE_NXZ 00492360 f   BaseContainer.obj
 0001:00091390       ?getMaskColor@BaseContainer@@QAEHXZ 00492390 f   BaseContainer.obj
 0001:000913b0       ?setMaskColor@BaseContainer@@QAEXH@Z 004923b0 f   BaseContainer.obj
 0001:000913d0       ?clearMaskColor@BaseContainer@@QAEXXZ 004923d0 f   BaseContainer.obj
 0001:000913f0       ?getCodeId@BaseContainer@@QAE?AVQString@@XZ 004923f0 f   BaseContainer.obj
 0001:00091430       ?setCodeId@BaseContainer@@QAEXVQString@@@Z 00492430 f   BaseContainer.obj
 0001:000914b0       ?getTempIndex@BaseContainer@@QAEHXZ 004924b0 f   BaseContainer.obj
 0001:000914d0       ?setTempIndex@BaseContainer@@QAEXH@Z 004924d0 f   BaseContainer.obj
 0001:000914f0       ?refreshChildrenIndex@BaseContainer@@QAEXH@Z 004924f0 f   BaseContainer.obj
 0001:00091570       ?getWriterMgr@BaseContainer@@QAEPAVWriterManager@@XZ 00492570 f   BaseContainer.obj
 0001:00091590       ?getOperateMgr@BaseContainer@@QAEPAVOperateMgr@@XZ 00492590 f   BaseContainer.obj
 0001:000915b0       ?checkIsNeedUndo@BaseContainer@@QAEXXZ 004925b0 f   BaseContainer.obj
 0001:000915d0       ?getChildrenMgr@BaseContainer@@QAEPAVBaseChildrenManager@@XZ 004925d0 f   BaseContainer.obj
 0001:000915f0       ?setChildWriteManger@BaseContainer@@QAEXPAVWriterManager@@@Z 004925f0 f   BaseContainer.obj
 0001:00091620       ?getNodeMgr@BaseContainer@@QAEPAVNodeMgr@@XZ 00492620 f   BaseContainer.obj
 0001:00091640       ?getNodeChildrenMgr@BaseContainer@@QAEPAVNodeChildrenMgr@@XZ 00492640 f   BaseContainer.obj
 0001:00091660       ?getChildren@BaseContainer@@QAEPAV?$QList@PAVBaseContainer@@@@XZ 00492660 f   BaseContainer.obj
 0001:00091690       ?getContentData@BaseContainer@@QAEPAVBaseContentData@@XZ 00492690 f   BaseContainer.obj
 0001:000916b0       ?getStrContentData@BaseContainer@@QAEPAVStrContentData@@XZ 004926b0 f   BaseContainer.obj
 0001:000916d0       ?getParagraphData@BaseContainer@@QAEPAVParagraphData@@XZ 004926d0 f   BaseContainer.obj
 0001:000916f0       ?getChild@BaseContainer@@QAEPAV1@H@Z 004926f0 f   BaseContainer.obj
 0001:00091720       ?getLastChild@BaseContainer@@QAEPAV1@_N@Z 00492720 f   BaseContainer.obj
 0001:00091770       ?haveChildren@BaseContainer@@QAEDXZ 00492770 f   BaseContainer.obj
 0001:000917a0       ?haveChild@BaseContainer@@QAE_NPAV1@@Z 004927a0 f   BaseContainer.obj
 0001:00091800       ?getObjID@BaseContainer@@QAEHXZ 00492800 f   BaseContainer.obj
 0001:00091820       ?findChildrenByID@BaseContainer@@QAEPAV1@H_N@Z 00492820 f   BaseContainer.obj
 0001:000918f0       ?findLastContainer@BaseContainer@@QAEPAV1@XZ 004928f0 f   BaseContainer.obj
 0001:00091920       ?findNormalTempContainerFromParent@BaseContainer@@QAEXAAPAV1@AAH@Z 00492920 f   BaseContainer.obj
 0001:000919d0       ?findContainerFromChildren@BaseContainer@@QAEPAV1@HH@Z 004929d0 f   BaseContainer.obj
 0001:00091a60       ?findContainerFromBrothers@BaseContainer@@QAEPAV1@HH@Z 00492a60 f   BaseContainer.obj
 0001:00091a70       ?findViewFromParent@BaseContainer@@QAEPAVViewObj@@H_N@Z 00492a70 f   BaseContainer.obj
 0001:00091ad0       ?findTempFromParent@BaseContainer@@QAEPAV1@H_N@Z 00492ad0 f   BaseContainer.obj
 0001:00091b50       ?findTempFromParent@BaseContainer@@QAEPAV1@H_NAAH@Z 00492b50 f   BaseContainer.obj
 0001:00091c00       ?findParentRow@BaseContainer@@QAEPAVViewObj@@_N@Z 00492c00 f   BaseContainer.obj
 0001:00091c60       ?findLastElementFromChildren@BaseContainer@@QAEPAV1@_N@Z 00492c60 f   BaseContainer.obj
 0001:00091ce0       ?findFirstElementFromChildren@BaseContainer@@QAEPAV1@_N@Z 00492ce0 f   BaseContainer.obj
 0001:00091d50       ?myUpdate@BaseContainer@@QAEHXZ 00492d50 f   BaseContainer.obj
 0001:00091e50       ?getParentViewById@BaseContainer@@QAEPAVViewObj@@H@Z 00492e50 f   BaseContainer.obj
 0001:00091e90       ?getFirstChildView@BaseContainer@@QAEPAVViewObj@@_N@Z 00492e90 f   BaseContainer.obj
 0001:00091f10       ?getLastChildView@BaseContainer@@QAEPAVViewObj@@_N@Z 00492f10 f   BaseContainer.obj
 0001:00091fc0       ?getNextView@BaseContainer@@QAEPAVViewObj@@H@Z 00492fc0 f   BaseContainer.obj
 0001:000920c0       ?getPreView@BaseContainer@@QAEPAVViewObj@@H@Z 004930c0 f   BaseContainer.obj
 0001:00092230       ?canEditTempleteProperty@BaseContainer@@QAE_NXZ 00493230 f   BaseContainer.obj
 0001:00092260       ?canEditTemplete@BaseContainer@@QAE_NXZ 00493260 f   BaseContainer.obj
 0001:000922a0       ?templateParentCanWrite@BaseContainer@@QAE_NXZ 004932a0 f   BaseContainer.obj
 0001:000922d0       ?refreshViewTxtParamOnly@BaseContainer@@QAEXPAVStrContentData@@PAVViewObj@@@Z 004932d0 f   BaseContainer.obj
 0001:00092310       ?getChooseObj@BaseContainer@@QAEPAV1@XZ 00493310 f   BaseContainer.obj
 0001:00092350       ?getChooseObjId@BaseContainer@@QAEHXZ 00493350 f   BaseContainer.obj
 0001:00092370       ?setChooseObjId@BaseContainer@@QAEXH@Z 00493370 f   BaseContainer.obj
 0001:00092390       ?showTidy@BaseContainer@@UAEXXZ 00493390 f   BaseContainer.obj
 0001:00092420       ?getIsShowTidy@BaseContainer@@QAE_NXZ 00493420 f   BaseContainer.obj
 0001:00092440       ?delChild@BaseContainer@@QAEHPAV1@_N@Z 00493440 f   BaseContainer.obj
 0001:00092480       ?setWriteManager@BaseContainer@@UAEXPAVWriterManager@@_N@Z 00493480 f   BaseContainer.obj
 0001:000924b0       ?addExcelTempelateToOperate@BaseContainer@@QAEXPAVExcelTemplete@@@Z 004934b0 f   BaseContainer.obj
 0001:000924d0       ?isShow@BaseContainer@@SA_NPAV1@@Z 004934d0 f   BaseContainer.obj
 0001:00092590       ?isShowOnNormalRow@BaseContainer@@SA_NPAVViewObj@@@Z 00493590 f   BaseContainer.obj
 0001:00092e70       ??_EBaseContainer@@UAEPAXI@Z 00493e70 f i BaseContainer.obj
 0001:00092e70       ??_GBaseContainer@@UAEPAXI@Z 00493e70 f i BaseContainer.obj
 0001:00092eb0       ?getSelfFocusData@BaseContainer@@UAEPAVStrContentData@@XZ 00493eb0 f i BaseContainer.obj
 0001:00092ec0       ?removeOne@?$QList@PAVBaseContainer@@@@QAE_NABQAVBaseContainer@@@Z 00493ec0 f i BaseContainer.obj
 0001:00092f10       ?setDrawTxtParam@BaseContainer@@UAE_NPAVStrContentData@@@Z 00493f10 f i BaseContainer.obj
 0001:00092f30       ??0CodeParams@@QAE@H@Z     00493f30 f   CodeParams.obj
 0001:00092fd0       ??0CodeParams@@QAE@VQString@@0H@Z 00493fd0 f   CodeParams.obj
 0001:00093090       ??1CodeParams@@UAE@XZ      00494090 f   CodeParams.obj
 0001:00093100       ?saveID@CodeParams@@QAEXPAVBaseIOTools@@@Z 00494100 f   CodeParams.obj
 0001:00093120       ?saveSelfData@CodeParams@@UAEXPAVBaseIOTools@@@Z 00494120 f   CodeParams.obj
 0001:00093170       ?loadSelfData@CodeParams@@UAEXPAVBaseIOTools@@@Z 00494170 f   CodeParams.obj
 0001:00093230       ?getID@CodeParams@@QAE?AVQString@@XZ 00494230 f   CodeParams.obj
 0001:00093270       ?getName@CodeParams@@QAE?AVQString@@XZ 00494270 f   CodeParams.obj
 0001:000932b0       ?judgeAuthority@CodeParams@@UAEHXZ 004942b0 f   CodeParams.obj
 0001:000933b0       ??_GCodeParams@@UAEPAXI@Z  004943b0 f i CodeParams.obj
 0001:000933b0       ??_ECodeParams@@UAEPAXI@Z  004943b0 f i CodeParams.obj
 0001:000933f0       ??0NodeParams@@QAE@H@Z     004943f0 f   NodeParams.obj
 0001:00093420       ??0NodeParams@@QAE@VQString@@0HH@Z 00494420 f   NodeParams.obj
 0001:000934e0       ??1NodeParams@@UAE@XZ      004944e0 f   NodeParams.obj
 0001:00093500       ?saveSelfData@NodeParams@@UAEXPAVBaseIOTools@@@Z 00494500 f   NodeParams.obj
 0001:00093530       ?loadSelfData@NodeParams@@UAEXPAVBaseIOTools@@@Z 00494530 f   NodeParams.obj
 0001:00093560       ?getLevel@NodeParams@@QAEHXZ 00494560 f   NodeParams.obj
 0001:000935e0       ??_ENodeParams@@UAEPAXI@Z  004945e0 f i NodeParams.obj
 0001:000935e0       ??_GNodeParams@@UAEPAXI@Z  004945e0 f i NodeParams.obj
 0001:00093620       ??0ParagraphCodeParams@@QAE@H@Z 00494620 f   ParagraphCodeParams.obj
 0001:00093660       ??0ParagraphCodeParams@@QAE@VQString@@0HHH@Z 00494660 f   ParagraphCodeParams.obj
 0001:00093720       ??1ParagraphCodeParams@@UAE@XZ 00494720 f   ParagraphCodeParams.obj
 0001:00093740       ?saveSelfData@ParagraphCodeParams@@UAEXPAVBaseIOTools@@@Z 00494740 f   ParagraphCodeParams.obj
 0001:00093780       ?loadSelfData@ParagraphCodeParams@@UAEXPAVBaseIOTools@@@Z 00494780 f   ParagraphCodeParams.obj
 0001:000937c0       ?getLevel@ParagraphCodeParams@@QAEHXZ 004947c0 f   ParagraphCodeParams.obj
 0001:000937e0       ?getAuthority@ParagraphCodeParams@@QAEHXZ 004947e0 f   ParagraphCodeParams.obj
 0001:00093800       ?judgeAuthority@ParagraphCodeParams@@UAEHXZ 00494800 f   ParagraphCodeParams.obj
 0001:00093820       ?setAuthority@ParagraphCodeParams@@QAEXH@Z 00494820 f   ParagraphCodeParams.obj
 0001:000938c0       ??_GParagraphCodeParams@@UAEPAXI@Z 004948c0 f i ParagraphCodeParams.obj
 0001:000938c0       ??_EParagraphCodeParams@@UAEPAXI@Z 004948c0 f i ParagraphCodeParams.obj
 0001:00093900       ??0FlagFlashLogic@@QAE@PAVBaseContainer@@@Z 00494900 f   FlagFlashLogic.obj
 0001:00093930       ??1FlagFlashLogic@@UAE@XZ  00494930 f   FlagFlashLogic.obj
 0001:00093950       ?refreshLogic@FlagFlashLogic@@UAEXXZ 00494950 f   FlagFlashLogic.obj
 0001:00093990       ?myUpdate@FlagFlashLogic@@UAEHXZ 00494990 f   FlagFlashLogic.obj
 0001:00093a70       ??_GFlagFlashLogic@@UAEPAXI@Z 00494a70 f i FlagFlashLogic.obj
 0001:00093a70       ??_EFlagFlashLogic@@UAEPAXI@Z 00494a70 f i FlagFlashLogic.obj
 0001:00093ab0       ??0JudgePagePanelScrollLogic@@QAE@PAVBaseContainer@@@Z 00494ab0 f   JudgePagePanelScrollLogic.obj
 0001:00093af0       ??1JudgePagePanelScrollLogic@@UAE@XZ 00494af0 f   JudgePagePanelScrollLogic.obj
 0001:00093b20       ?myUpdate@JudgePagePanelScrollLogic@@UAEHXZ 00494b20 f   JudgePagePanelScrollLogic.obj
 0001:00093d60       ??_EJudgePagePanelScrollLogic@@UAEPAXI@Z 00494d60 f i JudgePagePanelScrollLogic.obj
 0001:00093d60       ??_GJudgePagePanelScrollLogic@@UAEPAXI@Z 00494d60 f i JudgePagePanelScrollLogic.obj
 0001:00093da0       ??0BaseTemplate@@QAE@PAVWriterManager@@H@Z 00494da0 f   BaseTemplate.obj
 0001:00093e30       ??0BaseTemplate@@QAE@PAVWriterManager@@HHVQString@@@Z 00494e30 f   BaseTemplate.obj
 0001:00093ee0       ??0BaseTemplate@@QAE@PAVWriterManager@@PAV0@_N@Z 00494ee0 f   BaseTemplate.obj
 0001:00093f70       ??1BaseTemplate@@UAE@XZ    00494f70 f   BaseTemplate.obj
 0001:00094070       ?refreshChildrenTempIndex@BaseTemplate@@QAEXH@Z 00495070 f   BaseTemplate.obj
 0001:000940e0       ?canWrite@BaseTemplate@@QAE_NXZ 004950e0 f   BaseTemplate.obj
 0001:00094170       ?addAllChildToBufList@BaseTemplate@@UAEXPAV?$QList@PAVBaseContainer@@@@HH0@Z 00495170 f   BaseTemplate.obj
 0001:00094220       ?isNullVector@BaseTemplate@@QAE_NPAV?$QList@PAVBaseContainer@@@@@Z 00495220 f   BaseTemplate.obj
 0001:00094240       ?setKeyboard@BaseTemplate@@QAEXPAVBaseTempleteKeyboard@@@Z 00495240 f   BaseTemplate.obj
 0001:00094260       ?setMouse@BaseTemplate@@UAEXPAVBaseTempleteMouse@@@Z 00495260 f   BaseTemplate.obj
 0001:00094280       ?mousePress@BaseTemplate@@UAEHHHHPAVBaseContainer@@@Z 00495280 f   BaseTemplate.obj
 0001:000942e0       ?mouseRelease@BaseTemplate@@UAEHHHHPAVBaseContainer@@@Z 004952e0 f   BaseTemplate.obj
 0001:00094340       ?mouseMove@BaseTemplate@@UAEHHHHPAVBaseContainer@@@Z 00495340 f   BaseTemplate.obj
 0001:000943a0       ?mouseDrag@BaseTemplate@@UAEHHHHPAVBaseContainer@@@Z 004953a0 f   BaseTemplate.obj
 0001:00094400       ?mouseDoublePress@BaseTemplate@@UAEHHHHPAVBaseContainer@@@Z 00495400 f   BaseTemplate.obj
 0001:00094460       ?mouseScroll@BaseTemplate@@UAEHHPAVBaseContainer@@@Z 00495460 f   BaseTemplate.obj
 0001:000944b0       ?keyPress@BaseTemplate@@UAEHVQString@@PAVBaseContainer@@@Z 004954b0 f   BaseTemplate.obj
 0001:00094570       ?keyRelease@BaseTemplate@@UAEHVQString@@PAVBaseContainer@@@Z 00495570 f   BaseTemplate.obj
 0001:00094630       ?isFocousObj@BaseTemplate@@QAE_NPAVBaseElement@@@Z 00495630 f   BaseTemplate.obj
 0001:00094670       ?setViewObjColor@BaseTemplate@@QAEXPAVViewObj@@H@Z 00495670 f   BaseTemplate.obj
 0001:000946c0       ?deleteSelf@BaseTemplate@@QAEX_N@Z 004956c0 f   BaseTemplate.obj
 0001:00094750       ?refreshTxtParam@BaseTemplate@@QAEXXZ 00495750 f   BaseTemplate.obj
 0001:00094760       ?setPageRepaint@BaseTemplate@@QAEXPAVViewObj@@@Z 00495760 f   BaseTemplate.obj
 0001:00094770       ?addCodeIdToMap@BaseTemplate@@QAE_NAAV?$QMap@VQString@@V1@@@@Z 00495770 f   BaseTemplate.obj
 0001:00094830       ?setCodeIdToTemplete@BaseTemplate@@QAE_NAAV?$QMap@VQString@@V1@@@@Z 00495830 f   BaseTemplate.obj
 0001:00094950       ?addDeleteSelfAction@BaseTemplate@@QAEX_N@Z 00495950 f   BaseTemplate.obj
 0001:00094a40       ?replaceNeedReplaceList@BaseTemplate@@QAEXH@Z 00495a40 f   BaseTemplate.obj
 0001:00094a50       ?setDrawTxtParam@BaseTemplate@@UAE_NPAVStrContentData@@@Z 00495a50 f   BaseTemplate.obj
 0001:00094ad0       ?isSetFlowType@BaseTemplate@@QAE_NPAVStrContentData@@@Z 00495ad0 f   BaseTemplate.obj
 0001:00094af0       ?getMaxWidthOfChildView@BaseTemplate@@QAEHXZ 00495af0 f   BaseTemplate.obj
 0001:00094be0       ?getViewObjsAtBehind@BaseTemplate@@QAEXHPAV?$QList@PAVViewObj@@@@@Z 00495be0 f   BaseTemplate.obj
 0001:00094bf0       ?getWillShowObjList@BaseTemplate@@UAEXPAV?$QList@PAVViewObj@@@@@Z 00495bf0 f   BaseTemplate.obj
 0001:00094c00       ?addTxtLayerAndReplaceNeedReplaceList@BaseTemplate@@QAEXPAVViewObj@@_N@Z 00495c00 f   BaseTemplate.obj
 0001:00094c10       ?copyObjListToObjList@BaseTemplate@@QAEXPAV?$QList@PAVViewObj@@@@PAV?$QList@PAVBaseContainer@@@@_N@Z 00495c10 f   BaseTemplate.obj
 0001:00094c90       ?deleteChild@BaseTemplate@@QAEXHH_N0@Z 00495c90 f   BaseTemplate.obj
 0001:00094d50       ?deleteChild@BaseTemplate@@QAEXPAVBaseContainer@@_N1@Z 00495d50 f   BaseTemplate.obj
 0001:00094df0       ?deleteViewObjOnShow@BaseTemplate@@QAEXPAV?$QList@PAVBaseContainer@@@@HH_N1@Z 00495df0 f   BaseTemplate.obj
 0001:00094f40       ?addChildren@BaseTemplate@@QAEXPAV?$QList@PAVBaseContainer@@@@H_N1@Z 00495f40 f   BaseTemplate.obj
 0001:00094fb0       ?addChild@BaseTemplate@@QAEXPAVBaseContainer@@H_N1@Z 00495fb0 f   BaseTemplate.obj
 0001:00095070       ?addViewObjOnShow@BaseTemplate@@QAEXPAV?$QList@PAVBaseContainer@@@@_N1@Z 00496070 f   BaseTemplate.obj
 0001:00095130       ?setExcelCellData@BaseTemplate@@QAEXPAVExcelCellData@@@Z 00496130 f   BaseTemplate.obj
 0001:00095150       ?getExcelCellData@BaseTemplate@@QAEPAVExcelCellData@@XZ 00496150 f   BaseTemplate.obj
 0001:00095170       ?getTemplateParentInExcelCell@BaseTemplate@@QAEPAV1@XZ 00496170 f   BaseTemplate.obj
 0001:00095190       ?setFirstChildViewFocus@BaseTemplate@@QAEX_N0@Z 00496190 f   BaseTemplate.obj
 0001:000951e0       ?getCodeId@BaseTemplate@@QAE?AVQString@@XZ 004961e0 f   BaseTemplate.obj
 0001:00095220       ?isObjHaveParagraphMgr@BaseTemplate@@QAE_NPAVBaseChildrenManager@@@Z 00496220 f   BaseTemplate.obj
 0001:00095250       ?getParagraphParent@BaseTemplate@@UAEPAVBaseParagraph@@XZ 00496250 f   BaseTemplate.obj
 0001:000957c0       ??_EBaseTemplate@@UAEPAXI@Z 004967c0 f i BaseTemplate.obj
 0001:000957c0       ??_GBaseTemplate@@UAEPAXI@Z 004967c0 f i BaseTemplate.obj
 0001:00095800       ?addWidgetToRow@BaseTemplate@@UAEX_N@Z 00496800 f i BaseTemplate.obj
 0001:00095810       ?checkStrIsAdaptStrListAndChildren@BaseTemplate@@UAEX_N@Z 00496810 f i BaseTemplate.obj
 0001:00095820       ?contains@?$QMap@VQString@@V1@@@QBE_NABVQString@@@Z 00496820 f i BaseTemplate.obj
 0001:00095870       ?getSelfFocusData@BaseTemplate@@UAEPAVStrContentData@@XZ 00496870 f i BaseTemplate.obj
 0001:00095880       ?getTempleteStatus@BaseTemplate@@UAEHXZ 00496880 f i BaseTemplate.obj
 0001:00095890       ?getTitle@BaseTemplate@@UAE?AVQString@@XZ 00496890 f i BaseTemplate.obj
 0001:000958d0       ?setTempleteProperty@BaseTemplate@@UAE_NAAV?$QMap@VQString@@V1@@@@Z 004968d0 f i BaseTemplate.obj
 0001:000958f0       ?setTempleteStatus@BaseTemplate@@UAEXH@Z 004968f0 f i BaseTemplate.obj
 0001:00095900       ??0NodeChildrenMgr@@QAE@PAVBaseContainer@@PAVParagraphManager@@H@Z 00496900 f   NodeChildrenMgr.obj
 0001:000959b0       ??0NodeChildrenMgr@@QAE@PAVBaseContainer@@PAVParagraphManager@@PAV0@@Z 004969b0 f   NodeChildrenMgr.obj
 0001:00095ac0       ??1NodeChildrenMgr@@UAE@XZ 00496ac0 f   NodeChildrenMgr.obj
 0001:00095af0       ?judgeCanOperate@NodeChildrenMgr@@UAE_NXZ 00496af0 f   NodeChildrenMgr.obj
 0001:00095b00       ?addChild@NodeChildrenMgr@@UAE_NPAVBaseContainer@@H_NPAV?$QList@PAVParagraphData@@@@H@Z 00496b00 f   NodeChildrenMgr.obj
 0001:00095e30       ?addChildren@NodeChildrenMgr@@UAEXPAV?$QList@PAVBaseContainer@@@@HHH_NPAV?$QList@PAVParagraphData@@@@H@Z 00496e30 f   NodeChildrenMgr.obj
 0001:00096020       ?delChild@NodeChildrenMgr@@UAEHPAVBaseContainer@@_N@Z 00497020 f   NodeChildrenMgr.obj
 0001:000960f0       ?delChildren@NodeChildrenMgr@@UAEHHH_N@Z 004970f0 f   NodeChildrenMgr.obj
 0001:00096410       ?addAllChildrenToParagraphAndView@NodeChildrenMgr@@QAEXXZ 00497410 f   NodeChildrenMgr.obj
 0001:00096500       ?addRecordChildrenToParagraphAndView@NodeChildrenMgr@@QAEXPAVViewObj@@@Z 00497500 f   NodeChildrenMgr.obj
 0001:00096530       ?delRecordChildrenToParagraphAndView@NodeChildrenMgr@@QAEXXZ 00497530 f   NodeChildrenMgr.obj
 0001:00096550       ?clearNodeList@NodeChildrenMgr@@QAEX_N@Z 00497550 f   NodeChildrenMgr.obj
 0001:00096910       ??_ENodeChildrenMgr@@UAEPAXI@Z 00497910 f i NodeChildrenMgr.obj
 0001:00096910       ??_GNodeChildrenMgr@@UAEPAXI@Z 00497910 f i NodeChildrenMgr.obj
 0001:00096950       ?insert@?$QList@PAVBaseContainer@@@@QAEXHABQAVBaseContainer@@@Z 00497950 f i NodeChildrenMgr.obj
 0001:00096b20       ??0NodeMgr@@QAE@PAVBaseContainer@@PAVParagraphManager@@@Z 00497b20 f   NodeMgr.obj
 0001:00096bd0       ??0NodeMgr@@QAE@PAVBaseContainer@@PAVParagraphManager@@PAV0@@Z 00497bd0 f   NodeMgr.obj
 0001:00096cd0       ??1NodeMgr@@UAE@XZ         00497cd0 f   NodeMgr.obj
 0001:00096d00       ?judgeCanOperate@NodeMgr@@UAE_NXZ 00497d00 f   NodeMgr.obj
 0001:00096d10       ?addChild@NodeMgr@@UAE_NPAVBaseContainer@@H_NPAV?$QList@PAVParagraphData@@@@H@Z 00497d10 f   NodeMgr.obj
 0001:00096f80       ?addChildren@NodeMgr@@UAEXPAV?$QList@PAVBaseContainer@@@@HHH_NPAV?$QList@PAVParagraphData@@@@H@Z 00497f80 f   NodeMgr.obj
 0001:00097310       ?delChild@NodeMgr@@UAEHPAVBaseContainer@@_N@Z 00498310 f   NodeMgr.obj
 0001:00097400       ?delChildren@NodeMgr@@UAEHHH_N@Z 00498400 f   NodeMgr.obj
 0001:00097790       ?addAllChildrenToParagraphAndView@NodeMgr@@QAEXXZ 00498790 f   NodeMgr.obj
 0001:000977f0       ?addRecordChildrenToParagraphAndView@NodeMgr@@QAEXPAVViewObj@@@Z 004987f0 f   NodeMgr.obj
 0001:00097820       ?delRecordChildrenToParagraphAndView@NodeMgr@@QAEXXZ 00498820 f   NodeMgr.obj
 0001:00097840       ?clearNodeList@NodeMgr@@AAEX_N@Z 00498840 f   NodeMgr.obj
 0001:00097c30       ??_ENodeMgr@@UAEPAXI@Z     00498c30 f i NodeMgr.obj
 0001:00097c30       ??_GNodeMgr@@UAEPAXI@Z     00498c30 f i NodeMgr.obj
 0001:00097c70       ??0BaseEditParam@@QAE@PAVViewObj@@H@Z 00498c70 f   BaseEditParam.obj
 0001:00097d10       ??0BaseEditParam@@QAE@PAVViewObj@@HPAV0@@Z 00498d10 f   BaseEditParam.obj
 0001:00097da0       ??1BaseEditParam@@UAE@XZ   00498da0 f   BaseEditParam.obj
 0001:00097e10       ?setItem@BaseEditParam@@QAEXV?$QList@UStrItemData@@@@@Z 00498e10 f   BaseEditParam.obj
 0001:00097e70       ?getItem@BaseEditParam@@QAEAAV?$QList@UStrItemData@@@@XZ 00498e70 f   BaseEditParam.obj
 0001:00097e90       ?setScaleW@BaseEditParam@@QAEXH@Z 00498e90 f   BaseEditParam.obj
 0001:00097eb0       ?setScaleH@BaseEditParam@@QAEXH@Z 00498eb0 f   BaseEditParam.obj
 0001:00097ed0       ?getScaleW@BaseEditParam@@QAEHXZ 00498ed0 f   BaseEditParam.obj
 0001:00097ef0       ?getScaleH@BaseEditParam@@QAEHXZ 00498ef0 f   BaseEditParam.obj
 0001:00097fb0       ??0?$QList@PAUStrItemData@@@@QAE@XZ 00498fb0 f i BaseEditParam.obj
 0001:00097fd0       ??1?$QList@PAUStrItemData@@@@QAE@XZ 00498fd0 f i BaseEditParam.obj
 0001:00098010       ??4?$QList@UStrItemData@@@@QAEAAV0@ABV0@@Z 00499010 f i BaseEditParam.obj
 0001:000980b0       ??_EBaseEditParam@@UAEPAXI@Z 004990b0 f i BaseEditParam.obj
 0001:000980b0       ??_GBaseEditParam@@UAEPAXI@Z 004990b0 f i BaseEditParam.obj
 0001:000980f0       ?dealloc@?$QList@PAUStrItemData@@@@AAEXPAUData@QListData@@@Z 004990f0 f i BaseEditParam.obj
 0001:00098140       ?node_destruct@?$QList@PAUStrItemData@@@@AAEXPAUNode@1@0@Z 00499140 f i BaseEditParam.obj
 0001:000981b0       ?swap@?$QList@UStrItemData@@@@QAEXAAV1@@Z 004991b0 f i BaseEditParam.obj
 0001:000981e0       ??0TabWidgetCollection@@QAE@PAVQWidget@@@Z 004991e0 f   TabWidgetCollection.obj
 0001:00098480       ??1TabWidgetCollection@@UAE@XZ 00499480 f   TabWidgetCollection.obj
 0001:000984b0       ?getInstance@TabWidgetCollection@@SAPAV1@XZ 004994b0 f   TabWidgetCollection.obj
 0001:00098540       ?removeSubTab@TabWidgetCollection@@QAE_NH@Z 00499540 f   TabWidgetCollection.obj
 0001:000986a0       ?addTabWidgetSlot@TabWidgetCollection@@QAEXXZ 004996a0 f   TabWidgetCollection.obj
 0001:00098800       ?saveData@TabWidgetCollection@@QAEPAVQTreeWidgetItem@@_N@Z 00499800 f   TabWidgetCollection.obj
 0001:00098fd0       ?IsChangeed@TabWidgetCollection@@QAEXH@Z 00499fd0 f   TabWidgetCollection.obj
 0001:000991d0       ?addTabWidget@TabWidgetCollection@@QAEXPAVQWidget@@VQString@@_N1PAVQTreeWidgetItem@@@Z 0049a1d0 f   TabWidgetCollection.obj
 0001:000997e0       ?modifyTabName@TabWidgetCollection@@QAEXVQString@@@Z 0049a7e0 f   TabWidgetCollection.obj
 0001:00099970       ?modifyTabName@TabWidgetCollection@@QAEXHVQString@@@Z 0049a970 f   TabWidgetCollection.obj
 0001:000999e0       ?getWidget@TabWidgetCollection@@QAEPAVQWidget@@VQString@@@Z 0049a9e0 f   TabWidgetCollection.obj
 0001:00099b00       ?modifyMedicalName@TabWidgetCollection@@QAEXVQString@@@Z 0049ab00 f   TabWidgetCollection.obj
 0001:00099b70       ?saveTabName@TabWidgetCollection@@QAEXVQString@@@Z 0049ab70 f   TabWidgetCollection.obj
 0001:00099d60       ?saveTabData@TabWidgetCollection@@QAEXH@Z 0049ad60 f   TabWidgetCollection.obj
 0001:0009a3d0       ?modifTabItem@TabWidgetCollection@@QAEXPAVQTreeWidgetItem@@VQString@@@Z 0049b3d0 f   TabWidgetCollection.obj
 0001:0009a580       ?getTabTxt@TabWidgetCollection@@QBE?AVQString@@XZ 0049b580 f   TabWidgetCollection.obj
 0001:0009a5d0       ?setUnSaveTabtoCurrent@TabWidgetCollection@@QAEXXZ 0049b5d0 f   TabWidgetCollection.obj
 0001:0009a6e0       ?getIndex@TabWidgetCollection@@QAEHVQString@@@Z 0049b6e0 f   TabWidgetCollection.obj
 0001:0009a7d0       ?getCurrentIndex@TabWidgetCollection@@QAEHXZ 0049b7d0 f   TabWidgetCollection.obj
 0001:0009a800       ?removeAllTab@TabWidgetCollection@@QAE_NXZ 0049b800 f   TabWidgetCollection.obj
 0001:0009a890       ?isExist@TabWidgetCollection@@QAE_NVQString@@@Z 0049b890 f   TabWidgetCollection.obj
 0001:0009a9a0       ?getTreeItem@TabWidgetCollection@@QAEPAVQTreeWidgetItem@@VQString@@@Z 0049b9a0 f   TabWidgetCollection.obj
 0001:0009ab70       ?getCurrentWidgetTreeItem@TabWidgetCollection@@QAEPAVQTreeWidgetItem@@VQString@@@Z 0049bb70 f   TabWidgetCollection.obj
 0001:0009ac70       ?getUnsavedWidget@TabWidgetCollection@@QAEPAVQWidget@@XZ 0049bc70 f   TabWidgetCollection.obj
 0001:0009add0       ?modifyAllName@TabWidgetCollection@@QAEXXZ 0049bdd0 f   TabWidgetCollection.obj
 0001:0009ba80       ??$_Move@AAPAU?$QMapData@H_N@@@std@@YA$$QAPAU?$QMapData@H_N@@AAPAU1@@Z 0049ca80 f i TabWidgetCollection.obj
 0001:0009ba90       ??$acquireMemoryFence@H@?$QGenericAtomicOps@U?$QAtomicOpsBySize@$03@@@@SAXABH@Z 0049ca90 f i TabWidgetCollection.obj
 0001:0009bab0       ??$canConvert@PAVQTreeWidgetItem@@@QVariant@@QBE_NXZ 0049cab0 f i TabWidgetCollection.obj
 0001:0009bad0       ??$loadAcquire@H@?$QGenericAtomicOps@U?$QAtomicOpsBySize@$03@@@@SAHABH@Z 0049cad0 f i TabWidgetCollection.obj
 0001:0009bb00       ??$orderedMemoryFence@H@?$QGenericAtomicOps@U?$QAtomicOpsBySize@$03@@@@SAXABH@Z 0049cb00 f i TabWidgetCollection.obj
 0001:0009bb10       ??$qMapLessThanKey@H@@YA_NABH0@Z 0049cb10 f i TabWidgetCollection.obj
 0001:0009bb40       ??$qMetaTypeId@PAVQTreeWidgetItem@@@@YAHXZ 0049cb40 f i TabWidgetCollection.obj
 0001:0009bb50       ??$qMetaTypeId@VQStringList@@@@YAHXZ 0049cb50 f i TabWidgetCollection.obj
 0001:0009bb60       ??$qRegisterMetaType@PAVQTreeWidgetItem@@@@YAHPBDPAPAVQTreeWidgetItem@@W4DefinedType@?$MetaTypeDefinedHelper@PAVQTreeWidgetItem@@$00@QtPrivate@@@Z 0049cb60 f i TabWidgetCollection.obj
 0001:0009bc00       ??$qRegisterNormalizedMetaType@PAVQTreeWidgetItem@@@@YAHABVQByteArray@@PAPAVQTreeWidgetItem@@W4DefinedType@?$MetaTypeDefinedHelper@PAVQTreeWidgetItem@@$00@QtPrivate@@@Z 0049cc00 f i TabWidgetCollection.obj
 0001:0009bde0       ??$qSwap@PAU?$QMapData@H_N@@@@YAXAAPAU?$QMapData@H_N@@0@Z 0049cde0 f i TabWidgetCollection.obj
 0001:0009be00       ??$qVariantSetValue@PAVQTreeWidgetItem@@@@YAXAAVQVariant@@ABQAVQTreeWidgetItem@@@Z 0049ce00 f i TabWidgetCollection.obj
 0001:0009bfb0       ??$qVariantSetValue@VQStringList@@@@YAXAAVQVariant@@ABVQStringList@@@Z 0049cfb0 f i TabWidgetCollection.obj
 0001:0009c190       ??$qvariant_cast@PAVQTreeWidgetItem@@@@YAPAVQTreeWidgetItem@@ABVQVariant@@@Z 0049d190 f i TabWidgetCollection.obj
 0001:0009c1b0       ??$releaseMemoryFence@H@?$QGenericAtomicOps@U?$QAtomicOpsBySize@$03@@@@SAXABH@Z 0049d1b0 f i TabWidgetCollection.obj
 0001:0009c1d0       ??$setValue@PAVQTreeWidgetItem@@@QVariant@@QAEXABQAVQTreeWidgetItem@@@Z 0049d1d0 f i TabWidgetCollection.obj
 0001:0009c200       ??$setValue@VQStringList@@@QVariant@@QAEXABVQStringList@@@Z 0049d200 f i TabWidgetCollection.obj
 0001:0009c230       ??$storeRelease@HH@?$QGenericAtomicOps@U?$QAtomicOpsBySize@$03@@@@SAXAAHH@Z 0049d230 f i TabWidgetCollection.obj
 0001:0009c250       ??$swap@PAU?$QMapData@H_N@@@std@@YAXAAPAU?$QMapData@H_N@@0@Z 0049d250 f i TabWidgetCollection.obj
 0001:0009c2a0       ??$value@PAVQTreeWidgetItem@@@QVariant@@QBEPAVQTreeWidgetItem@@XZ 0049d2a0 f i TabWidgetCollection.obj
 0001:0009c2c0       ??0?$QFlags@W4TypeFlag@QMetaType@@@@QAE@VQFlag@@@Z 0049d2c0 f i TabWidgetCollection.obj
 0001:0009c2f0       ??0?$QMap@H_N@@QAE@XZ      0049d2f0 f i TabWidgetCollection.obj
 0001:0009c310       ??0iterator@?$QMap@H_N@@QAE@PAU?$QMapNode@H_N@@@Z 0049d310 f i TabWidgetCollection.obj
 0001:0009c330       ??1?$QMap@H_N@@QAE@XZ      0049d330 f i TabWidgetCollection.obj
 0001:0009c360       ??4?$QMap@H_N@@QAEAAV0@$$QAV0@@Z 0049d360 f i TabWidgetCollection.obj
 0001:0009c390       ??8@YA_NABVQByteArray@@0@Z 0049d390 f i TabWidgetCollection.obj
 0001:0009c410       ??_5?$QFlags@W4TypeFlag@QMetaType@@@@QAEAAV0@W4TypeFlag@QMetaType@@@Z 0049d410 f i TabWidgetCollection.obj
 0001:0009c434       ??_EQTabWidget@@W7AEPAXI@Z 0049d434 f i TabWidgetCollection.obj
 0001:0009c43e       ??_ETabWidgetCollection@@W7AEPAXI@Z 0049d43e f i TabWidgetCollection.obj
 0001:0009c450       ??_GQStringList@@QAEPAXI@Z 0049d450 f i TabWidgetCollection.obj
 0001:0009c490       ??_EQTabWidget@@UAEPAXI@Z  0049d490 f i TabWidgetCollection.obj
 0001:0009c490       ??_GQTabWidget@@UAEPAXI@Z  0049d490 f i TabWidgetCollection.obj
 0001:0009c4d0       ??_ETabWidgetCollection@@UAEPAXI@Z 0049d4d0 f i TabWidgetCollection.obj
 0001:0009c4d0       ??_GTabWidgetCollection@@UAEPAXI@Z 0049d4d0 f i TabWidgetCollection.obj
 0001:0009c510       ?Construct@?$QMetaTypeFunctionHelper@PAVQTreeWidgetItem@@$00@QtMetaTypePrivate@@SAPAXPAXPBX@Z 0049d510 f i TabWidgetCollection.obj
 0001:0009c580       ?Create@?$QMetaTypeFunctionHelper@PAVQTreeWidgetItem@@$00@QtMetaTypePrivate@@SAPAXPBX@Z 0049d580 f i TabWidgetCollection.obj
 0001:0009c610       ?Delete@?$QMetaTypeFunctionHelper@PAVQTreeWidgetItem@@$00@QtMetaTypePrivate@@SAXPAX@Z 0049d610 f i TabWidgetCollection.obj
 0001:0009c630       ?Destruct@?$QMetaTypeFunctionHelper@PAVQTreeWidgetItem@@$00@QtMetaTypePrivate@@SAXPAX@Z 0049d630 f i TabWidgetCollection.obj
 0001:0009c640       ?clear@?$QMap@H_N@@QAEXXZ  0049d640 f i TabWidgetCollection.obj
 0001:0009c6d0       ?copy@?$QMapNode@H_N@@QBEPAU1@PAU?$QMapData@H_N@@@Z 0049d6d0 f i TabWidgetCollection.obj
 0001:0009c7c0       ?create@?$QMapData@H_N@@SAPAU1@XZ 0049d7c0 f i TabWidgetCollection.obj
 0001:0009c7d0       ?createNode@?$QMapData@H_N@@QAEPAU?$QMapNode@H_N@@ABHAB_NPAU2@_N@Z 0049d7d0 f i TabWidgetCollection.obj
 0001:0009c940       ?destroy@?$QMapData@H_N@@QAEXXZ 0049d940 f i TabWidgetCollection.obj
 0001:0009c9a0       ?destroySubTree@?$QMapNode@H_N@@QAEXXZ 0049d9a0 f i TabWidgetCollection.obj
 0001:0009c9f0       ?detach@?$QMap@H_N@@QAEXXZ 0049d9f0 f i TabWidgetCollection.obj
 0001:0009ca20       ?detach_helper@?$QMap@H_N@@AAEXXZ 0049da20 f i TabWidgetCollection.obj
 0001:0009cac0       ?end@?$QMapData@H_N@@QAEPAU?$QMapNode@H_N@@XZ 0049dac0 f i TabWidgetCollection.obj
 0001:0009cae0       ?findNode@?$QMapData@H_N@@QBEPAU?$QMapNode@H_N@@ABH@Z 0049dae0 f i TabWidgetCollection.obj
 0001:0009cb50       ?getCurrentWidget@TabWidgetCollection@@QAEPAVQWidget@@XZ 0049db50 f i TabWidgetCollection.obj
 0001:0009cb70       ?insert@?$QMap@H_N@@QAE?AViterator@1@ABHAB_N@Z 0049db70 f i TabWidgetCollection.obj
 0001:0009cca0       ?invoke@?$MetaTypeInvoker@U?$QVariantValueHelper@PAVQTreeWidgetItem@@@QtPrivate@@ABVQVariant@@PAVQTreeWidgetItem@@@QtPrivate@@SAPAVQTreeWidgetItem@@ABVQVariant@@@Z 0049dca0 f i TabWidgetCollection.obj
 0001:0009ccc0       ?leftNode@?$QMapNode@H_N@@QBEPAU1@XZ 0049dcc0 f i TabWidgetCollection.obj
 0001:0009cce0       ?length@?$QList@VQString@@@@QBEHXZ 0049dce0 f i TabWidgetCollection.obj
 0001:0009cd00       ?loadAcquire@?$QBasicAtomicInteger@H@@QBEHXZ 0049dd00 f i TabWidgetCollection.obj
 0001:0009cd20       ?lowerBound@?$QMapNode@H_N@@QAEPAU1@ABH@Z 0049dd20 f i TabWidgetCollection.obj
 0001:0009cda0       ?metaType@?$QVariantValueHelper@PAVQTreeWidgetItem@@@QtPrivate@@SAPAVQTreeWidgetItem@@ABVQVariant@@@Z 0049dda0 f i TabWidgetCollection.obj
 0001:0009ce00       ?qt_metatype_id@?$QMetaTypeId2@PAVQTreeWidgetItem@@@@SAHXZ 0049de00 f i TabWidgetCollection.obj
 0001:0009ce10       ?qt_metatype_id@?$QMetaTypeId2@VQStringList@@@@SAHXZ 0049de10 f i TabWidgetCollection.obj
 0001:0009ce20       ?qt_metatype_id@?$QMetaTypeId@PAVQTreeWidgetItem@@@@SAHXZ 0049de20 f i TabWidgetCollection.obj
 0001:0009ce80       ?qt_metatype_id@?$QMetaTypeIdHelper@PAVQTreeWidgetItem@@$00@QtPrivate@@SAHXZ 0049de80 f i TabWidgetCollection.obj
 0001:0009ce90       ?registerConverter@?$AssociativeContainerConverterHelper@PAVQTreeWidgetItem@@$0A@@QtPrivate@@SA_NH@Z 0049de90 f i TabWidgetCollection.obj
 0001:0009cea0       ?registerConverter@?$IsPair@PAVQTreeWidgetItem@@@QtPrivate@@SA_NH@Z 0049dea0 f i TabWidgetCollection.obj
 0001:0009ceb0       ?registerConverter@?$MetaTypeSmartPointerHelper@PAVQTreeWidgetItem@@X@QtPrivate@@SA_NH@Z 0049deb0 f i TabWidgetCollection.obj
 0001:0009cec0       ?registerConverter@?$SequentialContainerConverterHelper@PAVQTreeWidgetItem@@$0A@@QtPrivate@@SA_NH@Z 0049dec0 f i TabWidgetCollection.obj
 0001:0009ced0       ?removeAt@?$QList@VQString@@@@QAEXH@Z 0049ded0 f i TabWidgetCollection.obj
 0001:0009cf30       ?rightNode@?$QMapNode@H_N@@QBEPAU1@XZ 0049df30 f i TabWidgetCollection.obj
 0001:0009cf50       ?root@?$QMapData@H_N@@QBEPAU?$QMapNode@H_N@@XZ 0049df50 f i TabWidgetCollection.obj
 0001:0009cf70       ?showQueryMessageBox@MessageBoxW@@SAHVQString@@0@Z 0049df70 f i TabWidgetCollection.obj
 0001:0009d190       ?storeRelease@?$QBasicAtomicInteger@H@@QAEXH@Z 0049e190 f i TabWidgetCollection.obj
 0001:0009d1c0       ?value@?$MetaObjectForType@PAVQTreeWidgetItem@@$0A@@QtPrivate@@SAPBUQMetaObject@@XZ 0049e1c0 f i TabWidgetCollection.obj
 0001:0009d1d0       ?value@?$QMap@H_N@@QBE?B_NABHAB_N@Z 0049e1d0 f i TabWidgetCollection.obj
 0001:0009d220       ??0CCInputComboBox@@QAE@PAVQWidget@@@Z 0049e220 f   ccinputcombobox.obj
 0001:0009d540       ??1CCInputComboBox@@UAE@XZ 0049e540 f   ccinputcombobox.obj
 0001:0009d5e0       ?resize@CCInputComboBox@@QAEXHH@Z 0049e5e0 f   ccinputcombobox.obj
 0001:0009d620       ?resize@CCInputComboBox@@QAEXABVQSize@@@Z 0049e620 f   ccinputcombobox.obj
 0001:0009d650       ?eventFilter@CCInputComboBox@@UAE_NPAVQObject@@PAVQEvent@@@Z 0049e650 f   ccinputcombobox.obj
 0001:0009db90       ?setMaxListHeight@CCInputComboBox@@QAEXH@Z 0049eb90 f   ccinputcombobox.obj
 0001:0009dbb0       ?setData@CCInputComboBox@@QAEXAAV?$vector@VQString@@V?$allocator@VQString@@@std@@@std@@@Z 0049ebb0 f   ccinputcombobox.obj
 0001:0009dbe0       ?showPopup@CCInputComboBox@@IAEXXZ 0049ebe0 f   ccinputcombobox.obj
 0001:0009dd70       ?onTextChanged@CCInputComboBox@@QAEXABVQString@@@Z 0049ed70 f   ccinputcombobox.obj
 0001:0009de80       ?onListItemSelectionChanged@CCInputComboBox@@QAEXXZ 0049ee80 f   ccinputcombobox.obj
 0001:0009df30       ?onListItemConfirmed@CCInputComboBox@@QAEXPAVQListWidgetItem@@@Z 0049ef30 f   ccinputcombobox.obj
 0001:0009dfe0       ?onListCurrentItemChanged@CCInputComboBox@@QAEXPAVQListWidgetItem@@0@Z 0049efe0 f   ccinputcombobox.obj
 0001:0009e3e0       ??$?8V?$allocator@VQString@@@std@@V01@@std@@YA_NABU?$_Wrap_alloc@V?$allocator@VQString@@@std@@@0@0@Z 0049f3e0 f i ccinputcombobox.obj
 0001:0009e420       ??$?8VQString@@V0@@std@@YA_NABV?$allocator@VQString@@@0@0@Z 0049f420 f i ccinputcombobox.obj
 0001:0009e430       ??$?9V?$allocator@VQString@@@std@@V01@@std@@YA_NABU?$_Wrap_alloc@V?$allocator@VQString@@@std@@@0@0@Z 0049f430 f i ccinputcombobox.obj
 0001:0009e470       ??$_Allocate@VQString@@@std@@YAPAVQString@@IPAV1@@Z 0049f470 f i ccinputcombobox.obj
 0001:0009e4d0       ??$_Copy_impl@PAVQString@@PAV1@@std@@YAPAVQString@@PAV1@00@Z 0049f4d0 f i ccinputcombobox.obj
 0001:0009e520       ??$_Copy_impl@PAVQString@@PAV1@@std@@YAPAVQString@@PAV1@00U_Nonscalar_ptr_iterator_tag@0@@Z 0049f520 f i ccinputcombobox.obj
 0001:0009e560       ??$_Debug_pointer@VQString@@@std@@YAXPAVQString@@PB_WI@Z 0049f560 f i ccinputcombobox.obj
 0001:0009e590       ??$_Debug_range2@PAVQString@@@std@@YAXPAVQString@@0PB_WIUrandom_access_iterator_tag@0@@Z 0049f590 f i ccinputcombobox.obj
 0001:0009e600       ??$_Debug_range@PAVQString@@@std@@YAXPAVQString@@0PB_WI@Z 0049f600 f i ccinputcombobox.obj
 0001:0009e650       ??$_Destroy_range@U?$_Wrap_alloc@V?$allocator@VQString@@@std@@@std@@@std@@YAXPAVQString@@0AAU?$_Wrap_alloc@V?$allocator@VQString@@@std@@@0@@Z 0049f650 f i ccinputcombobox.obj
 0001:0009e6a0       ??$_Destroy_range@U?$_Wrap_alloc@V?$allocator@VQString@@@std@@@std@@@std@@YAXPAVQString@@0AAU?$_Wrap_alloc@V?$allocator@VQString@@@std@@@0@U_Nonscalar_ptr_iterator_tag@0@@Z 0049f6a0 f i ccinputcombobox.obj
 0001:0009e6d0       ??$_Iter_cat@PAVQString@@@std@@YA?AUrandom_access_iterator_tag@0@ABQAVQString@@@Z 0049f6d0 f i ccinputcombobox.obj
 0001:0009e6f0       ??$_Ptr_cat@VQString@@V1@@std@@YA?AU_Nonscalar_ptr_iterator_tag@0@PAVQString@@0@Z 0049f6f0 f i ccinputcombobox.obj
 0001:0009e700       ??$_Rechecked@PAVQString@@PAV1@@std@@YAAAPAVQString@@AAPAV1@PAV1@@Z 0049f700 f i ccinputcombobox.obj
 0001:0009e720       ??$_Ucopy@PAVQString@@@?$vector@VQString@@V?$allocator@VQString@@@std@@@std@@IAEPAVQString@@PAV2@00@Z 0049f720 f i ccinputcombobox.obj
 0001:0009e760       ??$_Unchecked@PAVQString@@@std@@YAPAVQString@@PAV1@@Z 0049f760 f i ccinputcombobox.obj
 0001:0009e770       ??$_Uninit_copy@PAVQString@@PAV1@U?$_Wrap_alloc@V?$allocator@VQString@@@std@@@std@@@std@@YAPAVQString@@PAV1@00AAU?$_Wrap_alloc@V?$allocator@VQString@@@std@@@0@@Z 0049f770 f i ccinputcombobox.obj
 0001:0009e7c0       ??$_Uninit_copy@PAVQString@@PAV1@V?$allocator@VQString@@@std@@@std@@YAPAVQString@@PAV1@00AAU?$_Wrap_alloc@V?$allocator@VQString@@@std@@@0@U_Nonscalar_ptr_iterator_tag@0@@Z 0049f7c0 f i ccinputcombobox.obj
 0001:0009e8f0       ??$_Uninitialized_copy@PAVQString@@PAV1@U?$_Wrap_alloc@V?$allocator@VQString@@@std@@@std@@@std@@YAPAVQString@@PAV1@00AAU?$_Wrap_alloc@V?$allocator@VQString@@@std@@@0@@Z 0049f8f0 f i ccinputcombobox.obj
 0001:0009e950       ??$construct@U_Container_proxy@std@@U12@@?$_Wrap_alloc@V?$allocator@U_Container_proxy@std@@@std@@@std@@QAEXPAU_Container_proxy@1@$$QAU21@@Z 0049f950 f i ccinputcombobox.obj
 0001:0009e990       ??$construct@U_Container_proxy@std@@U12@@?$allocator_traits@V?$allocator@U_Container_proxy@std@@@std@@@std@@SAXAAV?$allocator@U_Container_proxy@std@@@1@PAU_Container_proxy@1@$$QAU31@@Z 0049f990 f i ccinputcombobox.obj
 0001:0009e9c0       ??$construct@VQString@@AAV1@@?$_Wrap_alloc@V?$allocator@VQString@@@std@@@std@@QAEXPAVQString@@AAV2@@Z 0049f9c0 f i ccinputcombobox.obj
 0001:0009ea00       ??$construct@VQString@@AAV1@@?$allocator@VQString@@@std@@QAEXPAVQString@@AAV2@@Z 0049fa00 f i ccinputcombobox.obj
 0001:0009eab0       ??$construct@VQString@@AAV1@@?$allocator_traits@V?$allocator@VQString@@@std@@@std@@SAXAAV?$allocator@VQString@@@1@PAVQString@@AAV3@@Z 0049fab0 f i ccinputcombobox.obj
 0001:0009eae0       ??$destroy@U_Container_proxy@std@@@?$_Wrap_alloc@V?$allocator@U_Container_proxy@std@@@std@@@std@@QAEXPAU_Container_proxy@1@@Z 0049fae0 f i ccinputcombobox.obj
 0001:0009eb10       ??$destroy@U_Container_proxy@std@@@?$allocator_traits@V?$allocator@U_Container_proxy@std@@@std@@@std@@SAXAAV?$allocator@U_Container_proxy@std@@@1@PAU_Container_proxy@1@@Z 0049fb10 f i ccinputcombobox.obj
 0001:0009eb30       ??$destroy@VQString@@@?$_Wrap_alloc@V?$allocator@VQString@@@std@@@std@@QAEXPAVQString@@@Z 0049fb30 f i ccinputcombobox.obj
 0001:0009eb60       ??$destroy@VQString@@@?$allocator@VQString@@@std@@QAEXPAVQString@@@Z 0049fb60 f i ccinputcombobox.obj
 0001:0009eb80       ??$destroy@VQString@@@?$allocator_traits@V?$allocator@VQString@@@std@@@std@@SAXAAV?$allocator@VQString@@@1@PAVQString@@@Z 0049fb80 f i ccinputcombobox.obj
 0001:0009eba0       ??$forward@AAVQString@@@std@@YAAAVQString@@AAV1@@Z 0049fba0 f i ccinputcombobox.obj
 0001:0009ebb0       ??0?$QFlags@W4KeyboardModifier@Qt@@@@QAE@VQFlag@@@Z 0049fbb0 f i ccinputcombobox.obj
 0001:0009ebe0       ??0?$_Vector_alloc@$0A@U?$_Vec_base_types@VQString@@V?$allocator@VQString@@@std@@@std@@@std@@QAE@ABV?$allocator@VQString@@@1@@Z 0049fbe0 f i ccinputcombobox.obj
 0001:0009ec50       ??0?$_Vector_val@U?$_Simple_types@VQString@@@std@@@std@@QAE@XZ 0049fc50 f i ccinputcombobox.obj
 0001:0009eca0       ??0?$_Wrap_alloc@V?$allocator@U_Container_proxy@std@@@std@@@std@@QAE@XZ 0049fca0 f i ccinputcombobox.obj
 0001:0009ecc0       ??0?$_Wrap_alloc@V?$allocator@VQString@@@std@@@std@@QAE@XZ 0049fcc0 f i ccinputcombobox.obj
 0001:0009ece0       ??0?$allocator@VQString@@@std@@QAE@ABV01@@Z 0049fce0 f i ccinputcombobox.obj
 0001:0009ed00       ??0?$allocator@VQString@@@std@@QAE@XZ 0049fd00 f i ccinputcombobox.obj
 0001:0009ed20       ??0?$vector@VQString@@V?$allocator@VQString@@@std@@@std@@QAE@XZ 0049fd20 f i ccinputcombobox.obj
 0001:0009ed50       ??1?$_Vector_alloc@$0A@U?$_Vec_base_types@VQString@@V?$allocator@VQString@@@std@@@std@@@std@@QAE@XZ 0049fd50 f i ccinputcombobox.obj
 0001:0009ed80       ??1?$_Vector_val@U?$_Simple_types@VQString@@@std@@@std@@QAE@XZ 0049fd80 f i ccinputcombobox.obj
 0001:0009eda0       ??1?$vector@VQString@@V?$allocator@VQString@@@std@@@std@@QAE@XZ 0049fda0 f i ccinputcombobox.obj
 0001:0009edd0       ??4?$vector@VQString@@V?$allocator@VQString@@@std@@@std@@QAEAAV01@ABV01@@Z 0049fdd0 f i ccinputcombobox.obj
 0001:0009f0b0       ??A?$vector@VQString@@V?$allocator@VQString@@@std@@@std@@QAEAAVQString@@I@Z 004a00b0 f i ccinputcombobox.obj
 0001:0009f170       ??B?$QFlags@W4KeyboardModifier@Qt@@@@QBEHXZ 004a0170 f i ccinputcombobox.obj
 0001:0009f190       ??I?$QFlags@W4KeyboardModifier@Qt@@@@QBE?AV0@W4KeyboardModifier@Qt@@@Z 004a0190 f i ccinputcombobox.obj
 0001:0009f1c9       ??_ECCInputComboBox@@W7AEPAXI@Z 004a01c9 f i ccinputcombobox.obj
 0001:0009f1d3       ??_EQListWidget@@W7AEPAXI@Z 004a01d3 f i ccinputcombobox.obj
 0001:0009f1e0       ??_ECCInputComboBox@@UAEPAXI@Z 004a01e0 f i ccinputcombobox.obj
 0001:0009f1e0       ??_GCCInputComboBox@@UAEPAXI@Z 004a01e0 f i ccinputcombobox.obj
 0001:0009f220       ??_GQListWidget@@UAEPAXI@Z 004a0220 f i ccinputcombobox.obj
 0001:0009f220       ??_EQListWidget@@UAEPAXI@Z 004a0220 f i ccinputcombobox.obj
 0001:0009f260       ?_Alloc_proxy@?$_Vector_alloc@$0A@U?$_Vec_base_types@VQString@@V?$allocator@VQString@@@std@@@std@@@std@@QAEXXZ 004a0260 f i ccinputcombobox.obj
 0001:0009f2c0       ?_Buy@?$vector@VQString@@V?$allocator@VQString@@@std@@@std@@IAE_NI@Z 004a02c0 f i ccinputcombobox.obj
 0001:0009f370       ?_Change_alloc@?$_Vector_alloc@$0A@U?$_Vec_base_types@VQString@@V?$allocator@VQString@@@std@@@std@@@std@@QAEXABU?$_Wrap_alloc@V?$allocator@VQString@@@std@@@2@@Z 004a0370 f i ccinputcombobox.obj
 0001:0009f380       ?_Destroy@?$vector@VQString@@V?$allocator@VQString@@@std@@@std@@IAEXPAVQString@@0@Z 004a0380 f i ccinputcombobox.obj
 0001:0009f3c0       ?_Free_proxy@?$_Vector_alloc@$0A@U?$_Vec_base_types@VQString@@V?$allocator@VQString@@@std@@@std@@@std@@QAEXXZ 004a03c0 f i ccinputcombobox.obj
 0001:0009f420       ?_Getal@?$_Vector_alloc@$0A@U?$_Vec_base_types@VQString@@V?$allocator@VQString@@@std@@@std@@@std@@QBE?AU?$_Wrap_alloc@V?$allocator@VQString@@@std@@@2@XZ 004a0420 f i ccinputcombobox.obj
 0001:0009f440       ?_Tidy@?$vector@VQString@@V?$allocator@VQString@@@std@@@std@@IAEXXZ 004a0440 f i ccinputcombobox.obj
 0001:0009f4e0       ?_Xlen@?$vector@VQString@@V?$allocator@VQString@@@std@@@std@@IBEXXZ 004a04e0 f i ccinputcombobox.obj
 0001:0009f500       ?allocate@?$_Wrap_alloc@V?$allocator@U_Container_proxy@std@@@std@@@std@@QAEPAU_Container_proxy@2@I@Z 004a0500 f i ccinputcombobox.obj
 0001:0009f520       ?allocate@?$_Wrap_alloc@V?$allocator@VQString@@@std@@@std@@QAEPAVQString@@I@Z 004a0520 f i ccinputcombobox.obj
 0001:0009f540       ?allocate@?$allocator@VQString@@@std@@QAEPAVQString@@I@Z 004a0540 f i ccinputcombobox.obj
 0001:0009f570       ?capacity@?$vector@VQString@@V?$allocator@VQString@@@std@@@std@@QBEIXZ 004a0570 f i ccinputcombobox.obj
 0001:0009f590       ?clear@?$vector@VQString@@V?$allocator@VQString@@@std@@@std@@QAEXXZ 004a0590 f i ccinputcombobox.obj
 0001:0009f5e0       ?deallocate@?$_Wrap_alloc@V?$allocator@U_Container_proxy@std@@@std@@@std@@QAEXPAU_Container_proxy@2@I@Z 004a05e0 f i ccinputcombobox.obj
 0001:0009f610       ?deallocate@?$_Wrap_alloc@V?$allocator@VQString@@@std@@@std@@QAEXPAVQString@@I@Z 004a0610 f i ccinputcombobox.obj
 0001:0009f640       ?deallocate@?$allocator@VQString@@@std@@QAEXPAVQString@@I@Z 004a0640 f i ccinputcombobox.obj
 0001:0009f660       ?empty@?$vector@VQString@@V?$allocator@VQString@@@std@@@std@@QBE_NXZ 004a0660 f i ccinputcombobox.obj
 0001:0009f6a0       ?max_size@?$_Wrap_alloc@V?$allocator@VQString@@@std@@@std@@QBEIXZ 004a06a0 f i ccinputcombobox.obj
 0001:0009f6c0       ?max_size@?$allocator@VQString@@@std@@QBEIXZ 004a06c0 f i ccinputcombobox.obj
 0001:0009f6e0       ?max_size@?$allocator_traits@V?$allocator@VQString@@@std@@@std@@SAIABV?$allocator@VQString@@@2@@Z 004a06e0 f i ccinputcombobox.obj
 0001:0009f6f0       ?max_size@?$vector@VQString@@V?$allocator@VQString@@@std@@@std@@QBEIXZ 004a06f0 f i ccinputcombobox.obj
 0001:0009f720       ?size@?$vector@VQString@@V?$allocator@VQString@@@std@@@std@@QBEIXZ 004a0720 f i ccinputcombobox.obj
 0001:0009f740       ??0CustomComboBoxDelegate@@QAE@PAVQObject@@@Z 004a0740 f   CustomComboBoxDelegate.obj
 0001:0009f770       ??1CustomComboBoxDelegate@@UAE@XZ 004a0770 f   CustomComboBoxDelegate.obj
 0001:0009f810       ?createEditor@CustomComboBoxDelegate@@UBEPAVQWidget@@PAV2@ABVQStyleOptionViewItem@@ABVQModelIndex@@@Z 004a0810 f   CustomComboBoxDelegate.obj
 0001:0009f8e0       ?setBaseDictList@CustomComboBoxDelegate@@QAEXPAV?$QList@PAVBaseDictDataModel@@@@@Z 004a08e0 f   CustomComboBoxDelegate.obj
 0001:0009f9b0       ?setEditorData@CustomComboBoxDelegate@@QBEXABVQModelIndex@@@Z 004a09b0 f   CustomComboBoxDelegate.obj
 0001:0009fa80       ?setModelData@CustomComboBoxDelegate@@QBEXPAVQAbstractItemModel@@ABVQModelIndex@@@Z 004a0a80 f   CustomComboBoxDelegate.obj
 0001:0009fb20       ?updateEditorGeometry@CustomComboBoxDelegate@@QBEXABVQStyleOptionViewItem@@ABVQModelIndex@@@Z 004a0b20 f   CustomComboBoxDelegate.obj
 0001:0009fb40       ?clearBaseDictList@CustomComboBoxDelegate@@QAEXXZ 004a0b40 f   CustomComboBoxDelegate.obj
 0001:0009fb60       ?setEnabled@CustomComboBoxDelegate@@QAEX_N@Z 004a0b60 f   CustomComboBoxDelegate.obj
 0001:0009fb80       ?setVisible@CustomComboBoxDelegate@@QAEX_N@Z 004a0b80 f   CustomComboBoxDelegate.obj
 0001:0009fbb0       ?setEditable@CustomComboBoxDelegate@@QAEX_N@Z 004a0bb0 f   CustomComboBoxDelegate.obj
 0001:0009fbd0       ?getDictValueName@CustomComboBoxDelegate@@QBE?AVQString@@H@Z 004a0bd0 f   CustomComboBoxDelegate.obj
 0001:0009fc10       ?getDictValueId@CustomComboBoxDelegate@@QBE?AVQString@@H@Z 004a0c10 f   CustomComboBoxDelegate.obj
 0001:0009fc50       ?getDictDictComment@CustomComboBoxDelegate@@QBE?AVQString@@H@Z 004a0c50 f   CustomComboBoxDelegate.obj
 0001:0009fc90       ?getBaseDictDataModel@CustomComboBoxDelegate@@QBEPAV?$QList@PAVBaseDictDataModel@@@@XZ 004a0c90 f   CustomComboBoxDelegate.obj
 0001:0009fcb0       ?getDictValueOrNameOrIdOrComment@CustomComboBoxDelegate@@ABE?AVQString@@HH@Z 004a0cb0 f   CustomComboBoxDelegate.obj
 0001:0009ff30       ??0?$QFlags@W4MatchFlag@Qt@@@@QAE@VQFlag@@@Z 004a0f30 f i CustomComboBoxDelegate.obj
 0001:0009ff60       ??0?$QFlags@W4MatchFlag@Qt@@@@QAE@W4MatchFlag@Qt@@@Z 004a0f60 f i CustomComboBoxDelegate.obj
 0001:0009ff80       ??U?$QFlags@W4MatchFlag@Qt@@@@QBE?AV0@W4MatchFlag@Qt@@@Z 004a0f80 f i CustomComboBoxDelegate.obj
 0001:0009ffc0       ??U@YA?AV?$QFlags@W4MatchFlag@Qt@@@@W4MatchFlag@Qt@@0@Z 004a0fc0 f i CustomComboBoxDelegate.obj
 0001:0009fff0       ??_GCustomComboBoxDelegate@@UAEPAXI@Z 004a0ff0 f i CustomComboBoxDelegate.obj
 0001:0009fff0       ??_ECustomComboBoxDelegate@@UAEPAXI@Z 004a0ff0 f i CustomComboBoxDelegate.obj
 0001:000a0030       ?size@?$QList@PAVBaseDictDataModel@@@@QBEHXZ 004a1030 f i CustomComboBoxDelegate.obj
 0001:000a0050       ?t@Node@?$QList@PAVBaseDictDataModel@@@@QAEAAPAVBaseDictDataModel@@XZ 004a1050 f i CustomComboBoxDelegate.obj
 0001:000a0080       ?value@?$QList@PAVBaseDictDataModel@@@@QBEPAVBaseDictDataModel@@H@Z 004a1080 f i CustomComboBoxDelegate.obj
 0001:000a00d0       ??0CustomLineEditNumbersDelegate@@QAE@PAVQObject@@@Z 004a10d0 f   CustomLineEditNumbersDelegate.obj
 0001:000a0140       ??1CustomLineEditNumbersDelegate@@UAE@XZ 004a1140 f   CustomLineEditNumbersDelegate.obj
 0001:000a01f0       ?createEditor@CustomLineEditNumbersDelegate@@UBEPAVQWidget@@PAV2@ABVQStyleOptionViewItem@@ABVQModelIndex@@@Z 004a11f0 f   CustomLineEditNumbersDelegate.obj
 0001:000a02a0       ?setEditorDataForTableView@CustomLineEditNumbersDelegate@@QAEXABVQModelIndex@@@Z 004a12a0 f   CustomLineEditNumbersDelegate.obj
 0001:000a0350       ?setModelDataForTableView@CustomLineEditNumbersDelegate@@QAEXPAVQAbstractItemModel@@ABVQModelIndex@@@Z 004a1350 f   CustomLineEditNumbersDelegate.obj
 0001:000a03f0       ?updateEditorGeometryForTableView@CustomLineEditNumbersDelegate@@QAEXABVQStyleOptionViewItem@@ABVQModelIndex@@@Z 004a13f0 f   CustomLineEditNumbersDelegate.obj
 0001:000a0410       ?setQRegExpValue@CustomLineEditNumbersDelegate@@QAEXVQRegExp@@@Z 004a1410 f   CustomLineEditNumbersDelegate.obj
 0001:000a04e0       ?getQRegExpValue@CustomLineEditNumbersDelegate@@QAEPAVQRegExp@@XZ 004a14e0 f   CustomLineEditNumbersDelegate.obj
 0001:000a0600       ??_GCustomLineEditNumbersDelegate@@UAEPAXI@Z 004a1600 f i CustomLineEditNumbersDelegate.obj
 0001:000a0600       ??_ECustomLineEditNumbersDelegate@@UAEPAXI@Z 004a1600 f i CustomLineEditNumbersDelegate.obj
 0001:000a0640       ??_GQRegExpValidator@@UAEPAXI@Z 004a1640 f i CustomLineEditNumbersDelegate.obj
 0001:000a0640       ??_EQRegExpValidator@@UAEPAXI@Z 004a1640 f i CustomLineEditNumbersDelegate.obj
 0001:000a0680       ??0CustomPushButton@@QAE@AAVQSize@@AAVQMargins@@AAVQColor@@2HH@Z 004a1680 f   custompushbutton.obj
 0001:000a0770       ??1CustomPushButton@@UAE@XZ 004a1770 f   custompushbutton.obj
 0001:000a0820       ?paintEvent@CustomPushButton@@UAEXPAVQPaintEvent@@@Z 004a1820 f   custompushbutton.obj
 0001:000a09d0       ?createSubButton@CustomPushButton@@SAPAV1@PAVQWidget@@AAVQSize@@AAVQMargins@@AAVQColor@@3@Z 004a19d0 f   custompushbutton.obj
 0001:000a0a80       ?createPlusButton@CustomPushButton@@SAPAV1@PAVQWidget@@AAVQSize@@AAVQMargins@@AAVQColor@@3H@Z 004a1a80 f   custompushbutton.obj
 0001:000a0b30       ?createForkButton@CustomPushButton@@SAPAV1@PAVQWidget@@AAVQSize@@AAVQMargins@@AAVQColor@@3H@Z 004a1b30 f   custompushbutton.obj
 0001:000a0be0       ?createPlusButtonPoints@CustomPushButton@@QAEXXZ 004a1be0 f   custompushbutton.obj
 0001:000a1120       ?createSubButtonPath@CustomPushButton@@QAEXXZ 004a2120 f   custompushbutton.obj
 0001:000a11d0       ?createForkButtonPath@CustomPushButton@@QAEXXZ 004a21d0 f   custompushbutton.obj
 0001:000a1500       ?setBorderColor@CustomPushButton@@QAEXABVQColor@@_N@Z 004a2500 f   custompushbutton.obj
 0001:000a1530       ?setContentColor@CustomPushButton@@QAEXABVQColor@@_N@Z 004a2530 f   custompushbutton.obj
 0001:000a1560       ?initPainterPath@CustomPushButton@@AAEXXZ 004a2560 f   custompushbutton.obj
 0001:000a1a00       ??0QStylePainter@@QAE@PAVQWidget@@@Z 004a2a00 f i custompushbutton.obj
 0001:000a1aa0       ??1QStylePainter@@QAE@XZ   004a2aa0 f i custompushbutton.obj
 0001:000a1ab9       ??_ECustomPushButton@@W7AEPAXI@Z 004a2ab9 f i custompushbutton.obj
 0001:000a1ad0       ??_GCustomPushButton@@UAEPAXI@Z 004a2ad0 f i custompushbutton.obj
 0001:000a1ad0       ??_ECustomPushButton@@UAEPAXI@Z 004a2ad0 f i custompushbutton.obj
 0001:000a1b10       ??_GQPainterPath@@QAEPAXI@Z 004a2b10 f i custompushbutton.obj
 0001:000a1b50       ??_H@YGXPAXIHP6EPAX0@Z@Z   004a2b50 f i custompushbutton.obj
 0001:000a1b80       ?begin@QStylePainter@@QAE_NPAVQPaintDevice@@PAVQWidget@@@Z 004a2b80 f i custompushbutton.obj
 0001:000a1c10       ?bottom@QMargins@@QBEHXZ   004a2c10 f i custompushbutton.obj
 0001:000a1c30       ?drawControl@QStylePainter@@QAEXW4ControlElement@QStyle@@ABVQStyleOption@@@Z 004a2c30 f i custompushbutton.obj
 0001:000a1c70       ?left@QMargins@@QBEHXZ     004a2c70 f i custompushbutton.obj
 0001:000a1c90       ?right@QMargins@@QBEHXZ    004a2c90 f i custompushbutton.obj
 0001:000a1cb0       ?top@QMargins@@QBEHXZ      004a2cb0 f i custompushbutton.obj
 0001:000a1cd0       ??0CustomSpinBoxDelegate@@QAE@PAVQObject@@@Z 004a2cd0 f   CustomSpinBoxDelegate.obj
 0001:000a1d00       ?createEditor@CustomSpinBoxDelegate@@UBEPAVQWidget@@PAV2@ABVQStyleOptionViewItem@@ABVQModelIndex@@@Z 004a2d00 f   CustomSpinBoxDelegate.obj
 0001:000a1dc0       ?setEditorData@CustomSpinBoxDelegate@@QAEXABVQModelIndex@@@Z 004a2dc0 f   CustomSpinBoxDelegate.obj
 0001:000a1e60       ?setModelData@CustomSpinBoxDelegate@@QAEXPAVQAbstractItemModel@@ABVQModelIndex@@@Z 004a2e60 f   CustomSpinBoxDelegate.obj
 0001:000a1ef0       ?updateEditorGeometry@CustomSpinBoxDelegate@@QAEXABVQStyleOptionViewItem@@ABVQModelIndex@@@Z 004a2ef0 f   CustomSpinBoxDelegate.obj
 0001:000a1f10       ?setRange@CustomSpinBoxDelegate@@QAEXHH@Z 004a2f10 f   CustomSpinBoxDelegate.obj
 0001:000a1fe0       ??1CustomSpinBoxDelegate@@UAE@XZ 004a2fe0 f i CustomSpinBoxDelegate.obj
 0001:000a1ff9       ??_EQSpinBox@@W7AEPAXI@Z   004a2ff9 f i CustomSpinBoxDelegate.obj
 0001:000a2010       ??_ECustomSpinBoxDelegate@@UAEPAXI@Z 004a3010 f i CustomSpinBoxDelegate.obj
 0001:000a2010       ??_GCustomSpinBoxDelegate@@UAEPAXI@Z 004a3010 f i CustomSpinBoxDelegate.obj
 0001:000a2050       ??_GQSpinBox@@UAEPAXI@Z    004a3050 f i CustomSpinBoxDelegate.obj
 0001:000a2050       ??_EQSpinBox@@UAEPAXI@Z    004a3050 f i CustomSpinBoxDelegate.obj
 0001:000a2090       ??0CustomTableView@@QAE@PAVQWidget@@@Z 004a3090 f   CustomTableView.obj
 0001:000a2210       ??1CustomTableView@@UAE@XZ 004a3210 f   CustomTableView.obj
 0001:000a22a0       ?addColumnItemDelegate@CustomTableView@@QAEXPAVQItemDelegate@@@Z 004a32a0 f   CustomTableView.obj
 0001:000a22e0       ?addColumnAbstractItemDelegate@CustomTableView@@QAEXPAVQAbstractItemDelegate@@@Z 004a32e0 f   CustomTableView.obj
 0001:000a2320       ?setColumnItemDelegateList@CustomTableView@@QAEXPAV?$QList@PAVQItemDelegate@@@@@Z 004a3320 f   CustomTableView.obj
 0001:000a2380       ?setColumnAbstractItemDelegateList@CustomTableView@@QAEXPAV?$QList@PAVQAbstractItemDelegate@@@@@Z 004a3380 f   CustomTableView.obj
 0001:000a23e0       ?setColumnItemDelegate@CustomTableView@@QAEXHPAVQItemDelegate@@@Z 004a33e0 f   CustomTableView.obj
 0001:000a2440       ?setColumnAbstractItemDelegate@CustomTableView@@QAEXHPAVQAbstractItemDelegate@@@Z 004a3440 f   CustomTableView.obj
 0001:000a24a0       ?setCustomQTableSytle@CustomTableView@@QAEXVQString@@@Z 004a34a0 f   CustomTableView.obj
 0001:000a2510       ?setCustomHorizHeaderStyle@CustomTableView@@QAEXVQString@@@Z 004a3510 f   CustomTableView.obj
 0001:000a2570       ?setCustomVerticalHeaderStyle@CustomTableView@@QAEXVQString@@@Z 004a3570 f   CustomTableView.obj
 0001:000a25d0       ?getCustomQTableSytle@CustomTableView@@QBE?AVQString@@XZ 004a35d0 f   CustomTableView.obj
 0001:000a2610       ?getCustomHorizHeaderStyle@CustomTableView@@QBE?AVQString@@XZ 004a3610 f   CustomTableView.obj
 0001:000a2650       ?getCustomVerticalHeaderStyle@CustomTableView@@QBE?AVQString@@XZ 004a3650 f   CustomTableView.obj
 0001:000a2690       ?addCelTable@CustomTableView@@QAEXHH@Z 004a3690 f   CustomTableView.obj
 0001:000a26a0       ?bindingData@CustomTableView@@QAEXAAVQAbstractItemModel@@@Z 004a36a0 f   CustomTableView.obj
 0001:000a2850       ??0?$QFlags@W4EditTrigger@QAbstractItemView@@@@QAE@W4EditTrigger@QAbstractItemView@@@Z 004a3850 f i CustomTableView.obj
 0001:000a2870       ??0?$QList@PAVQAbstractItemDelegate@@@@QAE@XZ 004a3870 f i CustomTableView.obj
 0001:000a2890       ??0?$QList@PAVQItemDelegate@@@@QAE@XZ 004a3890 f i CustomTableView.obj
 0001:000a28af       ??_ECustomTableView@@W7AEPAXI@Z 004a38af f i CustomTableView.obj
 0001:000a28c0       ??_GCustomTableView@@UAEPAXI@Z 004a38c0 f i CustomTableView.obj
 0001:000a28c0       ??_ECustomTableView@@UAEPAXI@Z 004a38c0 f i CustomTableView.obj
 0001:000a2900       ?append@?$QList@PAVQAbstractItemDelegate@@@@QAEXABQAVQAbstractItemDelegate@@@Z 004a3900 f i CustomTableView.obj
 0001:000a2ad0       ?append@?$QList@PAVQItemDelegate@@@@QAEXABQAVQItemDelegate@@@Z 004a3ad0 f i CustomTableView.obj
 0001:000a2ca0       ?at@?$QList@PAVQAbstractItemDelegate@@@@QBEABQAVQAbstractItemDelegate@@H@Z 004a3ca0 f i CustomTableView.obj
 0001:000a2d30       ?at@?$QList@PAVQItemDelegate@@@@QBEABQAVQItemDelegate@@H@Z 004a3d30 f i CustomTableView.obj
 0001:000a2dc0       ?dealloc@?$QList@PAVQAbstractItemDelegate@@@@AAEXPAUData@QListData@@@Z 004a3dc0 f i CustomTableView.obj
 0001:000a2e10       ?dealloc@?$QList@PAVQItemDelegate@@@@AAEXPAUData@QListData@@@Z 004a3e10 f i CustomTableView.obj
 0001:000a2e60       ?detach_helper_grow@?$QList@PAVQAbstractItemDelegate@@@@AAEPAUNode@1@HH@Z 004a3e60 f i CustomTableView.obj
 0001:000a3060       ?detach_helper_grow@?$QList@PAVQItemDelegate@@@@AAEPAUNode@1@HH@Z 004a4060 f i CustomTableView.obj
 0001:000a3260       ?insert@?$QList@PAVQAbstractItemDelegate@@@@QAEXHABQAVQAbstractItemDelegate@@@Z 004a4260 f i CustomTableView.obj
 0001:000a3430       ?insert@?$QList@PAVQItemDelegate@@@@QAEXHABQAVQItemDelegate@@@Z 004a4430 f i CustomTableView.obj
 0001:000a3600       ?node_construct@?$QList@PAVQAbstractItemDelegate@@@@AAEXPAUNode@1@ABQAVQAbstractItemDelegate@@@Z 004a4600 f i CustomTableView.obj
 0001:000a36c0       ?node_construct@?$QList@PAVQItemDelegate@@@@AAEXPAUNode@1@ABQAVQItemDelegate@@@Z 004a46c0 f i CustomTableView.obj
 0001:000a3780       ?node_copy@?$QList@PAVQAbstractItemDelegate@@@@AAEXPAUNode@1@00@Z 004a4780 f i CustomTableView.obj
 0001:000a39d0       ?node_copy@?$QList@PAVQItemDelegate@@@@AAEXPAUNode@1@00@Z 004a49d0 f i CustomTableView.obj
 0001:000a3c20       ?node_destruct@?$QList@PAVQAbstractItemDelegate@@@@AAEXPAUNode@1@0@Z 004a4c20 f i CustomTableView.obj
 0001:000a3c90       ?node_destruct@?$QList@PAVQAbstractItemDelegate@@@@AAEXPAUNode@1@@Z 004a4c90 f i CustomTableView.obj
 0001:000a3cc0       ?node_destruct@?$QList@PAVQItemDelegate@@@@AAEXPAUNode@1@0@Z 004a4cc0 f i CustomTableView.obj
 0001:000a3d30       ?node_destruct@?$QList@PAVQItemDelegate@@@@AAEXPAUNode@1@@Z 004a4d30 f i CustomTableView.obj
 0001:000a3d60       ?size@?$QList@PAVQAbstractItemDelegate@@@@QBEHXZ 004a4d60 f i CustomTableView.obj
 0001:000a3d80       ?size@?$QList@PAVQItemDelegate@@@@QBEHXZ 004a4d80 f i CustomTableView.obj
 0001:000a3da0       ?t@Node@?$QList@PAVQAbstractItemDelegate@@@@QAEAAPAVQAbstractItemDelegate@@XZ 004a4da0 f i CustomTableView.obj
 0001:000a3dd0       ?t@Node@?$QList@PAVQItemDelegate@@@@QAEAAPAVQItemDelegate@@XZ 004a4dd0 f i CustomTableView.obj
 0001:000a3e00       ??0TreeItemMimeData@@QAE@XZ 004a4e00 f   TreeItemMimeData.obj
 0001:000a3e70       ??1TreeItemMimeData@@UAE@XZ 004a4e70 f   TreeItemMimeData.obj
 0001:000a3ed0       ?SetDragData@TreeItemMimeData@@QAEXVQString@@PAVQTreeWidgetItem@@@Z 004a4ed0 f   TreeItemMimeData.obj
 0001:000a5490       ?formats@TreeItemMimeData@@UBE?AVQStringList@@XZ 004a6490 f   TreeItemMimeData.obj
 0001:000a54d0       ?DragItemData@TreeItemMimeData@@QBE?AV?$QMap@VQString@@V1@@@XZ 004a64d0 f   TreeItemMimeData.obj
 0001:000a5500       ?retrieveData@TreeItemMimeData@@MBE?AVQVariant@@ABVQString@@W4Type@2@@Z 004a6500 f   TreeItemMimeData.obj
 0001:000a5b60       ??4?$QMap@VQString@@V1@@@QAEAAV0@$$QAV0@@Z 004a6b60 f i TreeItemMimeData.obj
 0001:000a5b90       ??_GTreeItemMimeData@@UAEPAXI@Z 004a6b90 f i TreeItemMimeData.obj
 0001:000a5b90       ??_ETreeItemMimeData@@UAEPAXI@Z 004a6b90 f i TreeItemMimeData.obj
 0001:000a5bd0       ?clear@?$QMap@VQString@@V1@@@QAEXXZ 004a6bd0 f i TreeItemMimeData.obj
 0001:000a5c60       ??0treeWidget@@QAE@PAVQWidget@@@Z 004a6c60 f   treeWidget.obj
 0001:000a5d30       ?mouseMoveEvent@treeWidget@@MAEXPAVQMouseEvent@@@Z 004a6d30 f   treeWidget.obj
 0001:000a5f60       ?mousePressEvent@treeWidget@@MAEXPAVQMouseEvent@@@Z 004a6f60 f   treeWidget.obj
 0001:000a5fb0       ?mouseReleaseEvent@treeWidget@@MAEXPAVQMouseEvent@@@Z 004a6fb0 f   treeWidget.obj
 0001:000a5fd0       ?performDrag@treeWidget@@AAEXXZ 004a6fd0 f   treeWidget.obj
 0001:000a6260       ??0?$QFlags@W4DropAction@Qt@@@@QAE@W4DropAction@Qt@@@Z 004a7260 f i treeWidget.obj
 0001:000a6280       ??0?$QFlags@W4MouseButton@Qt@@@@QAE@VQFlag@@@Z 004a7280 f i treeWidget.obj
 0001:000a62b0       ??1treeWidget@@UAE@XZ      004a72b0 f i treeWidget.obj
 0001:000a62d0       ??B?$QFlags@W4MouseButton@Qt@@@@QBEHXZ 004a72d0 f i treeWidget.obj
 0001:000a62f0       ??G@YA?BVQPoint@@ABV0@0@Z  004a72f0 f i treeWidget.obj
 0001:000a6330       ??I?$QFlags@W4MouseButton@Qt@@@@QBE?AV0@W4MouseButton@Qt@@@Z 004a7330 f i treeWidget.obj
 0001:000a6369       ??_EtreeWidget@@W7AEPAXI@Z 004a7369 f i treeWidget.obj
 0001:000a6380       ??_GQDrag@@UAEPAXI@Z       004a7380 f i treeWidget.obj
 0001:000a6380       ??_EQDrag@@UAEPAXI@Z       004a7380 f i treeWidget.obj
 0001:000a63c0       ??_GtreeWidget@@UAEPAXI@Z  004a73c0 f i treeWidget.obj
 0001:000a63c0       ??_EtreeWidget@@UAEPAXI@Z  004a73c0 f i treeWidget.obj
 0001:000a6400       ??0DBManager@@QAE@XZ       004a7400 f   DBManager.obj
 0001:000a6490       ??1DBManager@@UAE@XZ       004a7490 f   DBManager.obj
 0001:000a6520       ?setDoctorData@DBManager@@QAEXABUDoctorData@@@Z 004a7520 f   DBManager.obj
 0001:000a6540       ?connectDataBase@DBManager@@QAE_NXZ 004a7540 f   DBManager.obj
 0001:000a6570       ?connectOracle@DBManager@@QAE_NXZ 004a7570 f   DBManager.obj
 0001:000a6f40       ?connectMYSQL@DBManager@@QAE_NXZ 004a7f40 f   DBManager.obj
 0001:000a7880       ?disconnectOracle@DBManager@@QAEXXZ 004a8880 f   DBManager.obj
 0001:000a78a0       ?checkOracleDLL@DBManager@@QAE_NXZ 004a88a0 f   DBManager.obj
 0001:000a7a20       ?checkMYSQLDLL@DBManager@@QAE_NXZ 004a8a20 f   DBManager.obj
 0001:000a7ba0       ?checkDocData@DBManager@@QAE_NXZ 004a8ba0 f   DBManager.obj
 0001:000a7e10       ?Is64Bit_OS@DBManager@@QAE_NXZ 004a8e10 f   DBManager.obj
 0001:000a84e0       ??0?$Singleton@VDBManager@@@@IAE@XZ 004a94e0 f i DBManager.obj
 0001:000a8500       ??0DBData@@QAE@XZ          004a9500 f i DBManager.obj
 0001:000a85b0       ??0DoctorData@@QAE@XZ      004a95b0 f i DBManager.obj
 0001:000a8660       ??0QLatin1String@@QAE@PBD@Z 004a9660 f i DBManager.obj
 0001:000a86c0       ??1?$Singleton@VDBManager@@@@IAE@XZ 004a96c0 f i DBManager.obj
 0001:000a86d0       ??1DBData@@QAE@XZ          004a96d0 f i DBManager.obj
 0001:000a8740       ??1DoctorData@@QAE@XZ      004a9740 f i DBManager.obj
 0001:000a87c0       ??4DBData@@QAEAAU0@ABU0@@Z 004a97c0 f i DBManager.obj
 0001:000a8810       ??4DoctorData@@QAEAAU0@ABU0@@Z 004a9810 f i DBManager.obj
 0001:000a8870       ??_GDBManager@@UAEPAXI@Z   004a9870 f i DBManager.obj
 0001:000a8870       ??_EDBManager@@UAEPAXI@Z   004a9870 f i DBManager.obj
 0001:000a88b0       ??_EQLibrary@@UAEPAXI@Z    004a98b0 f i DBManager.obj
 0001:000a88b0       ??_GQLibrary@@UAEPAXI@Z    004a98b0 f i DBManager.obj
 0001:000a88f0       ?tr@DBManager@@SA?AVQString@@PBD0H@Z 004a98f0 f i DBManager.obj
 0001:000a8940       ??0BaseDictDataModel@@QAE@XZ 004a9940 f   BaseDictDataModel.obj
 0001:000a8960       ??1BaseDictDataModel@@QAE@XZ 004a9960 f   BaseDictDataModel.obj
 0001:000a8980       ??0metaData@@QAE@XZ        004a9980 f i BaseDictDataModel.obj
 0001:000a8ac0       ??1metaData@@UAE@XZ        004a9ac0 f i BaseDictDataModel.obj
 0001:000a8bf0       ??_EmetaData@@UAEPAXI@Z    004a9bf0 f i BaseDictDataModel.obj
 0001:000a8bf0       ??_GmetaData@@UAEPAXI@Z    004a9bf0 f i BaseDictDataModel.obj
 0001:000a8c30       ??0DataBaseControl@@QAE@PAVDBManager@@@Z 004a9c30 f   DataBaseControl.obj
 0001:000a8ce0       ??1DataBaseControl@@QAE@XZ 004a9ce0 f   DataBaseControl.obj
 0001:000a8d60       ?InitDataBaseName@DataBaseControl@@QAEXVQString@@V2@11@Z 004a9d60 f   DataBaseControl.obj
 0001:000a8f00       ?getQueryData@DataBaseControl@@QAEAAVQSqlQueryModel@@VQString@@@Z 004a9f00 f   DataBaseControl.obj
 0001:000a9040       ?getTableModel@DataBaseControl@@QAEPAVQSqlTableModel@@VQString@@0@Z 004aa040 f   DataBaseControl.obj
 0001:000a9200       ?insertData@DataBaseControl@@QAE_NVQString@@@Z 004aa200 f   DataBaseControl.obj
 0001:000a9360       ?getId@DataBaseControl@@QAE?AVQString@@V2@@Z 004aa360 f   DataBaseControl.obj
 0001:000a94b0       ?getAge@DataBaseControl@@QAE?AVQString@@V2@0@Z 004aa4b0 f   DataBaseControl.obj
 0001:000ac000       ?testModel@DataBaseControl@@QAEXXZ 004ad000 f   DataBaseControl.obj
 0001:000ac010       ?saveDataToDataBase@DataBaseControl@@QAEXXZ 004ad010 f   DataBaseControl.obj
 0001:000ac020       ?rollData@DataBaseControl@@QAEXXZ 004ad020 f   DataBaseControl.obj
 0001:000ac030       ?deleteMedicalData@DataBaseControl@@QAEXVQString@@_N11@Z 004ad030 f   DataBaseControl.obj
 0001:000ac3e0       ?insertMedicalData@DataBaseControl@@QAEXAAVQByteArray@@VQString@@1_N@Z 004ad3e0 f   DataBaseControl.obj
 0001:000ac8a0       ?getMedicalData@DataBaseControl@@QAE?AVQByteArray@@VQString@@_N@Z 004ad8a0 f   DataBaseControl.obj
 0001:000acb20       ?getMedicalData@DataBaseControl@@QAE?AVQByteArray@@VQString@@_NAA_N@Z 004adb20 f   DataBaseControl.obj
 0001:000ace10       ?updateMedicalData@DataBaseControl@@QAEXAAVQByteArray@@VQString@@_N@Z 004ade10 f   DataBaseControl.obj
 0001:000ad370       ?initData@DataBaseControl@@QAEXVQStringList@@AAUWriteAuthority@@AAV?$QMap@VQString@@UMdcAuthority@@@@@Z 004ae370 f   DataBaseControl.obj
 0001:000ad7f0       ?initDocutorData@DataBaseControl@@AAEXVQString@@000@Z 004ae7f0 f   DataBaseControl.obj
 0001:000ade80       ?initPatientData@DataBaseControl@@AAEXVQString@@@Z 004aee80 f   DataBaseControl.obj
 0001:000afca0       ?initAuthority@DataBaseControl@@AAEXVQString@@AAUWriteAuthority@@AAV?$QMap@VQString@@UMdcAuthority@@@@@Z 004b0ca0 f   DataBaseControl.obj
 0001:000b0620       ?initTemplateRight@DataBaseControl@@AAEXXZ 004b1620 f   DataBaseControl.obj
 0001:000b08b0       ?initMedicalRight@DataBaseControl@@AAEXXZ 004b18b0 f   DataBaseControl.obj
 0001:000b15e0       ?initSpecialRight@DataBaseControl@@AAEXVQString@@@Z 004b25e0 f   DataBaseControl.obj
 0001:000b17a0       ?initApplyDoctorRight@DataBaseControl@@AAEXVQString@@@Z 004b27a0 f   DataBaseControl.obj
 0001:000b1930       ?is_Leap@DataBaseControl@@QAE_NH@Z 004b2930 f   DataBaseControl.obj
 0001:000b1990       ?sum_Day@DataBaseControl@@QAEHH@Z 004b2990 f   DataBaseControl.obj
 0001:000b1a20       ?getDataBasetime@DataBaseControl@@QAE?AVQString@@XZ 004b2a20 f   DataBaseControl.obj
 0001:000b38e0       ??0?$QFlags@W4ParamTypeFlag@QSql@@@@QAE@W4ParamTypeFlag@QSql@@@Z 004b48e0 f i DataBaseControl.obj
 0001:000b3900       ??0?$QMap@VQString@@UoperatorMedicalRight@@@@QAE@XZ 004b4900 f i DataBaseControl.obj
 0001:000b3920       ??0?$QMap@VQString@@UoperatorTemplateRight@@@@QAE@XZ 004b4920 f i DataBaseControl.obj
 0001:000b3940       ??0DocutorData@@QAE@XZ     004b4940 f i DataBaseControl.obj
 0001:000b3a10       ??0MdcAuthority@@QAE@ABU0@@Z 004b4a10 f i DataBaseControl.obj
 0001:000b3ab0       ??0MdcAuthority@@QAE@XZ    004b4ab0 f i DataBaseControl.obj
 0001:000b3b40       ??0PatientData@@QAE@XZ     004b4b40 f i DataBaseControl.obj
 0001:000b3f10       ??0iterator@?$QMap@VQString@@UMdcAuthority@@@@QAE@PAU?$QMapNode@VQString@@UMdcAuthority@@@@@Z 004b4f10 f i DataBaseControl.obj
 0001:000b3f30       ??0iterator@?$QMap@VQString@@UoperatorMedicalRight@@@@QAE@PAU?$QMapNode@VQString@@UoperatorMedicalRight@@@@@Z 004b4f30 f i DataBaseControl.obj
 0001:000b3f50       ??0iterator@?$QMap@VQString@@UoperatorTemplateRight@@@@QAE@PAU?$QMapNode@VQString@@UoperatorTemplateRight@@@@@Z 004b4f50 f i DataBaseControl.obj
 0001:000b3f70       ??0operatorMedicalRight@@QAE@XZ 004b4f70 f i DataBaseControl.obj
 0001:000b3fa0       ??0operatorTemplateRight@@QAE@XZ 004b4fa0 f i DataBaseControl.obj
 0001:000b3fe0       ??1MdcAuthority@@QAE@XZ    004b4fe0 f i DataBaseControl.obj
 0001:000b4070       ??4MdcAuthority@@QAEAAU0@ABU0@@Z 004b5070 f i DataBaseControl.obj
 0001:000b40d0       ??A?$QMap@VQString@@UoperatorMedicalRight@@@@QAEAAUoperatorMedicalRight@@ABVQString@@@Z 004b50d0 f i DataBaseControl.obj
 0001:000b4140       ??A?$QMap@VQString@@UoperatorTemplateRight@@@@QAEAAUoperatorTemplateRight@@ABVQString@@@Z 004b5140 f i DataBaseControl.obj
 0001:000b41b0       ??Diterator@?$QMap@VQString@@UoperatorMedicalRight@@@@QBEAAUoperatorMedicalRight@@XZ 004b51b0 f i DataBaseControl.obj
 0001:000b41d0       ??Diterator@?$QMap@VQString@@UoperatorTemplateRight@@@@QBEAAUoperatorTemplateRight@@XZ 004b51d0 f i DataBaseControl.obj
 0001:000b41f0       ??_GMdcAuthority@@QAEPAXI@Z 004b51f0 f i DataBaseControl.obj
 0001:000b4230       ??_EQSqlQueryModel@@UAEPAXI@Z 004b5230 f i DataBaseControl.obj
 0001:000b4230       ??_GQSqlQueryModel@@UAEPAXI@Z 004b5230 f i DataBaseControl.obj
 0001:000b4270       ??_EQSqlTableModel@@UAEPAXI@Z 004b5270 f i DataBaseControl.obj
 0001:000b4270       ??_GQSqlTableModel@@UAEPAXI@Z 004b5270 f i DataBaseControl.obj
 0001:000b42b0       ?contains@?$QMap@VQString@@UoperatorMedicalRight@@@@QBE_NABVQString@@@Z 004b52b0 f i DataBaseControl.obj
 0001:000b4300       ?contains@?$QMap@VQString@@UoperatorTemplateRight@@@@QBE_NABVQString@@@Z 004b5300 f i DataBaseControl.obj
 0001:000b4350       ?copy@?$QMapNode@VQString@@UMdcAuthority@@@@QBEPAU1@PAU?$QMapData@VQString@@UMdcAuthority@@@@@Z 004b5350 f i DataBaseControl.obj
 0001:000b4440       ?copy@?$QMapNode@VQString@@UoperatorMedicalRight@@@@QBEPAU1@PAU?$QMapData@VQString@@UoperatorMedicalRight@@@@@Z 004b5440 f i DataBaseControl.obj
 0001:000b4530       ?copy@?$QMapNode@VQString@@UoperatorTemplateRight@@@@QBEPAU1@PAU?$QMapData@VQString@@UoperatorTemplateRight@@@@@Z 004b5530 f i DataBaseControl.obj
 0001:000b4620       ?create@?$QMapData@VQString@@UMdcAuthority@@@@SAPAU1@XZ 004b5620 f i DataBaseControl.obj
 0001:000b4630       ?create@?$QMapData@VQString@@UoperatorMedicalRight@@@@SAPAU1@XZ 004b5630 f i DataBaseControl.obj
 0001:000b4640       ?create@?$QMapData@VQString@@UoperatorTemplateRight@@@@SAPAU1@XZ 004b5640 f i DataBaseControl.obj
 0001:000b4650       ?createNode@?$QMapData@VQString@@UMdcAuthority@@@@QAEPAU?$QMapNode@VQString@@UMdcAuthority@@@@ABVQString@@ABUMdcAuthority@@PAU2@_N@Z 004b5650 f i DataBaseControl.obj
 0001:000b4800       ?createNode@?$QMapData@VQString@@UoperatorMedicalRight@@@@QAEPAU?$QMapNode@VQString@@UoperatorMedicalRight@@@@ABVQString@@ABUoperatorMedicalRight@@PAU2@_N@Z 004b5800 f i DataBaseControl.obj
 0001:000b49a0       ?createNode@?$QMapData@VQString@@UoperatorTemplateRight@@@@QAEPAU?$QMapNode@VQString@@UoperatorTemplateRight@@@@ABVQString@@ABUoperatorTemplateRight@@PAU2@_N@Z 004b59a0 f i DataBaseControl.obj
 0001:000b4b30       ?destroy@?$QMapData@VQString@@UMdcAuthority@@@@QAEXXZ 004b5b30 f i DataBaseControl.obj
 0001:000b4b90       ?destroy@?$QMapData@VQString@@UoperatorMedicalRight@@@@QAEXXZ 004b5b90 f i DataBaseControl.obj
 0001:000b4bf0       ?destroy@?$QMapData@VQString@@UoperatorTemplateRight@@@@QAEXXZ 004b5bf0 f i DataBaseControl.obj
 0001:000b4c50       ?destroySubTree@?$QMapNode@VQString@@UMdcAuthority@@@@QAEXXZ 004b5c50 f i DataBaseControl.obj
 0001:000b4ce0       ?destroySubTree@?$QMapNode@VQString@@UoperatorMedicalRight@@@@QAEXXZ 004b5ce0 f i DataBaseControl.obj
 0001:000b4d50       ?destroySubTree@?$QMapNode@VQString@@UoperatorTemplateRight@@@@QAEXXZ 004b5d50 f i DataBaseControl.obj
 0001:000b4dc0       ?detach@?$QMap@VQString@@UMdcAuthority@@@@QAEXXZ 004b5dc0 f i DataBaseControl.obj
 0001:000b4df0       ?detach@?$QMap@VQString@@UoperatorMedicalRight@@@@QAEXXZ 004b5df0 f i DataBaseControl.obj
 0001:000b4e20       ?detach@?$QMap@VQString@@UoperatorTemplateRight@@@@QAEXXZ 004b5e20 f i DataBaseControl.obj
 0001:000b4e50       ?detach_helper@?$QMap@VQString@@UMdcAuthority@@@@AAEXXZ 004b5e50 f i DataBaseControl.obj
 0001:000b4ef0       ?detach_helper@?$QMap@VQString@@UoperatorMedicalRight@@@@AAEXXZ 004b5ef0 f i DataBaseControl.obj
 0001:000b4f90       ?detach_helper@?$QMap@VQString@@UoperatorTemplateRight@@@@AAEXXZ 004b5f90 f i DataBaseControl.obj
 0001:000b5030       ?end@?$QMapData@VQString@@UMdcAuthority@@@@QAEPAU?$QMapNode@VQString@@UMdcAuthority@@@@XZ 004b6030 f i DataBaseControl.obj
 0001:000b5050       ?end@?$QMapData@VQString@@UoperatorMedicalRight@@@@QAEPAU?$QMapNode@VQString@@UoperatorMedicalRight@@@@XZ 004b6050 f i DataBaseControl.obj
 0001:000b5070       ?end@?$QMapData@VQString@@UoperatorTemplateRight@@@@QAEPAU?$QMapNode@VQString@@UoperatorTemplateRight@@@@XZ 004b6070 f i DataBaseControl.obj
 0001:000b5090       ?findNode@?$QMapData@VQString@@UoperatorMedicalRight@@@@QBEPAU?$QMapNode@VQString@@UoperatorMedicalRight@@@@ABVQString@@@Z 004b6090 f i DataBaseControl.obj
 0001:000b5100       ?findNode@?$QMapData@VQString@@UoperatorTemplateRight@@@@QBEPAU?$QMapNode@VQString@@UoperatorTemplateRight@@@@ABVQString@@@Z 004b6100 f i DataBaseControl.obj
 0001:000b5170       ?initMedicalRightData@DataBaseControl@@AAEXVQString@@0@Z 004b6170 f i DataBaseControl.obj
 0001:000b5320       ?initTemplateRightData@DataBaseControl@@AAEXVQString@@0@Z 004b6320 f i DataBaseControl.obj
 0001:000b5550       ?insert@?$QMap@VQString@@UMdcAuthority@@@@QAE?AViterator@1@ABVQString@@ABUMdcAuthority@@@Z 004b6550 f i DataBaseControl.obj
 0001:000b5690       ?insert@?$QMap@VQString@@UoperatorMedicalRight@@@@QAE?AViterator@1@ABVQString@@ABUoperatorMedicalRight@@@Z 004b6690 f i DataBaseControl.obj
 0001:000b57d0       ?insert@?$QMap@VQString@@UoperatorTemplateRight@@@@QAE?AViterator@1@ABVQString@@ABUoperatorTemplateRight@@@Z 004b67d0 f i DataBaseControl.obj
 0001:000b5900       ?leftNode@?$QMapNode@VQString@@UMdcAuthority@@@@QBEPAU1@XZ 004b6900 f i DataBaseControl.obj
 0001:000b5920       ?leftNode@?$QMapNode@VQString@@UoperatorMedicalRight@@@@QBEPAU1@XZ 004b6920 f i DataBaseControl.obj
 0001:000b5940       ?leftNode@?$QMapNode@VQString@@UoperatorTemplateRight@@@@QBEPAU1@XZ 004b6940 f i DataBaseControl.obj
 0001:000b5960       ?lowerBound@?$QMapNode@VQString@@UoperatorMedicalRight@@@@QAEPAU1@ABVQString@@@Z 004b6960 f i DataBaseControl.obj
 0001:000b59e0       ?lowerBound@?$QMapNode@VQString@@UoperatorTemplateRight@@@@QAEPAU1@ABVQString@@@Z 004b69e0 f i DataBaseControl.obj
 0001:000b5a60       ?rightNode@?$QMapNode@VQString@@UMdcAuthority@@@@QBEPAU1@XZ 004b6a60 f i DataBaseControl.obj
 0001:000b5a80       ?rightNode@?$QMapNode@VQString@@UoperatorMedicalRight@@@@QBEPAU1@XZ 004b6a80 f i DataBaseControl.obj
 0001:000b5aa0       ?rightNode@?$QMapNode@VQString@@UoperatorTemplateRight@@@@QBEPAU1@XZ 004b6aa0 f i DataBaseControl.obj
 0001:000b5ac0       ?root@?$QMapData@VQString@@UMdcAuthority@@@@QBEPAU?$QMapNode@VQString@@UMdcAuthority@@@@XZ 004b6ac0 f i DataBaseControl.obj
 0001:000b5ae0       ?root@?$QMapData@VQString@@UoperatorMedicalRight@@@@QBEPAU?$QMapNode@VQString@@UoperatorMedicalRight@@@@XZ 004b6ae0 f i DataBaseControl.obj
 0001:000b5b00       ?root@?$QMapData@VQString@@UoperatorTemplateRight@@@@QBEPAU?$QMapNode@VQString@@UoperatorTemplateRight@@@@XZ 004b6b00 f i DataBaseControl.obj
 0001:000b5b20       ??0RequestJsonDataModel@@QAE@XZ 004b6b20 f   RequestJsonDataModel.obj
 0001:000b5ba0       ?clearReqData@RequestJsonDataModel@@QAEXXZ 004b6ba0 f   RequestJsonDataModel.obj
 0001:000b5c50       ?setPostData@RequestJsonDataModel@@QAE?AVQByteArray@@VQJsonObject@@@Z 004b6c50 f   RequestJsonDataModel.obj
 0001:000b5d40       ?setPostData@RequestJsonDataModel@@QAE?AVQByteArray@@V2@@Z 004b6d40 f   RequestJsonDataModel.obj
 0001:000b5e00       ?serialize@RequestJsonDataModel@@QAE?AVQByteArray@@ABVQVariant@@@Z 004b6e00 f   RequestJsonDataModel.obj
 0001:000b5f20       ?getReqUrl@RequestJsonDataModel@@QAE?AVQString@@V2@VQByteArray@@@Z 004b6f20 f   RequestJsonDataModel.obj
 0001:000b6140       ??0?$Singleton@VRequestJsonDataModel@@@@IAE@XZ 004b7140 f i RequestJsonDataModel.obj
 0001:000b6160       ??1?$Singleton@VRequestJsonDataModel@@@@IAE@XZ 004b7160 f i RequestJsonDataModel.obj
 0001:000b6170       ??H@YA?BVQByteArray@@PBDABV0@@Z 004b7170 f i RequestJsonDataModel.obj
 0001:000b6220       ??0Cursor@@QAE@XZ          004b7220 f   Cursor.obj
 0001:000b6260       ??1Cursor@@QAE@XZ          004b7260 f   Cursor.obj
 0001:000b6280       ?initCursor@Cursor@@SAXPAVQWidget@@@Z 004b7280 f   Cursor.obj
 0001:000b6310       ?slotArrow@Cursor@@SAXXZ   004b7310 f   Cursor.obj
 0001:000b6390       ?slotBusy@Cursor@@SAXXZ    004b7390 f   Cursor.obj
 0001:000b6400       ?slotCloseHand@Cursor@@SAXXZ 004b7400 f   Cursor.obj
 0001:000b6470       ?slotCross@Cursor@@SAXXZ   004b7470 f   Cursor.obj
 0001:000b64e0       ?slotForbidden@Cursor@@SAXXZ 004b74e0 f   Cursor.obj
 0001:000b6550       ?slotHand@Cursor@@SAXXZ    004b7550 f   Cursor.obj
 0001:000b65c0       ?slotIbeam@Cursor@@SAXXZ   004b75c0 f   Cursor.obj
 0001:000b6640       ?slotOpenHand@Cursor@@SAXXZ 004b7640 f   Cursor.obj
 0001:000b66b0       ?slotSizeAll@Cursor@@SAXXZ 004b76b0 f   Cursor.obj
 0001:000b6730       ?slotSizeB@Cursor@@SAXXZ   004b7730 f   Cursor.obj
 0001:000b67a0       ?slotSizeF@Cursor@@SAXXZ   004b77a0 f   Cursor.obj
 0001:000b6810       ?slotSizeH@Cursor@@SAXXZ   004b7810 f   Cursor.obj
 0001:000b6880       ?slotSizeV@Cursor@@SAXXZ   004b7880 f   Cursor.obj
 0001:000b68f0       ?slotUpArrow@Cursor@@SAXXZ 004b78f0 f   Cursor.obj
 0001:000b6960       ?slotVSplit@Cursor@@SAXXZ  004b7960 f   Cursor.obj
 0001:000b69e0       ?slotHSplit@Cursor@@SAXXZ  004b79e0 f   Cursor.obj
 0001:000b6a60       ?slotWait@Cursor@@SAXXZ    004b7a60 f   Cursor.obj
 0001:000b6ad0       ?slotWhatsThis@Cursor@@SAXXZ 004b7ad0 f   Cursor.obj
 0001:000b6b40       ?slotBlank@Cursor@@SAXXZ   004b7b40 f   Cursor.obj
 0001:000b6bb0       ?slotCustom@Cursor@@SAXXZ  004b7bb0 f   Cursor.obj
 0001:000b6cc0       ?refreshFlag@Cursor@@SAXABVQCursor@@@Z 004b7cc0 f   Cursor.obj
 0001:000b6fb0       ??1CGarbo@Cursor@@QAE@XZ   004b7fb0 f i Cursor.obj
 0001:000b7010       ??_GCursor@@QAEPAXI@Z      004b8010 f i Cursor.obj
 0001:000b7050       ??0SystemParams@@QAE@PAVOperateMgr@@@Z 004b8050 f   SystemParams.obj
 0001:000b7280       ??1SystemParams@@QAE@XZ    004b8280 f   SystemParams.obj
 0001:000b73f0       ?doSave@SystemParams@@QAEXPAVBaseIOTools@@@Z 004b83f0 f   SystemParams.obj
 0001:000b7570       ?doLoad@SystemParams@@QAEXPAVBaseIOTools@@@Z 004b8570 f   SystemParams.obj
 0001:000b7700       ?initUserInfo@SystemParams@@QAEXPAVUserInfo@@@Z 004b8700 f   SystemParams.obj
 0001:000b7740       ?initPatientInfo@SystemParams@@QAEXPAVPatientInfo@@@Z 004b8740 f   SystemParams.obj
 0001:000b7760       ?getCurrentUserInfo@SystemParams@@QAEPAVUserInfo@@XZ 004b8760 f   SystemParams.obj
 0001:000b7780       ?getPatientInfo@SystemParams@@QAEPAVPatientInfo@@XZ 004b8780 f   SystemParams.obj
 0001:000b77a0       ?getVersion@SystemParams@@QAE?AVQString@@XZ 004b87a0 f   SystemParams.obj
 0001:000b77e0       ?isPaperHorizontal@SystemParams@@QAE_NXZ 004b87e0 f   SystemParams.obj
 0001:000b7800       ?getRowBottomLineType@SystemParams@@QAEDXZ 004b8800 f   SystemParams.obj
 0001:000b7820       ?getPaperType@SystemParams@@QAEFXZ 004b8820 f   SystemParams.obj
 0001:000b7840       ?setTitleCanWriteByViewSide@SystemParams@@QAEX_N@Z 004b8840 f   SystemParams.obj
 0001:000b7860       ?canTitleWriteByViewSide@SystemParams@@QAE_NXZ 004b8860 f   SystemParams.obj
 0001:000b7880       ?setBottomCanWriteByViewSide@SystemParams@@QAEX_N@Z 004b8880 f   SystemParams.obj
 0001:000b78a0       ?canBottomWriteByViewSide@SystemParams@@QAE_NXZ 004b88a0 f   SystemParams.obj
 0001:000b78c0       ?refreshTitleNumNext@SystemParams@@QAE_NPAVBaseContainer@@@Z 004b88c0 f   SystemParams.obj
 0001:000b7930       ?refreshTitleNumNext@SystemParams@@QAE_NPAV?$QList@PAVBaseContainer@@@@HH@Z 004b8930 f   SystemParams.obj
 0001:000b79f0       ?refreshBottomNumNext@SystemParams@@QAE_NPAVBaseContainer@@@Z 004b89f0 f   SystemParams.obj
 0001:000b7a60       ?refreshBottomNumNext@SystemParams@@QAE_NPAV?$QList@PAVBaseContainer@@@@HH@Z 004b8a60 f   SystemParams.obj
 0001:000b7b20       ?refreshTitleAndBottomNumIndex@SystemParams@@QAEXXZ 004b8b20 f   SystemParams.obj
 0001:000b7b60       ?getPageInsideTop@SystemParams@@QAEHXZ 004b8b60 f   SystemParams.obj
 0001:000b7b80       ?getPageInsideBottom@SystemParams@@QAEHXZ 004b8b80 f   SystemParams.obj
 0001:000b7ba0       ?getPageInsideLeft@SystemParams@@QAEHXZ 004b8ba0 f   SystemParams.obj
 0001:000b7bc0       ?getPageInsideRight@SystemParams@@QAEHXZ 004b8bc0 f   SystemParams.obj
 0001:000b7be0       ?getTitleMaxH@SystemParams@@QAEHXZ 004b8be0 f   SystemParams.obj
 0001:000b7c00       ?getBottomMaxH@SystemParams@@QAEHXZ 004b8c00 f   SystemParams.obj
 0001:000b7c20       ?getTitlePageNumber@SystemParams@@QAEPAVViewObj@@XZ 004b8c20 f   SystemParams.obj
 0001:000b7c40       ?getBottomPageNumber@SystemParams@@QAEPAVViewObj@@XZ 004b8c40 f   SystemParams.obj
 0001:000b7c60       ?isTitleView@SystemParams@@QAE_NXZ 004b8c60 f   SystemParams.obj
 0001:000b7c80       ?isBottomView@SystemParams@@QAE_NXZ 004b8c80 f   SystemParams.obj
 0001:000b7ca0       ?getTitleNumViewType@SystemParams@@QAEDXZ 004b8ca0 f   SystemParams.obj
 0001:000b7cc0       ?getBottomNumViewType@SystemParams@@QAEDXZ 004b8cc0 f   SystemParams.obj
 0001:000b7ce0       ?isParagraphNumView@SystemParams@@QAE_NXZ 004b8ce0 f   SystemParams.obj
 0001:000b7d00       ?isTidy@SystemParams@@QAE_NXZ 004b8d00 f   SystemParams.obj
 0001:000b7d20       ?haveChanged@SystemParams@@QAE_N_NFHHHHHH@Z 004b8d20 f   SystemParams.obj
 0001:000b7db0       ?setPageParams@SystemParams@@QAED_NFHHHHHH@Z 004b8db0 f   SystemParams.obj
 0001:000b7e90       ?setTitleView@SystemParams@@QAEX_N0@Z 004b8e90 f   SystemParams.obj
 0001:000b7ed0       ?setBottomView@SystemParams@@QAEX_N0@Z 004b8ed0 f   SystemParams.obj
 0001:000b7f10       ?setTitleNumberViewType@SystemParams@@QAEXD_N@Z 004b8f10 f   SystemParams.obj
 0001:000b82a0       ?setBottomNumberViewType@SystemParams@@QAEXD_N@Z 004b92a0 f   SystemParams.obj
 0001:000b8630       ?setParagraphNumberView@SystemParams@@QAEX_N0@Z 004b9630 f   SystemParams.obj
 0001:000b8670       ?setTidy@SystemParams@@QAEX_N@Z 004b9670 f   SystemParams.obj
 0001:000b86a0       ?setRowBottomLineType@SystemParams@@QAEXD@Z 004b96a0 f   SystemParams.obj
 0001:000b86c0       ?initParams@SystemParams@@QAEX_N@Z 004b96c0 f   SystemParams.obj
 0001:000b87a0       ?initTitleOrBottomPageNumber@SystemParams@@QAEX_N@Z 004b97a0 f   SystemParams.obj
 0001:000b8970       ?createTitleNumber@SystemParams@@QAEPAVViewObj@@PAVWriterManager@@H@Z 004b9970 f   SystemParams.obj
 0001:000b8ad0       ?createBottomNumber@SystemParams@@QAEPAVViewObj@@PAVWriterManager@@H@Z 004b9ad0 f   SystemParams.obj
 0001:000b8ba0       ?initTitleAndBottomView@SystemParams@@QAEXXZ 004b9ba0 f   SystemParams.obj
 0001:000b8c20       ?getVersionInt@SystemParams@@QAEHXZ 004b9c20 f   SystemParams.obj
 0001:000b8c40       ?saveUserInfo@SystemParams@@AAEXPAVBaseIOTools@@@Z 004b9c40 f   SystemParams.obj
 0001:000b8cb0       ?savePatientInfo@SystemParams@@AAEXPAVBaseIOTools@@@Z 004b9cb0 f   SystemParams.obj
 0001:000b8cd0       ?loadUserInfoList@SystemParams@@AAEXPAVBaseIOTools@@@Z 004b9cd0 f   SystemParams.obj
 0001:000b8da0       ?loadPatientInfo@SystemParams@@AAEXPAVBaseIOTools@@@Z 004b9da0 f   SystemParams.obj
 0001:000b8e60       ?saveFirstParamsWithDifferentVersions@SystemParams@@AAEXPAVBaseIOTools@@@Z 004b9e60 f   SystemParams.obj
 0001:000b8ee0       ?loadFirstParamsWithDifferentVersions@SystemParams@@AAEXPAVBaseIOTools@@@Z 004b9ee0 f   SystemParams.obj
 0001:000b8fc0       ?saveNormalParamsWithDifferentVersions@SystemParams@@AAEXPAVBaseIOTools@@@Z 004b9fc0 f   SystemParams.obj
 0001:000b9000       ?loadNormalParamsWithDifferentVersions@SystemParams@@AAEXPAVBaseIOTools@@@Z 004ba000 f   SystemParams.obj
 0001:000b90b0       ?setDestSaveVersion@SystemParams@@AAEXH@Z 004ba0b0 f   SystemParams.obj
 0001:000b90d0       ?showTitle@SystemParams@@AAEXXZ 004ba0d0 f   SystemParams.obj
 0001:000b9120       ?hideTitle@SystemParams@@AAEXXZ 004ba120 f   SystemParams.obj
 0001:000b9290       ?showBottom@SystemParams@@AAEXXZ 004ba290 f   SystemParams.obj
 0001:000b92e0       ?hideBottom@SystemParams@@AAEXXZ 004ba2e0 f   SystemParams.obj
 0001:000b9450       ?showParagraphNumber@SystemParams@@AAEXXZ 004ba450 f   SystemParams.obj
 0001:000b9480       ?hideParagraphNumber@SystemParams@@AAEXXZ 004ba480 f   SystemParams.obj
 0001:000b9e00       ??0?$QList@PAVUserInfo@@@@QAE@XZ 004bae00 f i SystemParams.obj
 0001:000b9e20       ??1?$QList@PAVUserInfo@@@@QAE@XZ 004bae20 f i SystemParams.obj
 0001:000b9e60       ??4?$QList@PAVUserInfo@@@@QAEAAV0@$$QAV0@@Z 004bae60 f i SystemParams.obj
 0001:000b9e90       ??_G?$QList@PAVUserInfo@@@@QAEPAXI@Z 004bae90 f i SystemParams.obj
 0001:000b9ed0       ??_GPatientInfo@@QAEPAXI@Z 004baed0 f i SystemParams.obj
 0001:000b9f10       ??_GUserInfo@@QAEPAXI@Z    004baf10 f i SystemParams.obj
 0001:000b9f50       ?append@?$QList@PAVUserInfo@@@@QAEXABQAVUserInfo@@@Z 004baf50 f i SystemParams.obj
 0001:000ba120       ?at@?$QList@PAVUserInfo@@@@QBEABQAVUserInfo@@H@Z 004bb120 f i SystemParams.obj
 0001:000ba1b0       ?clear@?$QList@PAVUserInfo@@@@QAEXXZ 004bb1b0 f i SystemParams.obj
 0001:000ba240       ?dealloc@?$QList@PAVUserInfo@@@@AAEXPAUData@QListData@@@Z 004bb240 f i SystemParams.obj
 0001:000ba290       ?detach_helper_grow@?$QList@PAVUserInfo@@@@AAEPAUNode@1@HH@Z 004bb290 f i SystemParams.obj
 0001:000ba490       ?indexOf@?$QList@PAVUserInfo@@@@QBEHABQAVUserInfo@@H@Z 004bb490 f i SystemParams.obj
 0001:000ba570       ?node_construct@?$QList@PAVUserInfo@@@@AAEXPAUNode@1@ABQAVUserInfo@@@Z 004bb570 f i SystemParams.obj
 0001:000ba630       ?node_copy@?$QList@PAVUserInfo@@@@AAEXPAUNode@1@00@Z 004bb630 f i SystemParams.obj
 0001:000ba880       ?node_destruct@?$QList@PAVUserInfo@@@@AAEXPAUNode@1@0@Z 004bb880 f i SystemParams.obj
 0001:000ba8f0       ?node_destruct@?$QList@PAVUserInfo@@@@AAEXPAUNode@1@@Z 004bb8f0 f i SystemParams.obj
 0001:000ba920       ?push_back@?$QList@PAVUserInfo@@@@QAEXABQAVUserInfo@@@Z 004bb920 f i SystemParams.obj
 0001:000ba940       ?size@?$QList@PAVUserInfo@@@@QBEHXZ 004bb940 f i SystemParams.obj
 0001:000ba960       ?t@Node@?$QList@PAVUserInfo@@@@QAEAAPAVUserInfo@@XZ 004bb960 f i SystemParams.obj
 0001:000ba990       ??0UIMsgSetSysBoolParams@@QAE@PAVWriterManager@@D_N@Z 004bb990 f   UIMsgSetSysBoolParams.obj
 0001:000ba9d0       ??1UIMsgSetSysBoolParams@@UAE@XZ 004bb9d0 f   UIMsgSetSysBoolParams.obj
 0001:000ba9f0       ?doAction@UIMsgSetSysBoolParams@@UAEXXZ 004bb9f0 f   UIMsgSetSysBoolParams.obj
 0001:000baad0       ??_GUIMsgSetSysBoolParams@@UAEPAXI@Z 004bbad0 f i UIMsgSetSysBoolParams.obj
 0001:000baad0       ??_EUIMsgSetSysBoolParams@@UAEPAXI@Z 004bbad0 f i UIMsgSetSysBoolParams.obj
 0001:000bab10       ??0UIMsgSetTxtBoolParams@@QAE@PAVWriterManager@@D_N@Z 004bbb10 f   UIMsgSetTxtBoolParams.obj
 0001:000bab50       ??1UIMsgSetTxtBoolParams@@UAE@XZ 004bbb50 f   UIMsgSetTxtBoolParams.obj
 0001:000bab70       ?doAction@UIMsgSetTxtBoolParams@@UAEXXZ 004bbb70 f   UIMsgSetTxtBoolParams.obj
 0001:000babf0       ??_GUIMsgSetTxtBoolParams@@UAEPAXI@Z 004bbbf0 f i UIMsgSetTxtBoolParams.obj
 0001:000babf0       ??_EUIMsgSetTxtBoolParams@@UAEPAXI@Z 004bbbf0 f i UIMsgSetTxtBoolParams.obj
 0001:000bac30       ??0UIMsgSetTxtIntParams@@QAE@PAVWriterManager@@DH@Z 004bbc30 f   UIMsgSetTxtIntParams.obj
 0001:000bac70       ??1UIMsgSetTxtIntParams@@UAE@XZ 004bbc70 f   UIMsgSetTxtIntParams.obj
 0001:000bac90       ?doAction@UIMsgSetTxtIntParams@@UAEXXZ 004bbc90 f   UIMsgSetTxtIntParams.obj
 0001:000bad70       ??_EUIMsgSetTxtIntParams@@UAEPAXI@Z 004bbd70 f i UIMsgSetTxtIntParams.obj
 0001:000bad70       ??_GUIMsgSetTxtIntParams@@UAEPAXI@Z 004bbd70 f i UIMsgSetTxtIntParams.obj
 0001:000badb0       ??0UIMsgSetTxtMultipleIntParams@@QAE@PAVWriterManager@@DPAV?$QList@H@@@Z 004bbdb0 f   UIMsgSetTxtMultipleIntParams.obj
 0001:000badf0       ??1UIMsgSetTxtMultipleIntParams@@UAE@XZ 004bbdf0 f   UIMsgSetTxtMultipleIntParams.obj
 0001:000bae90       ?doAction@UIMsgSetTxtMultipleIntParams@@UAEXXZ 004bbe90 f   UIMsgSetTxtMultipleIntParams.obj
 0001:000baf90       ??_EUIMsgSetTxtMultipleIntParams@@UAEPAXI@Z 004bbf90 f i UIMsgSetTxtMultipleIntParams.obj
 0001:000baf90       ??_GUIMsgSetTxtMultipleIntParams@@UAEPAXI@Z 004bbf90 f i UIMsgSetTxtMultipleIntParams.obj
 0001:000bafd0       ??0UIMsgSetTxtStrParams@@QAE@PAVWriterManager@@DVQString@@@Z 004bbfd0 f   UIMsgSetTxtStrParams.obj
 0001:000bb060       ??1UIMsgSetTxtStrParams@@UAE@XZ 004bc060 f   UIMsgSetTxtStrParams.obj
 0001:000bb0c0       ?doAction@UIMsgSetTxtStrParams@@UAEXXZ 004bc0c0 f   UIMsgSetTxtStrParams.obj
 0001:000bb160       ??_GUIMsgSetTxtStrParams@@UAEPAXI@Z 004bc160 f i UIMsgSetTxtStrParams.obj
 0001:000bb160       ??_EUIMsgSetTxtStrParams@@UAEPAXI@Z 004bc160 f i UIMsgSetTxtStrParams.obj
 0001:000bb1a0       ??0ActionFactory@@QAE@XZ   004bc1a0 f   ActionFactory.obj
 0001:000bb1b0       ??1ActionFactory@@QAE@XZ   004bc1b0 f   ActionFactory.obj
 0001:000bb1c0       ?pushAddObjAction@ActionFactory@@SAXPAVActionMgr@@PAVBaseContainer@@PAVViewObj@@D@Z 004bc1c0 f   ActionFactory.obj
 0001:000bb2b0       ?pushAddObjListAction@ActionFactory@@SAXPAVActionMgr@@PAV?$QList@PAVBaseContainer@@@@PAVViewObj@@D@Z 004bc2b0 f   ActionFactory.obj
 0001:000bb350       ?pushDelObjAction@ActionFactory@@SAXPAVActionMgr@@PAVBaseParagraph@@PAVViewObj@@PAVBaseContainer@@2D2D2D_N@Z 004bc350 f   ActionFactory.obj
 0001:000bb410       ?pushDelObjListAction@ActionFactory@@SAXPAVActionMgr@@PAVBaseParagraph@@PAVViewObj@@PAV?$QList@PAVBaseContainer@@@@_N2D2D2D4@Z 004bc410 f   ActionFactory.obj
 0001:000bb560       ?pushSetTxtNumParamAction@ActionFactory@@SAXPAVActionMgr@@PAV?$QList@PAVBaseContainer@@@@DH@Z 004bc560 f   ActionFactory.obj
 0001:000bb600       ?pushSetTxtMutipleNumParamAction@ActionFactory@@SAXPAVActionMgr@@PAV?$QList@PAVBaseContainer@@@@DHPAH@Z 004bc600 f   ActionFactory.obj
 0001:000bb6b0       ?pushSetTxtStrParamAction@ActionFactory@@SAXPAVActionMgr@@PAV?$QList@PAVBaseContainer@@@@DVQString@@@Z 004bc6b0 f   ActionFactory.obj
 0001:000bb770       ?pushSetParagraphIntParamAction@ActionFactory@@SAXPAVActionMgr@@PAV?$QList@PAVBaseContainer@@@@DHPAVViewObj@@D2D_N@Z 004bc770 f   ActionFactory.obj
 0001:000bb830       ?pushSetParagraphFloatParamAction@ActionFactory@@SAXPAVActionMgr@@PAV?$QList@PAVBaseContainer@@@@DMPAVViewObj@@D2D_N@Z 004bc830 f   ActionFactory.obj
 0001:000bb8f0       ?pushSetParagraphIndentParamAction@ActionFactory@@SAXPAVActionMgr@@PAV?$QList@PAVBaseContainer@@@@HHDHPAVViewObj@@D2D_N@Z 004bc8f0 f   ActionFactory.obj
 0001:000bb9b0       ?pushSetPageParamsAction@ActionFactory@@SAXPAVActionMgr@@_NFHHHHHH@Z 004bc9b0 f   ActionFactory.obj
 0001:000bba70       ?pushSetSysBoolParamAction@ActionFactory@@SAXPAVActionMgr@@D_N@Z 004bca70 f   ActionFactory.obj
 0001:000bbb10       ?pushSetSysIntParamAction@ActionFactory@@SAXPAVActionMgr@@DH@Z 004bcb10 f   ActionFactory.obj
 0001:000bbbb0       ?pushZoomImageParamAction@ActionFactory@@SAXPAVActionMgr@@PAVBaseViewParam@@HH@Z 004bcbb0 f   ActionFactory.obj
 0001:000bbf00       ??0DrawFactory@@QAE@XZ     004bcf00 f   DrawFactory.obj
 0001:000bbf10       ??1DrawFactory@@QAE@XZ     004bcf10 f   DrawFactory.obj
 0001:000bbf20       ?createDrawImageParam@DrawFactory@@SAPAVDrawImageParam@@PAVViewObj@@PAVNormalRowParam@@VQString@@@Z 004bcf20 f   DrawFactory.obj
 0001:000bbf40       ?createDrawImageParam@DrawFactory@@SAPAVDrawImageParam@@PAVViewObj@@VQString@@@Z 004bcf40 f   DrawFactory.obj
 0001:000bbf60       ?createImage@DrawFactory@@SAPAVDrawImage@@PAVViewObj@@PAVDrawImageParam@@@Z 004bcf60 f   DrawFactory.obj
 0001:000bbf70       ?createDrawRectParam@DrawFactory@@SAPAVDrawRectParam@@PAVViewObj@@DHHF@Z 004bcf70 f   DrawFactory.obj
 0001:000bbf80       ?createRect@DrawFactory@@SAPAVDrawRect@@PAVViewObj@@PAVDrawRectParam@@@Z 004bcf80 f   DrawFactory.obj
 0001:000bc090       ?createDrawRow@DrawFactory@@SAPAVDrawRow@@PAVViewObj@@PAVDrawRectParam@@@Z 004bd090 f   DrawFactory.obj
 0001:000bc0a0       ?createDrawTxtParam@DrawFactory@@SAPAVDrawTxtParam@@PAVViewObj@@VQString@@PAV2@@Z 004bd0a0 f   DrawFactory.obj
 0001:000bc0c0       ?createDrawTxtParam@DrawFactory@@SAPAVDrawTxtParam@@PAVWriterManager@@PAVViewObj@@VQString@@PAV2@@Z 004bd0c0 f   DrawFactory.obj
 0001:000bc0e0       ?createDrawTxt@DrawFactory@@SAPAVDrawStr@@PAVViewObj@@PAVDrawTxtParam@@@Z 004bd0e0 f   DrawFactory.obj
 0001:000bc0f0       ?createDrawExcelLine@DrawFactory@@SAPAVDrawLine@@PAVViewObj@@PAVQColor@@HW4PenStyle@Qt@@@Z 004bd0f0 f   DrawFactory.obj
 0001:000bc100       ?createDrawExcelLineParam@DrawFactory@@SAPAVDrawLineParam@@PAVViewObj@@PAVQColor@@HW4PenStyle@Qt@@@Z 004bd100 f   DrawFactory.obj
 0001:000bc110       ?createDraw@DrawFactory@@SAPAVBaseDraw@@PAVViewObj@@@Z 004bd110 f   DrawFactory.obj
 0001:000bc120       ?createDrawBaseImgButtonParam@DrawFactory@@SAPAVDrawBaseImgButtonParam@@PAVViewObj@@PAV?$QList@VQString@@@@@Z 004bd120 f   DrawFactory.obj
 0001:000bc130       ?createDrawBaseImgButton@DrawFactory@@SAPAVDrawBaseImgButton@@PAVViewObj@@PAVDrawBaseImgButtonParam@@@Z 004bd130 f   DrawFactory.obj
 0001:000bc140       ?createFreeLineDrawParam@DrawFactory@@CAPAVDrawFreeLineParam@@PAVViewObj@@HH@Z 004bd140 f   DrawFactory.obj
 0001:000bc1e0       ??0DelObjListAction@@QAE@PAVStepActionManger@@@Z 004bd1e0 f   DelObjListAction.obj
 0001:000bc2f0       ??1DelObjListAction@@UAE@XZ 004bd2f0 f   DelObjListAction.obj
 0001:000bc320       ?doAction@DelObjListAction@@QAEXPAVBaseParagraph@@PAVViewObj@@PAV?$QList@PAVBaseContainer@@@@1D1D1D_N@Z 004bd320 f   DelObjListAction.obj
 0001:000bc490       ?unDo@DelObjListAction@@UAEXXZ 004bd490 f   DelObjListAction.obj
 0001:000bc6d0       ?reDo@DelObjListAction@@UAEXXZ 004bd6d0 f   DelObjListAction.obj
 0001:000bc890       ??_EDelObjListAction@@UAEPAXI@Z 004bd890 f i DelObjListAction.obj
 0001:000bc890       ??_GDelObjListAction@@UAEPAXI@Z 004bd890 f i DelObjListAction.obj
 0001:000bc8d0       ?size@?$QList@PAVParagraphData@@@@QBEHXZ 004bd8d0 f i DelObjListAction.obj
 0001:000bc8f0       ??0SetSysBoolParamAction@@QAE@PAVStepActionManger@@@Z 004bd8f0 f   SetSysBoolParamAction.obj
 0001:000bc920       ??1SetSysBoolParamAction@@UAE@XZ 004bd920 f   SetSysBoolParamAction.obj
 0001:000bc940       ?doAction@SetSysBoolParamAction@@QAEXD_N@Z 004bd940 f   SetSysBoolParamAction.obj
 0001:000bc970       ?unDo@SetSysBoolParamAction@@UAEXXZ 004bd970 f   SetSysBoolParamAction.obj
 0001:000bc9a0       ?reDo@SetSysBoolParamAction@@UAEXXZ 004bd9a0 f   SetSysBoolParamAction.obj
 0001:000bc9d0       ?getPreValue@SetSysBoolParamAction@@AAE_NXZ 004bd9d0 f   SetSysBoolParamAction.obj
 0001:000bca40       ?setParamByType@SetSysBoolParamAction@@AAEXD_N@Z 004bda40 f   SetSysBoolParamAction.obj
 0001:000bcb20       ??_ESetSysBoolParamAction@@UAEPAXI@Z 004bdb20 f i SetSysBoolParamAction.obj
 0001:000bcb20       ??_GSetSysBoolParamAction@@UAEPAXI@Z 004bdb20 f i SetSysBoolParamAction.obj
 0001:000bcb60       ??0SetTxtMultipleNumParamAction@@QAE@PAVStepActionManger@@@Z 004bdb60 f   SetTxtMultipleNumParamAction.obj
 0001:000bcc40       ??1SetTxtMultipleNumParamAction@@UAE@XZ 004bdc40 f   SetTxtMultipleNumParamAction.obj
 0001:000bcc70       ?doAction@SetTxtMultipleNumParamAction@@QAEXPAV?$QList@PAVBaseContainer@@@@DHPAH@Z 004bdc70 f   SetTxtMultipleNumParamAction.obj
 0001:000bcfe0       ?unDo@SetTxtMultipleNumParamAction@@UAEXXZ 004bdfe0 f   SetTxtMultipleNumParamAction.obj
 0001:000bd5b0       ?reDo@SetTxtMultipleNumParamAction@@UAEXXZ 004be5b0 f   SetTxtMultipleNumParamAction.obj
 0001:000bd8c0       ?getPreValue@SetTxtMultipleNumParamAction@@AAEPAHPAVStrContentData@@@Z 004be8c0 f   SetTxtMultipleNumParamAction.obj
 0001:000bd990       ?setParamByType@SetTxtMultipleNumParamAction@@AAEXPAVStrContentData@@PAH@Z 004be990 f   SetTxtMultipleNumParamAction.obj
 0001:000bddc0       ??0?$QList@PAH@@QAE@XZ     004bedc0 f i SetTxtMultipleNumParamAction.obj
 0001:000bdde0       ??0?$QList@PAV?$QList@PAH@@@@QAE@XZ 004bede0 f i SetTxtMultipleNumParamAction.obj
 0001:000bde00       ??_GSetTxtMultipleNumParamAction@@UAEPAXI@Z 004bee00 f i SetTxtMultipleNumParamAction.obj
 0001:000bde00       ??_ESetTxtMultipleNumParamAction@@UAEPAXI@Z 004bee00 f i SetTxtMultipleNumParamAction.obj
 0001:000bde40       ?append@?$QList@PAH@@QAEXABQAH@Z 004bee40 f i SetTxtMultipleNumParamAction.obj
 0001:000be010       ?append@?$QList@PAV?$QList@PAH@@@@QAEXABQAV?$QList@PAH@@@Z 004bf010 f i SetTxtMultipleNumParamAction.obj
 0001:000be1e0       ?at@?$QList@PAH@@QBEABQAHH@Z 004bf1e0 f i SetTxtMultipleNumParamAction.obj
 0001:000be270       ?at@?$QList@PAV?$QList@PAH@@@@QBEABQAV?$QList@PAH@@H@Z 004bf270 f i SetTxtMultipleNumParamAction.obj
 0001:000be300       ?dealloc@?$QList@PAH@@AAEXPAUData@QListData@@@Z 004bf300 f i SetTxtMultipleNumParamAction.obj
 0001:000be350       ?dealloc@?$QList@PAV?$QList@PAH@@@@AAEXPAUData@QListData@@@Z 004bf350 f i SetTxtMultipleNumParamAction.obj
 0001:000be3a0       ?detach_helper_grow@?$QList@PAH@@AAEPAUNode@1@HH@Z 004bf3a0 f i SetTxtMultipleNumParamAction.obj
 0001:000be5a0       ?detach_helper_grow@?$QList@PAV?$QList@PAH@@@@AAEPAUNode@1@HH@Z 004bf5a0 f i SetTxtMultipleNumParamAction.obj
 0001:000be7a0       ?node_construct@?$QList@PAH@@AAEXPAUNode@1@ABQAH@Z 004bf7a0 f i SetTxtMultipleNumParamAction.obj
 0001:000be860       ?node_construct@?$QList@PAV?$QList@PAH@@@@AAEXPAUNode@1@ABQAV?$QList@PAH@@@Z 004bf860 f i SetTxtMultipleNumParamAction.obj
 0001:000be920       ?node_copy@?$QList@PAH@@AAEXPAUNode@1@00@Z 004bf920 f i SetTxtMultipleNumParamAction.obj
 0001:000beb70       ?node_copy@?$QList@PAV?$QList@PAH@@@@AAEXPAUNode@1@00@Z 004bfb70 f i SetTxtMultipleNumParamAction.obj
 0001:000bedc0       ?node_destruct@?$QList@PAH@@AAEXPAUNode@1@0@Z 004bfdc0 f i SetTxtMultipleNumParamAction.obj
 0001:000bee30       ?node_destruct@?$QList@PAH@@AAEXPAUNode@1@@Z 004bfe30 f i SetTxtMultipleNumParamAction.obj
 0001:000bee60       ?node_destruct@?$QList@PAV?$QList@PAH@@@@AAEXPAUNode@1@0@Z 004bfe60 f i SetTxtMultipleNumParamAction.obj
 0001:000beed0       ?node_destruct@?$QList@PAV?$QList@PAH@@@@AAEXPAUNode@1@@Z 004bfed0 f i SetTxtMultipleNumParamAction.obj
 0001:000bef00       ?push_back@?$QList@PAH@@QAEXABQAH@Z 004bff00 f i SetTxtMultipleNumParamAction.obj
 0001:000bef20       ?push_back@?$QList@PAV?$QList@PAH@@@@QAEXABQAV?$QList@PAH@@@Z 004bff20 f i SetTxtMultipleNumParamAction.obj
 0001:000bef40       ?t@Node@?$QList@PAH@@QAEAAPAHXZ 004bff40 f i SetTxtMultipleNumParamAction.obj
 0001:000bef70       ?t@Node@?$QList@PAV?$QList@PAH@@@@QAEAAPAV?$QList@PAH@@XZ 004bff70 f i SetTxtMultipleNumParamAction.obj
 0001:000befa0       ??0SetTxtNumParamAction@@QAE@PAVStepActionManger@@@Z 004bffa0 f   SetTxtNumParamAction.obj
 0001:000bf080       ??1SetTxtNumParamAction@@UAE@XZ 004c0080 f   SetTxtNumParamAction.obj
 0001:000bf0b0       ?doAction@SetTxtNumParamAction@@QAEXPAV?$QList@PAVBaseContainer@@@@DH@Z 004c00b0 f   SetTxtNumParamAction.obj
 0001:000bf4f0       ?unDo@SetTxtNumParamAction@@UAEXXZ 004c04f0 f   SetTxtNumParamAction.obj
 0001:000bfc60       ?reDo@SetTxtNumParamAction@@UAEXXZ 004c0c60 f   SetTxtNumParamAction.obj
 0001:000c0160       ?getPreValue@SetTxtNumParamAction@@AAEHPAVStrContentData@@@Z 004c1160 f   SetTxtNumParamAction.obj
 0001:000c0240       ?setParamByType@SetTxtNumParamAction@@AAEXPAVStrContentData@@DHAA_N@Z 004c1240 f   SetTxtNumParamAction.obj
 0001:000c08a0       ??0?$QList@PAV?$QList@H@@@@QAE@XZ 004c18a0 f i SetTxtNumParamAction.obj
 0001:000c08c0       ??_GSetTxtNumParamAction@@UAEPAXI@Z 004c18c0 f i SetTxtNumParamAction.obj
 0001:000c08c0       ??_ESetTxtNumParamAction@@UAEPAXI@Z 004c18c0 f i SetTxtNumParamAction.obj
 0001:000c0900       ?append@?$QList@PAV?$QList@H@@@@QAEXABQAV?$QList@H@@@Z 004c1900 f i SetTxtNumParamAction.obj
 0001:000c0ad0       ?at@?$QList@PAV?$QList@H@@@@QBEABQAV?$QList@H@@H@Z 004c1ad0 f i SetTxtNumParamAction.obj
 0001:000c0b60       ?dealloc@?$QList@PAV?$QList@H@@@@AAEXPAUData@QListData@@@Z 004c1b60 f i SetTxtNumParamAction.obj
 0001:000c0bb0       ?detach_helper_grow@?$QList@PAV?$QList@H@@@@AAEPAUNode@1@HH@Z 004c1bb0 f i SetTxtNumParamAction.obj
 0001:000c0db0       ?node_construct@?$QList@PAV?$QList@H@@@@AAEXPAUNode@1@ABQAV?$QList@H@@@Z 004c1db0 f i SetTxtNumParamAction.obj
 0001:000c0e70       ?node_copy@?$QList@PAV?$QList@H@@@@AAEXPAUNode@1@00@Z 004c1e70 f i SetTxtNumParamAction.obj
 0001:000c10c0       ?node_destruct@?$QList@PAV?$QList@H@@@@AAEXPAUNode@1@0@Z 004c20c0 f i SetTxtNumParamAction.obj
 0001:000c1130       ?node_destruct@?$QList@PAV?$QList@H@@@@AAEXPAUNode@1@@Z 004c2130 f i SetTxtNumParamAction.obj
 0001:000c1160       ?push_back@?$QList@PAV?$QList@H@@@@QAEXABQAV?$QList@H@@@Z 004c2160 f i SetTxtNumParamAction.obj
 0001:000c1180       ?t@Node@?$QList@PAV?$QList@H@@@@QAEAAPAV?$QList@H@@XZ 004c2180 f i SetTxtNumParamAction.obj
 0001:000c11b0       ??0SetTxtStrParamAction@@QAE@PAVStepActionManger@@@Z 004c21b0 f   SetTxtStrParamAction.obj
 0001:000c12a0       ??1SetTxtStrParamAction@@UAE@XZ 004c22a0 f   SetTxtStrParamAction.obj
 0001:000c1310       ?doAction@SetTxtStrParamAction@@QAEXPAV?$QList@PAVBaseContainer@@@@DVQString@@@Z 004c2310 f   SetTxtStrParamAction.obj
 0001:000c1850       ?unDo@SetTxtStrParamAction@@UAEXXZ 004c2850 f   SetTxtStrParamAction.obj
 0001:000c1fc0       ?reDo@SetTxtStrParamAction@@UAEXXZ 004c2fc0 f   SetTxtStrParamAction.obj
 0001:000c2430       ?getPreValue@SetTxtStrParamAction@@AAE?AVQString@@PAVBaseContentData@@@Z 004c3430 f   SetTxtStrParamAction.obj
 0001:000c2530       ?setParamByType@SetTxtStrParamAction@@AAEXPAVBaseContentData@@DVQString@@@Z 004c3530 f   SetTxtStrParamAction.obj
 0001:000c25c0       ?setParamByTypeAndFreshLayOut@SetTxtStrParamAction@@AAEXPAVBaseContentData@@DVQString@@PAVViewObj@@@Z 004c35c0 f   SetTxtStrParamAction.obj
 0001:000c2c50       ??0?$QList@PAV?$QList@VQString@@@@@@QAE@XZ 004c3c50 f i SetTxtStrParamAction.obj
 0001:000c2c70       ??_ESetTxtStrParamAction@@UAEPAXI@Z 004c3c70 f i SetTxtStrParamAction.obj
 0001:000c2c70       ??_GSetTxtStrParamAction@@UAEPAXI@Z 004c3c70 f i SetTxtStrParamAction.obj
 0001:000c2cb0       ?append@?$QList@PAV?$QList@VQString@@@@@@QAEXABQAV?$QList@VQString@@@@@Z 004c3cb0 f i SetTxtStrParamAction.obj
 0001:000c2e80       ?at@?$QList@PAV?$QList@VQString@@@@@@QBEABQAV?$QList@VQString@@@@H@Z 004c3e80 f i SetTxtStrParamAction.obj
 0001:000c2f10       ?dealloc@?$QList@PAV?$QList@VQString@@@@@@AAEXPAUData@QListData@@@Z 004c3f10 f i SetTxtStrParamAction.obj
 0001:000c2f60       ?detach_helper_grow@?$QList@PAV?$QList@VQString@@@@@@AAEPAUNode@1@HH@Z 004c3f60 f i SetTxtStrParamAction.obj
 0001:000c3160       ?length@?$QList@PAVBaseContainer@@@@QBEHXZ 004c4160 f i SetTxtStrParamAction.obj
 0001:000c3180       ?node_construct@?$QList@PAV?$QList@VQString@@@@@@AAEXPAUNode@1@ABQAV?$QList@VQString@@@@@Z 004c4180 f i SetTxtStrParamAction.obj
 0001:000c3240       ?node_copy@?$QList@PAV?$QList@VQString@@@@@@AAEXPAUNode@1@00@Z 004c4240 f i SetTxtStrParamAction.obj
 0001:000c3490       ?node_destruct@?$QList@PAV?$QList@VQString@@@@@@AAEXPAUNode@1@0@Z 004c4490 f i SetTxtStrParamAction.obj
 0001:000c3500       ?node_destruct@?$QList@PAV?$QList@VQString@@@@@@AAEXPAUNode@1@@Z 004c4500 f i SetTxtStrParamAction.obj
 0001:000c3530       ?push_back@?$QList@PAV?$QList@VQString@@@@@@QAEXABQAV?$QList@VQString@@@@@Z 004c4530 f i SetTxtStrParamAction.obj
 0001:000c3550       ?t@Node@?$QList@PAV?$QList@VQString@@@@@@QAEAAPAV?$QList@VQString@@@@XZ 004c4550 f i SetTxtStrParamAction.obj
 0001:000c3580       ??0DrawRowBottom@@QAE@PAVViewObj@@@Z 004c4580 f   DrawRowBottom.obj
 0001:000c35b0       ??1DrawRowBottom@@UAE@XZ   004c45b0 f   DrawRowBottom.obj
 0001:000c35d0       ?draw@DrawRowBottom@@UAE_NAAVQPainter@@HHHH@Z 004c45d0 f   DrawRowBottom.obj
 0001:000c3640       ?drawChildrenUnderline@DrawRowBottom@@AAEXAAVQPainter@@PAVRowViewParam@@HH@Z 004c4640 f   DrawRowBottom.obj
 0001:000c38b0       ?drawTxtBackgroundColor@DrawRowBottom@@AAEXAAVQPainter@@PAVRowViewParam@@HH@Z 004c48b0 f   DrawRowBottom.obj
 0001:000c3ab0       ?drawRound@DrawRowBottom@@AAEXAAVQPainter@@PAVRowViewParam@@HH@Z 004c4ab0 f   DrawRowBottom.obj
 0001:000c3d00       ??_EDrawRowBottom@@UAEPAXI@Z 004c4d00 f i DrawRowBottom.obj
 0001:000c3d00       ??_GDrawRowBottom@@UAEPAXI@Z 004c4d00 f i DrawRowBottom.obj
 0001:000c3d40       ??0DrawRowTop@@QAE@PAVViewObj@@@Z 004c4d40 f   DrawRowTop.obj
 0001:000c3d70       ??1DrawRowTop@@UAE@XZ      004c4d70 f   DrawRowTop.obj
 0001:000c3d90       ?draw@DrawRowTop@@UAE_NAAVQPainter@@HHHH@Z 004c4d90 f   DrawRowTop.obj
 0001:000c3de0       ?drawParagraphNum@DrawRowTop@@AAEXAAVQPainter@@HH@Z 004c4de0 f   DrawRowTop.obj
 0001:000c4050       ?drawChildrenMask@DrawRowTop@@AAEXAAVQPainter@@HHPAV?$QList@PAVBaseContainer@@@@@Z 004c5050 f   DrawRowTop.obj
 0001:000c4180       ?drawExcelCrossPageLine@DrawRowTop@@AAEXAAVQPainter@@HH@Z 004c5180 f   DrawRowTop.obj
 0001:000c44f0       ??_EDrawRowTop@@UAEPAXI@Z  004c54f0 f i DrawRowTop.obj
 0001:000c44f0       ??_GDrawRowTop@@UAEPAXI@Z  004c54f0 f i DrawRowTop.obj
 0001:000c4530       ??_GQFontMetrics@@QAEPAXI@Z 004c5530 f i DrawRowTop.obj
 0001:000c4570       ??0ButtonInput@@QAE@PAVViewObj@@@Z 004c5570 f   ButtonInput.obj
 0001:000c4610       ??0ButtonInput@@QAE@PAVViewObj@@PAVWriterManager@@VQString@@2@Z 004c5610 f   ButtonInput.obj
 0001:000c4720       ??1ButtonInput@@UAE@XZ     004c5720 f   ButtonInput.obj
 0001:000c47f0       ?init@ButtonInput@@QAEXH@Z 004c57f0 f   ButtonInput.obj
 0001:000c4990       ?setMiddleButtonParam@ButtonInput@@UAEHHHH@Z 004c5990 f   ButtonInput.obj
 0001:000c4b10       ?mousePress@ButtonInput@@UAEHHHH@Z 004c5b10 f   ButtonInput.obj
 0001:000c4be0       ?mouseRelease@ButtonInput@@UAEHHHH@Z 004c5be0 f   ButtonInput.obj
 0001:000c4c80       ?mouseMove@ButtonInput@@UAEHHHH@Z 004c5c80 f   ButtonInput.obj
 0001:000c4c90       ?mouseDrag@ButtonInput@@UAEHHHH@Z 004c5c90 f   ButtonInput.obj
 0001:000c4d80       ?mouseDoublePress@ButtonInput@@UAEHHHH@Z 004c5d80 f   ButtonInput.obj
 0001:000c4da0       ?mouseScroll@ButtonInput@@UAEHH@Z 004c5da0 f   ButtonInput.obj
 0001:000c4ea0       ?releaseFocusFromWindow@ButtonInput@@UAEXXZ 004c5ea0 f   ButtonInput.obj
 0001:000c4eb0       ?setScale@ButtonInput@@UAEXM@Z 004c5eb0 f   ButtonInput.obj
 0001:000c4ed0       ?changeMiddleButtonY@ButtonInput@@AAE_NM@Z 004c5ed0 f   ButtonInput.obj
 0001:000c5040       ?isBeyondScrollPanel@ButtonInput@@AAE_NAAMM@Z 004c6040 f   ButtonInput.obj
 0001:000c51e0       ?refleshPagePanel@ButtonInput@@AAEXM@Z 004c61e0 f   ButtonInput.obj
 0001:000c52c0       ?syncScale@ButtonInput@@AAEXXZ 004c62c0 f   ButtonInput.obj
 0001:000c56f0       ??0?$QVector@VQString@@@@QAE@XZ 004c66f0 f i ButtonInput.obj
 0001:000c5710       ??1?$QVector@VQString@@@@QAE@XZ 004c6710 f i ButtonInput.obj
 0001:000c5750       ??_EButtonInput@@UAEPAXI@Z 004c6750 f i ButtonInput.obj
 0001:000c5750       ??_GButtonInput@@UAEPAXI@Z 004c6750 f i ButtonInput.obj
 0001:000c5790       ?begin@?$QTypedArrayData@VQString@@@@QAEPAVQString@@PAV2@@Z 004c6790 f i ButtonInput.obj
 0001:000c57b0       ?data@?$QTypedArrayData@VQString@@@@QAEPAVQString@@XZ 004c67b0 f i ButtonInput.obj
 0001:000c57d0       ?deallocate@?$QTypedArrayData@VQString@@@@SAXPAUQArrayData@@@Z 004c67d0 f i ButtonInput.obj
 0001:000c57f0       ?destruct@?$QVector@VQString@@@@AAEXPAVQString@@0@Z 004c67f0 f i ButtonInput.obj
 0001:000c5840       ?end@?$QTypedArrayData@VQString@@@@QAEPAVQString@@PAV2@@Z 004c6840 f i ButtonInput.obj
 0001:000c5870       ?freeData@?$QVector@VQString@@@@AAEXPAU?$QTypedArrayData@VQString@@@@@Z 004c6870 f i ButtonInput.obj
 0001:000c58c0       ?sharedNull@?$QTypedArrayData@VQString@@@@SAPAU1@XZ 004c68c0 f i ButtonInput.obj
 0001:000c58d0       ??0ExcelCrossParentMgr@@QAE@PAVViewObj@@@Z 004c68d0 f   ExcelCrossParentMgr.obj
 0001:000c5980       ??1ExcelCrossParentMgr@@UAE@XZ 004c6980 f   ExcelCrossParentMgr.obj
 0001:000c59a0       ?setFirstParam@ExcelCrossParentMgr@@QAEXPAVViewObj@@HH@Z 004c69a0 f   ExcelCrossParentMgr.obj
 0001:000c5a30       ?pushParam@ExcelCrossParentMgr@@QAEXPAVViewObj@@H@Z 004c6a30 f   ExcelCrossParentMgr.obj
 0001:000c5aa0       ?clearParents@ExcelCrossParentMgr@@QAEX_N@Z 004c6aa0 f   ExcelCrossParentMgr.obj
 0001:000c5b40       ?clearParentsWithoutSource@ExcelCrossParentMgr@@QAEXPAVViewObj@@@Z 004c6b40 f   ExcelCrossParentMgr.obj
 0001:000c5bf0       ?clearParentsAfterSource@ExcelCrossParentMgr@@QAEXPAVViewObj@@@Z 004c6bf0 f   ExcelCrossParentMgr.obj
 0001:000c5cb0       ?getDisY@ExcelCrossParentMgr@@QAEHPAVViewObj@@@Z 004c6cb0 f   ExcelCrossParentMgr.obj
 0001:000c5d00       ?getSpendH@ExcelCrossParentMgr@@QAEHPAVViewObj@@@Z 004c6d00 f   ExcelCrossParentMgr.obj
 0001:000c5d90       ?getTotalPreSpendH@ExcelCrossParentMgr@@QAEHPAVViewObj@@@Z 004c6d90 f   ExcelCrossParentMgr.obj
 0001:000c5e20       ?clearParams@ExcelCrossParentMgr@@AAEXH@Z 004c6e20 f   ExcelCrossParentMgr.obj
 0001:000c5ff0       ??_GExcelCrossParentMgr@@UAEPAXI@Z 004c6ff0 f i ExcelCrossParentMgr.obj
 0001:000c5ff0       ??_EExcelCrossParentMgr@@UAEPAXI@Z 004c6ff0 f i ExcelCrossParentMgr.obj
 0001:000c6030       ?detach@?$QList@H@@QAEXXZ  004c7030 f i ExcelCrossParentMgr.obj
 0001:000c6060       ?detach@?$QList@PAVViewObj@@@@QAEXXZ 004c7060 f i ExcelCrossParentMgr.obj
 0001:000c6090       ?detach_helper@?$QList@H@@AAEXH@Z 004c7090 f i ExcelCrossParentMgr.obj
 0001:000c61b0       ?detach_helper@?$QList@H@@AAEXXZ 004c71b0 f i ExcelCrossParentMgr.obj
 0001:000c61e0       ?detach_helper@?$QList@PAVViewObj@@@@AAEXH@Z 004c71e0 f i ExcelCrossParentMgr.obj
 0001:000c6300       ?detach_helper@?$QList@PAVViewObj@@@@AAEXXZ 004c7300 f i ExcelCrossParentMgr.obj
 0001:000c6330       ?indexOf@?$QList@PAVViewObj@@@@QBEHABQAVViewObj@@H@Z 004c7330 f i ExcelCrossParentMgr.obj
 0001:000c6410       ?insert@?$QList@H@@QAEXHABH@Z 004c7410 f i ExcelCrossParentMgr.obj
 0001:000c65e0       ?removeAt@?$QList@H@@QAEXH@Z 004c75e0 f i ExcelCrossParentMgr.obj
 0001:000c6640       ?removeAt@?$QList@PAVViewObj@@@@QAEXH@Z 004c7640 f i ExcelCrossParentMgr.obj
 0001:000c66a0       ??0TxtWinLogicManager@@QAE@PAVBaseContainer@@@Z 004c76a0 f   TxtWinLogicManager.obj
 0001:000c66d0       ??1TxtWinLogicManager@@UAE@XZ 004c76d0 f   TxtWinLogicManager.obj
 0001:000c66f0       ?myUpdate@TxtWinLogicManager@@UAEHXZ 004c76f0 f   TxtWinLogicManager.obj
 0001:000c6760       ??_GTxtWinLogicManager@@UAEPAXI@Z 004c7760 f i TxtWinLogicManager.obj
 0001:000c6760       ??_ETxtWinLogicManager@@UAEPAXI@Z 004c7760 f i TxtWinLogicManager.obj
 0001:000c67a0       ??0HTMLDocument@@QAE@AAV?$QList@PAVhtmlBaseObj@@@@@Z 004c77a0 f   HtmlDocument.obj
 0001:000c6940       ?startHTML@HTMLDocument@@QAEXXZ 004c7940 f   HtmlDocument.obj
 0001:000c6960       ?endHTML@HTMLDocument@@QAEXXZ 004c7960 f   HtmlDocument.obj
 0001:000c6980       ?startHead@HTMLDocument@@QAEXXZ 004c7980 f   HtmlDocument.obj
 0001:000c69a0       ?endHead@HTMLDocument@@QAEXXZ 004c79a0 f   HtmlDocument.obj
 0001:000c69c0       ?insertTitle@HTMLDocument@@QAEXVQString@@@Z 004c79c0 f   HtmlDocument.obj
 0001:000c6a90       ?insertStyle@HTMLDocument@@QAEXH@Z 004c7a90 f   HtmlDocument.obj
 0001:000c6b50       ?startBody@HTMLDocument@@QAEXXZ 004c7b50 f   HtmlDocument.obj
 0001:000c6b70       ?endBody@HTMLDocument@@QAEXXZ 004c7b70 f   HtmlDocument.obj
 0001:000c6b90       ?insertLine@HTMLDocument@@QAEXPAVhtmlBaseObj@@@Z 004c7b90 f   HtmlDocument.obj
 0001:000c6d50       ?insertImage@HTMLDocument@@QAEXPAVhtmlBaseObj@@@Z 004c7d50 f   HtmlDocument.obj
 0001:000c6fe0       ?insertText@HTMLDocument@@QAEXPAVhtmlBaseObj@@@Z 004c7fe0 f   HtmlDocument.obj
 0001:000c7640       ?create@HTMLDocument@@SAPAV1@PAVMyAppEntrance@@@Z 004c8640 f   HtmlDocument.obj
 0001:000c77a0       ?createAndCompressed@HTMLDocument@@SAPAV1@PAVMyAppEntrance@@@Z 004c87a0 f   HtmlDocument.obj
 0001:000c7840       ?createAndCompressed@HTMLDocument@@SAXPAVMyAppEntrance@@AAVQString@@@Z 004c8840 f   HtmlDocument.obj
 0001:000c7e20       ??$?6DU?$char_traits@D@std@@V?$allocator@D@1@@std@@YAAAV?$basic_ostream@DU?$char_traits@D@std@@@0@AAV10@ABV?$basic_string@DU?$char_traits@D@std@@V?$allocator@D@2@@0@@Z 004c8e20 f i HtmlDocument.obj
 0001:000c81b0       ??$?6U?$char_traits@D@std@@@std@@YAAAV?$basic_ostream@DU?$char_traits@D@std@@@0@AAV10@PBD@Z 004c91b0 f i HtmlDocument.obj
 0001:000c85b0       ??$forward@V?$basic_string@DU?$char_traits@D@std@@V?$allocator@D@2@@std@@@std@@YA$$QAV?$basic_string@DU?$char_traits@D@std@@V?$allocator@D@2@@0@AAV10@@Z 004c95b0 f i HtmlDocument.obj
 0001:000c85c0       ??0?$QList@PAVhtmlBaseObj@@@@QAE@XZ 004c95c0 f i HtmlDocument.obj
 0001:000c85e0       ??0?$basic_string@DU?$char_traits@D@std@@V?$allocator@D@2@@std@@QAE@$$QAV01@@Z 004c95e0 f i HtmlDocument.obj
 0001:000c8640       ??0?$basic_string@DU?$char_traits@D@std@@V?$allocator@D@2@@std@@QAE@PBDI@Z 004c9640 f i HtmlDocument.obj
 0001:000c86e0       ??0?$basic_string@DU?$char_traits@D@std@@V?$allocator@D@2@@std@@QAE@XZ 004c96e0 f i HtmlDocument.obj
 0001:000c8760       ??0?$basic_stringbuf@DU?$char_traits@D@std@@V?$allocator@D@2@@std@@QAE@H@Z 004c9760 f i HtmlDocument.obj
 0001:000c8800       ??0?$basic_stringstream@DU?$char_traits@D@std@@V?$allocator@D@2@@std@@QAE@H@Z 004c9800 f i HtmlDocument.obj
 0001:000c8910       ??0?$fpos@H@std@@QAE@_J@Z  004c9910 f i HtmlDocument.obj
 0001:000c8960       ??0_Sentry_base@?$basic_ostream@DU?$char_traits@D@std@@@std@@QAE@AAV12@@Z 004c9960 f i HtmlDocument.obj
 0001:000c89e0       ??0sentry@?$basic_ostream@DU?$char_traits@D@std@@@std@@QAE@AAV12@@Z 004c99e0 f i HtmlDocument.obj
 0001:000c8ae0       ??1?$QList@PAVhtmlBaseObj@@@@QAE@XZ 004c9ae0 f i HtmlDocument.obj
 0001:000c8b20       ??1?$basic_string@DU?$char_traits@D@std@@V?$allocator@D@2@@std@@QAE@XZ 004c9b20 f i HtmlDocument.obj
 0001:000c8b50       ??1?$basic_stringbuf@DU?$char_traits@D@std@@V?$allocator@D@2@@std@@UAE@XZ 004c9b50 f i HtmlDocument.obj
 0001:000c8b80       ??1?$basic_stringstream@DU?$char_traits@D@std@@V?$allocator@D@2@@std@@UAE@XZ 004c9b80 f i HtmlDocument.obj
 0001:000c8bf0       ??1HTMLDocument@@UAE@XZ    004c9bf0 f i HtmlDocument.obj
 0001:000c8c60       ??1_Sentry_base@?$basic_ostream@DU?$char_traits@D@std@@@std@@QAE@XZ 004c9c60 f i HtmlDocument.obj
 0001:000c8cd0       ??1sentry@?$basic_ostream@DU?$char_traits@D@std@@@std@@QAE@XZ 004c9cd0 f i HtmlDocument.obj
 0001:000c8d10       ??4?$QList@PAVhtmlBaseObj@@@@QAEAAV0@$$QAV0@@Z 004c9d10 f i HtmlDocument.obj
 0001:000c8d40       ??A?$QList@PAVhtmlBaseObj@@@@QAEAAPAVhtmlBaseObj@@H@Z 004c9d40 f i HtmlDocument.obj
 0001:000c8dd0       ??B?$fpos@H@std@@QBE_JXZ   004c9dd0 f i HtmlDocument.obj
 0001:000c8e00       ??Bsentry@?$basic_ostream@DU?$char_traits@D@std@@@std@@QBE_NXZ 004c9e00 f i HtmlDocument.obj
 0001:000c8e20       ??_D?$basic_stringstream@DU?$char_traits@D@std@@V?$allocator@D@2@@std@@QAEXXZ 004c9e20 f i HtmlDocument.obj
 0001:000c8e4a       ??_E?$basic_stringstream@DU?$char_traits@D@std@@V?$allocator@D@2@@std@@$4PPPPPPPM@A@AEPAXI@Z 004c9e4a f i HtmlDocument.obj
 0001:000c8e60       ??_G?$basic_stringbuf@DU?$char_traits@D@std@@V?$allocator@D@2@@std@@UAEPAXI@Z 004c9e60 f i HtmlDocument.obj
 0001:000c8e60       ??_E?$basic_stringbuf@DU?$char_traits@D@std@@V?$allocator@D@2@@std@@UAEPAXI@Z 004c9e60 f i HtmlDocument.obj
 0001:000c8ea0       ??_G?$basic_stringstream@DU?$char_traits@D@std@@V?$allocator@D@2@@std@@UAEPAXI@Z 004c9ea0 f i HtmlDocument.obj
 0001:000c8ea0       ??_E?$basic_stringstream@DU?$char_traits@D@std@@V?$allocator@D@2@@std@@UAEPAXI@Z 004c9ea0 f i HtmlDocument.obj
 0001:000c8ef0       ??_GHTMLDocument@@UAEPAXI@Z 004c9ef0 f i HtmlDocument.obj
 0001:000c8ef0       ??_EHTMLDocument@@UAEPAXI@Z 004c9ef0 f i HtmlDocument.obj
 0001:000c8f30       ?_Assign_rv@?$basic_string@DU?$char_traits@D@std@@V?$allocator@D@2@@std@@QAEX$$QAV12@@Z 004c9f30 f i HtmlDocument.obj
 0001:000c8fe0       ?_Getstate@?$basic_stringbuf@DU?$char_traits@D@std@@V?$allocator@D@2@@std@@AAEHH@Z 004c9fe0 f i HtmlDocument.obj
 0001:000c9060       ?_Init@?$basic_stringbuf@DU?$char_traits@D@std@@V?$allocator@D@2@@std@@IAEXPBDIH@Z 004ca060 f i HtmlDocument.obj
 0001:000c91b0       ?_Tidy@?$basic_stringbuf@DU?$char_traits@D@std@@V?$allocator@D@2@@std@@IAEXXZ 004ca1b0 f i HtmlDocument.obj
 0001:000c9270       ?at@?$QList@PAVhtmlBaseObj@@@@QBEABQAVhtmlBaseObj@@H@Z 004ca270 f i HtmlDocument.obj
 0001:000c9300       ?c_str@?$basic_string@DU?$char_traits@D@std@@V?$allocator@D@2@@std@@QBEPBDXZ 004ca300 f i HtmlDocument.obj
 0001:000c9320       ?clear@?$QList@PAVhtmlBaseObj@@@@QAEXXZ 004ca320 f i HtmlDocument.obj
 0001:000c93b0       ?dealloc@?$QList@PAVhtmlBaseObj@@@@AAEXPAUData@QListData@@@Z 004ca3b0 f i HtmlDocument.obj
 0001:000c9400       ?detach@?$QList@PAVhtmlBaseObj@@@@QAEXXZ 004ca400 f i HtmlDocument.obj
 0001:000c9430       ?detach_helper@?$QList@PAVhtmlBaseObj@@@@AAEXH@Z 004ca430 f i HtmlDocument.obj
 0001:000c9550       ?detach_helper@?$QList@PAVhtmlBaseObj@@@@AAEXXZ 004ca550 f i HtmlDocument.obj
 0001:000c9580       ?eof@?$char_traits@D@std@@SAHXZ 004ca580 f i HtmlDocument.obj
 0001:000c9590       ?eq@?$char_traits@D@std@@SA_NABD0@Z 004ca590 f i HtmlDocument.obj
 0001:000c95d0       ?eq_int_type@?$char_traits@D@std@@SA_NABH0@Z 004ca5d0 f i HtmlDocument.obj
 0001:000c9600       ?node_copy@?$QList@PAVhtmlBaseObj@@@@AAEXPAUNode@1@00@Z 004ca600 f i HtmlDocument.obj
 0001:000c9850       ?node_destruct@?$QList@PAVhtmlBaseObj@@@@AAEXPAUNode@1@0@Z 004ca850 f i HtmlDocument.obj
 0001:000c98c0       ?not_eof@?$char_traits@D@std@@SAHABH@Z 004ca8c0 f i HtmlDocument.obj
 0001:000c9920       ?overflow@?$basic_stringbuf@DU?$char_traits@D@std@@V?$allocator@D@2@@std@@MAEHH@Z 004ca920 f i HtmlDocument.obj
 0001:000c9cd0       ?pbackfail@?$basic_stringbuf@DU?$char_traits@D@std@@V?$allocator@D@2@@std@@MAEHH@Z 004cacd0 f i HtmlDocument.obj
 0001:000c9e00       ?seekoff@?$basic_stringbuf@DU?$char_traits@D@std@@V?$allocator@D@2@@std@@MAE?AV?$fpos@H@2@_JHH@Z 004cae00 f i HtmlDocument.obj
 0001:000ca170       ?seekpos@?$basic_stringbuf@DU?$char_traits@D@std@@V?$allocator@D@2@@std@@MAE?AV?$fpos@H@2@V32@H@Z 004cb170 f i HtmlDocument.obj
 0001:000ca3f0       ?size@?$QList@PAVhtmlBaseObj@@@@QBEHXZ 004cb3f0 f i HtmlDocument.obj
 0001:000ca410       ?str@?$basic_stringbuf@DU?$char_traits@D@std@@V?$allocator@D@2@@std@@QAEXABV?$basic_string@DU?$char_traits@D@std@@V?$allocator@D@2@@2@@Z 004cb410 f i HtmlDocument.obj
 0001:000ca460       ?str@?$basic_stringbuf@DU?$char_traits@D@std@@V?$allocator@D@2@@std@@QBE?AV?$basic_string@DU?$char_traits@D@std@@V?$allocator@D@2@@2@XZ 004cb460 f i HtmlDocument.obj
 0001:000ca600       ?str@?$basic_stringstream@DU?$char_traits@D@std@@V?$allocator@D@2@@std@@QAEXABV?$basic_string@DU?$char_traits@D@std@@V?$allocator@D@2@@2@@Z 004cb600 f i HtmlDocument.obj
 0001:000ca630       ?str@?$basic_stringstream@DU?$char_traits@D@std@@V?$allocator@D@2@@std@@QBE?AV?$basic_string@DU?$char_traits@D@std@@V?$allocator@D@2@@2@XZ 004cb630 f i HtmlDocument.obj
 0001:000ca670       ?t@Node@?$QList@PAVhtmlBaseObj@@@@QAEAAPAVhtmlBaseObj@@XZ 004cb670 f i HtmlDocument.obj
 0001:000ca6a0       ?to_char_type@?$char_traits@D@std@@SADABH@Z 004cb6a0 f i HtmlDocument.obj
 0001:000ca6b0       ?to_int_type@?$char_traits@D@std@@SAHABD@Z 004cb6b0 f i HtmlDocument.obj
 0001:000ca6c0       ?tr@HTMLDocument@@SA?AVQString@@PBD0H@Z 004cb6c0 f i HtmlDocument.obj
 0001:000ca710       ?underflow@?$basic_stringbuf@DU?$char_traits@D@std@@V?$allocator@D@2@@std@@MAEHXZ 004cb710 f i HtmlDocument.obj
 0001:000ca850       ??0AddObjListAction@@QAE@PAVStepActionManger@@@Z 004cb850 f   AddObjListAction.obj
 0001:000ca910       ??1AddObjListAction@@UAE@XZ 004cb910 f   AddObjListAction.obj
 0001:000ca940       ?doAction@AddObjListAction@@QAEXPAV?$QList@PAVBaseContainer@@@@PAVViewObj@@D@Z 004cb940 f   AddObjListAction.obj
 0001:000caa90       ?unDo@AddObjListAction@@UAEXXZ 004cba90 f   AddObjListAction.obj
 0001:000cab70       ?reDo@AddObjListAction@@UAEXXZ 004cbb70 f   AddObjListAction.obj
 0001:000caef0       ??_EAddObjListAction@@UAEPAXI@Z 004cbef0 f i AddObjListAction.obj
 0001:000caef0       ??_GAddObjListAction@@UAEPAXI@Z 004cbef0 f i AddObjListAction.obj
 0001:000caf30       ??0BaseAction@@QAE@PAVStepActionManger@@H@Z 004cbf30 f   BaseAction.obj
 0001:000cafc0       ?initPressStartAndEndParam@BaseAction@@QAEXXZ 004cbfc0 f   BaseAction.obj
 0001:000cb0a0       ?setPressStartAndEndParam@BaseAction@@QAEXPAVFlagParam@@0@Z 004cc0a0 f   BaseAction.obj
 0001:000cb0e0       ??1BaseAction@@UAE@XZ      004cc0e0 f   BaseAction.obj
 0001:000cb260       ??_EBaseAction@@UAEPAXI@Z  004cc260 f i BaseAction.obj
 0001:000cb260       ??_GBaseAction@@UAEPAXI@Z  004cc260 f i BaseAction.obj
 0001:000cb2a0       ??0htmlBaseObj@@QAE@H@Z    004cc2a0 f   htmlBaseObj.obj
 0001:000cb3a0       ??1htmlBaseObj@@UAE@XZ     004cc3a0 f   htmlBaseObj.obj
 0001:000cb450       ?setType@htmlBaseObj@@QAEXD@Z 004cc450 f   htmlBaseObj.obj
 0001:000cb470       ?getType@htmlBaseObj@@QAEDXZ 004cc470 f   htmlBaseObj.obj
 0001:000cb490       ?setStr@htmlBaseObj@@QAEXVQString@@@Z 004cc490 f   htmlBaseObj.obj
 0001:000cb4f0       ?getStr@htmlBaseObj@@QAE?AVQString@@XZ 004cc4f0 f   htmlBaseObj.obj
 0001:000cb530       ?setPicturePath@htmlBaseObj@@QAEXVQString@@@Z 004cc530 f   htmlBaseObj.obj
 0001:000cb590       ?getPicturePath@htmlBaseObj@@QAE?AVQString@@XZ 004cc590 f   htmlBaseObj.obj
 0001:000cb5d0       ?setWidth@htmlBaseObj@@QAEXH@Z 004cc5d0 f   htmlBaseObj.obj
 0001:000cb600       ?getWidth@htmlBaseObj@@QAEHXZ 004cc600 f   htmlBaseObj.obj
 0001:000cb620       ?setHeight@htmlBaseObj@@QAEXH@Z 004cc620 f   htmlBaseObj.obj
 0001:000cb640       ?getHeight@htmlBaseObj@@QAEHXZ 004cc640 f   htmlBaseObj.obj
 0001:000cb660       ?setStartPoint@htmlBaseObj@@QAEXHH@Z 004cc660 f   htmlBaseObj.obj
 0001:000cb6a0       ?setEndPoint@htmlBaseObj@@QAEXHH@Z 004cc6a0 f   htmlBaseObj.obj
 0001:000cb6e0       ?getStartPoint@htmlBaseObj@@QAE?AVQPoint@@XZ 004cc6e0 f   htmlBaseObj.obj
 0001:000cb710       ?getEndPoint@htmlBaseObj@@QAE?AVQPoint@@XZ 004cc710 f   htmlBaseObj.obj
 0001:000cb740       ?setFontSize@htmlBaseObj@@QAEXH@Z 004cc740 f   htmlBaseObj.obj
 0001:000cb760       ?getFontSize@htmlBaseObj@@QAEHXZ 004cc760 f   htmlBaseObj.obj
 0001:000cb780       ?setFontColor@htmlBaseObj@@QAEXVQColor@@@Z 004cc780 f   htmlBaseObj.obj
 0001:000cb7a0       ?getFontColor@htmlBaseObj@@QAE?AVQColor@@XZ 004cc7a0 f   htmlBaseObj.obj
 0001:000cb7c0       ?setX@htmlBaseObj@@QAEXH@Z 004cc7c0 f   htmlBaseObj.obj
 0001:000cb7f0       ?setY@htmlBaseObj@@QAEXH@Z 004cc7f0 f   htmlBaseObj.obj
 0001:000cb810       ?setItalic@htmlBaseObj@@QAEX_N@Z 004cc810 f   htmlBaseObj.obj
 0001:000cb830       ?getItalic@htmlBaseObj@@QAE_NXZ 004cc830 f   htmlBaseObj.obj
 0001:000cb850       ?getX@htmlBaseObj@@QAEHXZ  004cc850 f   htmlBaseObj.obj
 0001:000cb870       ?getY@htmlBaseObj@@QAEHXZ  004cc870 f   htmlBaseObj.obj
 0001:000cb890       ?setBold@htmlBaseObj@@QAEX_N@Z 004cc890 f   htmlBaseObj.obj
 0001:000cb8b0       ?getBold@htmlBaseObj@@QAE_NXZ 004cc8b0 f   htmlBaseObj.obj
 0001:000cb8d0       ?getByteArray@htmlBaseObj@@QAEPAVQByteArray@@XZ 004cc8d0 f   htmlBaseObj.obj
 0001:000cbb10       ??_GQByteArray@@QAEPAXI@Z  004ccb10 f i htmlBaseObj.obj
 0001:000cbb50       ??_GhtmlBaseObj@@UAEPAXI@Z 004ccb50 f i htmlBaseObj.obj
 0001:000cbb50       ??_EhtmlBaseObj@@UAEPAXI@Z 004ccb50 f i htmlBaseObj.obj
 0001:000cbb90       ??0ActionMgr@@QAE@PAVOperateMgr@@@Z 004ccb90 f   ActionMgr.obj
 0001:000cbc50       ??1ActionMgr@@UAE@XZ       004ccc50 f   ActionMgr.obj
 0001:000cbcd0       ?getCurIndex@ActionMgr@@QAEHXZ 004cccd0 f   ActionMgr.obj
 0001:000cbcf0       ?createNewAction@ActionMgr@@QAEXXZ 004cccf0 f   ActionMgr.obj
 0001:000cbe40       ?delAction@ActionMgr@@QAEXXZ 004cce40 f   ActionMgr.obj
 0001:000cbec0       ?clearAllAction@ActionMgr@@QAEXXZ 004ccec0 f   ActionMgr.obj
 0001:000cbee0       ?deleteAllAction@ActionMgr@@QAEXXZ 004ccee0 f   ActionMgr.obj
 0001:000cbfb0       ?addAction@ActionMgr@@QAEXPAVBaseAction@@@Z 004ccfb0 f   ActionMgr.obj
 0001:000cbff0       ?getCurStepMgr@ActionMgr@@QAEPAVStepActionManger@@XZ 004ccff0 f   ActionMgr.obj
 0001:000cc010       ?getCurActionList@ActionMgr@@QAEPAV?$QList@PAVBaseAction@@@@XZ 004cd010 f   ActionMgr.obj
 0001:000cc040       ?getCurLastAction@ActionMgr@@QAEPAVBaseAction@@XZ 004cd040 f   ActionMgr.obj
 0001:000cc070       ?addToLocalAction@ActionMgr@@QAEXPAVBaseAction@@@Z 004cd070 f   ActionMgr.obj
 0001:000cc0b0       ?addToLocalActionAt@ActionMgr@@QAEXPAVBaseAction@@H@Z 004cd0b0 f   ActionMgr.obj
 0001:000cc0f0       ?undo@ActionMgr@@QAE_N_N@Z 004cd0f0 f   ActionMgr.obj
 0001:000cc1b0       ?redo@ActionMgr@@QAE_NXZ   004cd1b0 f   ActionMgr.obj
 0001:000cc4b0       ??0?$QList@PAVStepActionManger@@@@QAE@XZ 004cd4b0 f i ActionMgr.obj
 0001:000cc4d0       ??1?$QList@PAVStepActionManger@@@@QAE@XZ 004cd4d0 f i ActionMgr.obj
 0001:000cc510       ??4?$QList@PAVStepActionManger@@@@QAEAAV0@$$QAV0@@Z 004cd510 f i ActionMgr.obj
 0001:000cc540       ??_G?$QList@PAVStepActionManger@@@@QAEPAXI@Z 004cd540 f i ActionMgr.obj
 0001:000cc580       ??_EActionMgr@@UAEPAXI@Z   004cd580 f i ActionMgr.obj
 0001:000cc580       ??_GActionMgr@@UAEPAXI@Z   004cd580 f i ActionMgr.obj
 0001:000cc5c0       ?append@?$QList@PAVStepActionManger@@@@QAEXABQAVStepActionManger@@@Z 004cd5c0 f i ActionMgr.obj
 0001:000cc790       ?at@?$QList@PAVStepActionManger@@@@QBEABQAVStepActionManger@@H@Z 004cd790 f i ActionMgr.obj
 0001:000cc820       ?clear@?$QList@PAVStepActionManger@@@@QAEXXZ 004cd820 f i ActionMgr.obj
 0001:000cc8b0       ?dealloc@?$QList@PAVStepActionManger@@@@AAEXPAUData@QListData@@@Z 004cd8b0 f i ActionMgr.obj
 0001:000cc900       ?detach@?$QList@PAVStepActionManger@@@@QAEXXZ 004cd900 f i ActionMgr.obj
 0001:000cc930       ?detach_helper@?$QList@PAVStepActionManger@@@@AAEXH@Z 004cd930 f i ActionMgr.obj
 0001:000cca50       ?detach_helper@?$QList@PAVStepActionManger@@@@AAEXXZ 004cda50 f i ActionMgr.obj
 0001:000cca80       ?detach_helper_grow@?$QList@PAVStepActionManger@@@@AAEPAUNode@1@HH@Z 004cda80 f i ActionMgr.obj
 0001:000ccc80       ?node_construct@?$QList@PAVStepActionManger@@@@AAEXPAUNode@1@ABQAVStepActionManger@@@Z 004cdc80 f i ActionMgr.obj
 0001:000ccd40       ?node_copy@?$QList@PAVStepActionManger@@@@AAEXPAUNode@1@00@Z 004cdd40 f i ActionMgr.obj
 0001:000ccf90       ?node_destruct@?$QList@PAVStepActionManger@@@@AAEXPAUNode@1@0@Z 004cdf90 f i ActionMgr.obj
 0001:000cd000       ?node_destruct@?$QList@PAVStepActionManger@@@@AAEXPAUNode@1@@Z 004ce000 f i ActionMgr.obj
 0001:000cd030       ?push_back@?$QList@PAVStepActionManger@@@@QAEXABQAVStepActionManger@@@Z 004ce030 f i ActionMgr.obj
 0001:000cd050       ?removeAt@?$QList@PAVStepActionManger@@@@QAEXH@Z 004ce050 f i ActionMgr.obj
 0001:000cd0b0       ?size@?$QList@PAVStepActionManger@@@@QBEHXZ 004ce0b0 f i ActionMgr.obj
 0001:000cd0d0       ?t@Node@?$QList@PAVStepActionManger@@@@QAEAAPAVStepActionManger@@XZ 004ce0d0 f i ActionMgr.obj
 0001:000cd100       ??0StepActionManger@@QAE@PAVOperateMgr@@@Z 004ce100 f   StepActionManger.obj
 0001:000cd1b0       ??1StepActionManger@@UAE@XZ 004ce1b0 f   StepActionManger.obj
 0001:000cd250       ?getOperateMgr@StepActionManger@@QAEPAVOperateMgr@@XZ 004ce250 f   StepActionManger.obj
 0001:000cd270       ?haveUsed@StepActionManger@@QAE_NXZ 004ce270 f   StepActionManger.obj
 0001:000cd290       ?setHaveUsed@StepActionManger@@QAEX_N@Z 004ce290 f   StepActionManger.obj
 0001:000cd2b0       ?unDo@StepActionManger@@QAEXXZ 004ce2b0 f   StepActionManger.obj
 0001:000cd360       ?reDo@StepActionManger@@QAEXXZ 004ce360 f   StepActionManger.obj
 0001:000cd410       ?addAction@StepActionManger@@QAEXPAVBaseAction@@H@Z 004ce410 f   StepActionManger.obj
 0001:000cd4f0       ?clearLocalAction@StepActionManger@@QAEXPAV?$QList@PAVBaseAction@@@@@Z 004ce4f0 f   StepActionManger.obj
 0001:000cd520       ?getActionList@StepActionManger@@QAEPAV?$QList@PAV?$QList@PAVBaseAction@@@@@@XZ 004ce520 f   StepActionManger.obj
 0001:000cd540       ?getLastAction@StepActionManger@@QAEPAVBaseAction@@XZ 004ce540 f   StepActionManger.obj
 0001:000cd590       ?getLocaltionAction@StepActionManger@@QAEPAV?$QList@PAVBaseAction@@@@XZ 004ce590 f   StepActionManger.obj
 0001:000cd7e0       ??0?$QList@PAV?$QList@PAVBaseAction@@@@@@QAE@XZ 004ce7e0 f i StepActionManger.obj
 0001:000cd800       ??0?$QList@PAVBaseAction@@@@QAE@XZ 004ce800 f i StepActionManger.obj
 0001:000cd820       ??0iterator@?$QList@PAVBaseAction@@@@QAE@PAUNode@1@@Z 004ce820 f i StepActionManger.obj
 0001:000cd840       ??1?$QList@PAV?$QList@PAVBaseAction@@@@@@QAE@XZ 004ce840 f i StepActionManger.obj
 0001:000cd880       ??1?$QList@PAVBaseAction@@@@QAE@XZ 004ce880 f i StepActionManger.obj
 0001:000cd8c0       ??4?$QList@PAVBaseAction@@@@QAEAAV0@$$QAV0@@Z 004ce8c0 f i StepActionManger.obj
 0001:000cd8f0       ??Diterator@?$QList@PAVBaseAction@@@@QBEAAPAVBaseAction@@XZ 004ce8f0 f i StepActionManger.obj
 0001:000cd910       ??Fiterator@?$QList@PAVBaseAction@@@@QAEAAV01@XZ 004ce910 f i StepActionManger.obj
 0001:000cd940       ??_G?$QList@PAV?$QList@PAVBaseAction@@@@@@QAEPAXI@Z 004ce940 f i StepActionManger.obj
 0001:000cd980       ??_G?$QList@PAVBaseAction@@@@QAEPAXI@Z 004ce980 f i StepActionManger.obj
 0001:000cd9c0       ??_GStepActionManger@@UAEPAXI@Z 004ce9c0 f i StepActionManger.obj
 0001:000cd9c0       ??_EStepActionManger@@UAEPAXI@Z 004ce9c0 f i StepActionManger.obj
 0001:000cda00       ?append@?$QList@PAV?$QList@PAVBaseAction@@@@@@QAEXABQAV?$QList@PAVBaseAction@@@@@Z 004cea00 f i StepActionManger.obj
 0001:000cdbd0       ?append@?$QList@PAVBaseAction@@@@QAEXABQAVBaseAction@@@Z 004cebd0 f i StepActionManger.obj
 0001:000cdda0       ?at@?$QList@PAV?$QList@PAVBaseAction@@@@@@QBEABQAV?$QList@PAVBaseAction@@@@H@Z 004ceda0 f i StepActionManger.obj
 0001:000cde30       ?at@?$QList@PAVBaseAction@@@@QBEABQAVBaseAction@@H@Z 004cee30 f i StepActionManger.obj
 0001:000cdec0       ?clear@?$QList@PAVBaseAction@@@@QAEXXZ 004ceec0 f i StepActionManger.obj
 0001:000cdf50       ?dealloc@?$QList@PAV?$QList@PAVBaseAction@@@@@@AAEXPAUData@QListData@@@Z 004cef50 f i StepActionManger.obj
 0001:000cdfa0       ?dealloc@?$QList@PAVBaseAction@@@@AAEXPAUData@QListData@@@Z 004cefa0 f i StepActionManger.obj
 0001:000cdff0       ?detach@?$QList@PAVBaseAction@@@@QAEXXZ 004ceff0 f i StepActionManger.obj
 0001:000ce020       ?detach_helper@?$QList@PAVBaseAction@@@@AAEXH@Z 004cf020 f i StepActionManger.obj
 0001:000ce140       ?detach_helper@?$QList@PAVBaseAction@@@@AAEXXZ 004cf140 f i StepActionManger.obj
 0001:000ce170       ?detach_helper_grow@?$QList@PAV?$QList@PAVBaseAction@@@@@@AAEPAUNode@1@HH@Z 004cf170 f i StepActionManger.obj
 0001:000ce370       ?detach_helper_grow@?$QList@PAVBaseAction@@@@AAEPAUNode@1@HH@Z 004cf370 f i StepActionManger.obj
 0001:000ce570       ?end@?$QList@PAVBaseAction@@@@QAE?AViterator@1@XZ 004cf570 f i StepActionManger.obj
 0001:000ce5b0       ?isEmpty@?$QList@PAVBaseAction@@@@QBE_NXZ 004cf5b0 f i StepActionManger.obj
 0001:000ce5d0       ?last@?$QList@PAVBaseAction@@@@QAEAAPAVBaseAction@@XZ 004cf5d0 f i StepActionManger.obj
 0001:000ce650       ?node_construct@?$QList@PAV?$QList@PAVBaseAction@@@@@@AAEXPAUNode@1@ABQAV?$QList@PAVBaseAction@@@@@Z 004cf650 f i StepActionManger.obj
 0001:000ce710       ?node_construct@?$QList@PAVBaseAction@@@@AAEXPAUNode@1@ABQAVBaseAction@@@Z 004cf710 f i StepActionManger.obj
 0001:000ce7d0       ?node_copy@?$QList@PAV?$QList@PAVBaseAction@@@@@@AAEXPAUNode@1@00@Z 004cf7d0 f i StepActionManger.obj
 0001:000cea20       ?node_copy@?$QList@PAVBaseAction@@@@AAEXPAUNode@1@00@Z 004cfa20 f i StepActionManger.obj
 0001:000cec70       ?node_destruct@?$QList@PAV?$QList@PAVBaseAction@@@@@@AAEXPAUNode@1@0@Z 004cfc70 f i StepActionManger.obj
 0001:000cece0       ?node_destruct@?$QList@PAV?$QList@PAVBaseAction@@@@@@AAEXPAUNode@1@@Z 004cfce0 f i StepActionManger.obj
 0001:000ced10       ?node_destruct@?$QList@PAVBaseAction@@@@AAEXPAUNode@1@0@Z 004cfd10 f i StepActionManger.obj
 0001:000ced80       ?node_destruct@?$QList@PAVBaseAction@@@@AAEXPAUNode@1@@Z 004cfd80 f i StepActionManger.obj
 0001:000cedb0       ?push_back@?$QList@PAV?$QList@PAVBaseAction@@@@@@QAEXABQAV?$QList@PAVBaseAction@@@@@Z 004cfdb0 f i StepActionManger.obj
 0001:000cedd0       ?push_back@?$QList@PAVBaseAction@@@@QAEXABQAVBaseAction@@@Z 004cfdd0 f i StepActionManger.obj
 0001:000cedf0       ?size@?$QList@PAV?$QList@PAVBaseAction@@@@@@QBEHXZ 004cfdf0 f i StepActionManger.obj
 0001:000cee10       ?size@?$QList@PAVBaseAction@@@@QBEHXZ 004cfe10 f i StepActionManger.obj
 0001:000cee30       ?t@Node@?$QList@PAV?$QList@PAVBaseAction@@@@@@QAEAAPAV?$QList@PAVBaseAction@@@@XZ 004cfe30 f i StepActionManger.obj
 0001:000cee60       ?t@Node@?$QList@PAVBaseAction@@@@QAEAAPAVBaseAction@@XZ 004cfe60 f i StepActionManger.obj
 0001:000cee90       ??0BaseScaleParam@@QAE@PAVViewObj@@H@Z 004cfe90 f   BaseScaleParam.obj
 0001:000cef20       ??0BaseScaleParam@@QAE@PAVViewObj@@PAV0@@Z 004cff20 f   BaseScaleParam.obj
 0001:000cefc0       ??1BaseScaleParam@@UAE@XZ  004cffc0 f   BaseScaleParam.obj
 0001:000cefe0       ?init@BaseScaleParam@@AAEXXZ 004cffe0 f   BaseScaleParam.obj
 0001:000cf090       ?judgeStart@BaseScaleParam@@QAEXHH@Z 004d0090 f   BaseScaleParam.obj
 0001:000cf1c0       ?doScale@BaseScaleParam@@QAEXHH@Z 004d01c0 f   BaseScaleParam.obj
 0001:000cf3c0       ?judgeStop@BaseScaleParam@@QAEXHH@Z 004d03c0 f   BaseScaleParam.obj
 0001:000cf530       ?getStartPointType@BaseScaleParam@@QAEHXZ 004d0530 f   BaseScaleParam.obj
 0001:000cf550       ?getDestW@BaseScaleParam@@QAEHXZ 004d0550 f   BaseScaleParam.obj
 0001:000cf570       ?getDestH@BaseScaleParam@@QAEHXZ 004d0570 f   BaseScaleParam.obj
 0001:000cf590       ?getParam@BaseScaleParam@@QAEXAAH000@Z 004d0590 f   BaseScaleParam.obj
 0001:000cf620       ?replaceRow@BaseScaleParam@@QAEXXZ 004d0620 f   BaseScaleParam.obj
 0001:000cf6f0       ?Updata@BaseScaleParam@@QAEXXZ 004d06f0 f   BaseScaleParam.obj
 0001:000cf9e0       ??_GBaseScaleParam@@UAEPAXI@Z 004d09e0 f i BaseScaleParam.obj
 0001:000cf9e0       ??_EBaseScaleParam@@UAEPAXI@Z 004d09e0 f i BaseScaleParam.obj
 0001:000cfa20       ??0LayoutReplaceData@@QAE@H@Z 004d0a20 f   LayoutReplaceData.obj
 0001:000cfac0       ??1LayoutReplaceData@@QAE@XZ 004d0ac0 f   LayoutReplaceData.obj
 0001:000cfb20       ?isDestLayout@LayoutReplaceData@@QAE_NH@Z 004d0b20 f   LayoutReplaceData.obj
 0001:000cfb50       ?pushLayout@LayoutReplaceData@@QAEXPAVBaseLayout@@@Z 004d0b50 f   LayoutReplaceData.obj
 0001:000cfc00       ?clearLayout@LayoutReplaceData@@QAEXXZ 004d0c00 f   LayoutReplaceData.obj
 0001:000cfc20       ?replaceLayout@LayoutReplaceData@@QAEXXZ 004d0c20 f   LayoutReplaceData.obj
 0001:000cfd30       ??0?$QList@PAVBaseLayout@@@@QAE@XZ 004d0d30 f i LayoutReplaceData.obj
 0001:000cfd50       ??1?$QList@PAVBaseLayout@@@@QAE@XZ 004d0d50 f i LayoutReplaceData.obj
 0001:000cfd90       ??4?$QList@PAVBaseLayout@@@@QAEAAV0@$$QAV0@@Z 004d0d90 f i LayoutReplaceData.obj
 0001:000cfdc0       ??_G?$QList@PAVBaseLayout@@@@QAEPAXI@Z 004d0dc0 f i LayoutReplaceData.obj
 0001:000cfe00       ?append@?$QList@PAVBaseLayout@@@@QAEXABQAVBaseLayout@@@Z 004d0e00 f i LayoutReplaceData.obj
 0001:000cffd0       ?at@?$QList@PAVBaseLayout@@@@QBEABQAVBaseLayout@@H@Z 004d0fd0 f i LayoutReplaceData.obj
 0001:000d0060       ?clear@?$QList@PAVBaseLayout@@@@QAEXXZ 004d1060 f i LayoutReplaceData.obj
 0001:000d00f0       ?dealloc@?$QList@PAVBaseLayout@@@@AAEXPAUData@QListData@@@Z 004d10f0 f i LayoutReplaceData.obj
 0001:000d0140       ?detach_helper_grow@?$QList@PAVBaseLayout@@@@AAEPAUNode@1@HH@Z 004d1140 f i LayoutReplaceData.obj
 0001:000d0340       ?indexOf@?$QList@PAVBaseLayout@@@@QBEHABQAVBaseLayout@@H@Z 004d1340 f i LayoutReplaceData.obj
 0001:000d0420       ?node_construct@?$QList@PAVBaseLayout@@@@AAEXPAUNode@1@ABQAVBaseLayout@@@Z 004d1420 f i LayoutReplaceData.obj
 0001:000d04e0       ?node_copy@?$QList@PAVBaseLayout@@@@AAEXPAUNode@1@00@Z 004d14e0 f i LayoutReplaceData.obj
 0001:000d0730       ?node_destruct@?$QList@PAVBaseLayout@@@@AAEXPAUNode@1@0@Z 004d1730 f i LayoutReplaceData.obj
 0001:000d07a0       ?node_destruct@?$QList@PAVBaseLayout@@@@AAEXPAUNode@1@@Z 004d17a0 f i LayoutReplaceData.obj
 0001:000d07d0       ?push_back@?$QList@PAVBaseLayout@@@@QAEXABQAVBaseLayout@@@Z 004d17d0 f i LayoutReplaceData.obj
 0001:000d07f0       ?size@?$QList@PAVBaseLayout@@@@QBEHXZ 004d17f0 f i LayoutReplaceData.obj
 0001:000d0810       ?t@Node@?$QList@PAVBaseLayout@@@@QAEAAPAVBaseLayout@@XZ 004d1810 f i LayoutReplaceData.obj
 0001:000d0840       ??0LayoutReplaceManager@@QAE@XZ 004d1840 f   LayoutReplaceManager.obj
 0001:000d09e0       ??1LayoutReplaceManager@@QAE@XZ 004d19e0 f   LayoutReplaceManager.obj
 0001:000d0a10       ?pushLayout@LayoutReplaceManager@@QAEXPAVBaseLayout@@@Z 004d1a10 f   LayoutReplaceManager.obj
 0001:000d0aa0       ?replaceLayout@LayoutReplaceManager@@QAEXXZ 004d1aa0 f   LayoutReplaceManager.obj
 0001:000d0cc0       ??0?$QList@PAVLayoutReplaceData@@@@QAE@XZ 004d1cc0 f i LayoutReplaceManager.obj
 0001:000d0ce0       ??1?$QList@PAVLayoutReplaceData@@@@QAE@XZ 004d1ce0 f i LayoutReplaceManager.obj
 0001:000d0d20       ??4?$QList@PAVLayoutReplaceData@@@@QAEAAV0@$$QAV0@@Z 004d1d20 f i LayoutReplaceManager.obj
 0001:000d0d50       ??_G?$QList@PAVLayoutReplaceData@@@@QAEPAXI@Z 004d1d50 f i LayoutReplaceManager.obj
 0001:000d0d90       ??_GLayoutReplaceData@@QAEPAXI@Z 004d1d90 f i LayoutReplaceManager.obj
 0001:000d0dd0       ?append@?$QList@PAVLayoutReplaceData@@@@QAEXABQAVLayoutReplaceData@@@Z 004d1dd0 f i LayoutReplaceManager.obj
 0001:000d0fa0       ?at@?$QList@PAVLayoutReplaceData@@@@QBEABQAVLayoutReplaceData@@H@Z 004d1fa0 f i LayoutReplaceManager.obj
 0001:000d1030       ?clear@?$QList@PAVLayoutReplaceData@@@@QAEXXZ 004d2030 f i LayoutReplaceManager.obj
 0001:000d10c0       ?dealloc@?$QList@PAVLayoutReplaceData@@@@AAEXPAUData@QListData@@@Z 004d20c0 f i LayoutReplaceManager.obj
 0001:000d1110       ?detach_helper_grow@?$QList@PAVLayoutReplaceData@@@@AAEPAUNode@1@HH@Z 004d2110 f i LayoutReplaceManager.obj
 0001:000d1310       ?node_construct@?$QList@PAVLayoutReplaceData@@@@AAEXPAUNode@1@ABQAVLayoutReplaceData@@@Z 004d2310 f i LayoutReplaceManager.obj
 0001:000d13d0       ?node_copy@?$QList@PAVLayoutReplaceData@@@@AAEXPAUNode@1@00@Z 004d23d0 f i LayoutReplaceManager.obj
 0001:000d1620       ?node_destruct@?$QList@PAVLayoutReplaceData@@@@AAEXPAUNode@1@0@Z 004d2620 f i LayoutReplaceManager.obj
 0001:000d1690       ?node_destruct@?$QList@PAVLayoutReplaceData@@@@AAEXPAUNode@1@@Z 004d2690 f i LayoutReplaceManager.obj
 0001:000d16c0       ?push_back@?$QList@PAVLayoutReplaceData@@@@QAEXABQAVLayoutReplaceData@@@Z 004d26c0 f i LayoutReplaceManager.obj
 0001:000d16e0       ?size@?$QList@PAVLayoutReplaceData@@@@QBEHXZ 004d26e0 f i LayoutReplaceManager.obj
 0001:000d1700       ?t@Node@?$QList@PAVLayoutReplaceData@@@@QAEAAPAVLayoutReplaceData@@XZ 004d2700 f i LayoutReplaceManager.obj
 0001:000d1730       ??0InputFactory@@QAE@XZ    004d2730 f   InputFactory.obj
 0001:000d1740       ??1InputFactory@@QAE@XZ    004d2740 f   InputFactory.obj
 0001:000d1750       ?createButtonInput@InputFactory@@SAPAVBaseButtonMouse@@PAVViewObj@@PAVDrawBaseImgButtonParam@@@Z 004d2750 f   InputFactory.obj
 0001:000d1780       ?createImgMouse@InputFactory@@SAPAVImgMouse@@PAVViewObj@@@Z 004d2780 f   InputFactory.obj
 0001:000d1790       ?createPageContentTxtLayerMouse@InputFactory@@SAPAVBaseTxtLayerMouse@@PAVViewObj@@@Z 004d2790 f   InputFactory.obj
 0001:000d17a0       ?createPageTitleOrBottomTxtLayerMouse@InputFactory@@SAPAVTitleOrBottomTxtLayerMouse@@PAVViewObj@@@Z 004d27a0 f   InputFactory.obj
 0001:000d17b0       ?createEidtImgWindowTxtLayerMouse@InputFactory@@SAPAVEditImgWindowTxtLayerMouse@@PAVViewObj@@@Z 004d27b0 f   InputFactory.obj
 0001:000d17c0       ?createEditImgPageMouse@InputFactory@@SAPAVEditImgPageMouse@@PAVViewObj@@@Z 004d27c0 f   InputFactory.obj
 0001:000d17d0       ?createEditImgWindowMouse@InputFactory@@SAPAVEditImgWindowMouse@@PAVViewObj@@@Z 004d27d0 f   InputFactory.obj
 0001:000d17e0       ?createTxtWindowMouse@InputFactory@@SAPAVBaseTxtWindowMouse@@PAVViewObj@@@Z 004d27e0 f   InputFactory.obj
 0001:000d17f0       ?createBaseWinKey@InputFactory@@SAPAVBaseWinKey@@PAVViewObj@@@Z 004d27f0 f   InputFactory.obj
 0001:000d1800       ?createInputFilter@InputFactory@@SAPAVInputFilter@@PAVTextWidget@@@Z 004d2800 f   InputFactory.obj
 0001:000d1890       ?createNumberInputFilter@InputFactory@@SAPAVNumberInputFilter@@PAVTextWidget@@@Z 004d2890 f   InputFactory.obj
 0001:000d1920       ?createTextWidgetMouse@InputFactory@@SAPAVTextWidgetMouse@@PAVBaseTemplate@@@Z 004d2920 f   InputFactory.obj
 0001:000d19b0       ?createTextWidgetKeyboard@InputFactory@@SAPAVTextWidgetKeyboard@@PAVBaseTemplate@@@Z 004d29b0 f   InputFactory.obj
 0001:000d1a30       ?createBrackWidgetKeyboard@InputFactory@@SAPAVBracketWidgetKeyboard@@PAVBaseTemplate@@@Z 004d2a30 f   InputFactory.obj
 0001:000d1b90       ??0BaseParagraph@@QAE@PAVWriterManager@@PAVParagraphManager@@H@Z 004d2b90 f   BaseParagraph.obj
 0001:000d1bd0       ??0BaseParagraph@@QAE@PAVWriterManager@@PAVParagraphManager@@PAV0@@Z 004d2bd0 f   BaseParagraph.obj
 0001:000d1c10       ??1BaseParagraph@@UAE@XZ   004d2c10 f   BaseParagraph.obj
 0001:000d1c40       ?initParagraphMgr@BaseParagraph@@QAEXPAVParagraphManager@@@Z 004d2c40 f   BaseParagraph.obj
 0001:000d1c70       ?getParagraphMgr@BaseParagraph@@QAEPAVParagraphManager@@XZ 004d2c70 f   BaseParagraph.obj
 0001:000d1c90       ?refreshChildrenParagraphIndex@BaseParagraph@@QAEXH@Z 004d2c90 f   BaseParagraph.obj
 0001:000d1d00       ?isFirstParagraph@BaseParagraph@@QAE_NXZ 004d2d00 f   BaseParagraph.obj
 0001:000d1d30       ?isLastParagraph@BaseParagraph@@QAE_NXZ 004d2d30 f   BaseParagraph.obj
 0001:000d1d70       ?getIndexFromParagraphMgr@BaseParagraph@@QAEHXZ 004d2d70 f   BaseParagraph.obj
 0001:000d1da0       ?setIndexFromParagraphMgr@BaseParagraph@@QAEXH@Z 004d2da0 f   BaseParagraph.obj
 0001:000d1dc0       ?getNextParagraph@BaseParagraph@@QAEPAV1@XZ 004d2dc0 f   BaseParagraph.obj
 0001:000d1ec0       ??_GBaseParagraph@@UAEPAXI@Z 004d2ec0 f i BaseParagraph.obj
 0001:000d1ec0       ??_EBaseParagraph@@UAEPAXI@Z 004d2ec0 f i BaseParagraph.obj
 0001:000d1f00       ??0TempContainerMgr@@QAE@PAVBaseContainer@@PAVParagraphManager@@H@Z 004d2f00 f   TempContainerMgr.obj
 0001:000d1f40       ??0TempContainerMgr@@QAE@PAVBaseContainer@@PAVParagraphManager@@PAV0@@Z 004d2f40 f   TempContainerMgr.obj
 0001:000d1f80       ??1TempContainerMgr@@UAE@XZ 004d2f80 f   TempContainerMgr.obj
 0001:000d1fb0       ?getParagraphMgr@TempContainerMgr@@QAEPAVParagraphManager@@XZ 004d2fb0 f   TempContainerMgr.obj
 0001:000d1fd0       ?judgeCanOperate@TempContainerMgr@@UAE_NXZ 004d2fd0 f   TempContainerMgr.obj
 0001:000d1fe0       ?addChild@TempContainerMgr@@UAE_NPAVBaseContainer@@H_N@Z 004d2fe0 f   TempContainerMgr.obj
 0001:000d2010       ?addChild@TempContainerMgr@@UAE_NPAVBaseContainer@@H_NPAV?$QList@PAVParagraphData@@@@H@Z 004d3010 f   TempContainerMgr.obj
 0001:000d2070       ?addChildren@TempContainerMgr@@UAEXPAV?$QList@PAVBaseContainer@@@@HHH_N@Z 004d3070 f   TempContainerMgr.obj
 0001:000d20b0       ?addChildren@TempContainerMgr@@UAEXPAV?$QList@PAVBaseContainer@@@@HHH_NPAV?$QList@PAVParagraphData@@@@H@Z 004d30b0 f   TempContainerMgr.obj
 0001:000d2130       ?delChild@TempContainerMgr@@UAEHPAVBaseContainer@@_N@Z 004d3130 f   TempContainerMgr.obj
 0001:000d21f0       ?delChildren@TempContainerMgr@@UAEHHH_N@Z 004d31f0 f   TempContainerMgr.obj
 0001:000d22c0       ?addAllChildrenToParagraphAndView@TempContainerMgr@@QAEX_N@Z 004d32c0 f   TempContainerMgr.obj
 0001:000d2330       ?addRecordChildrenToParagraphAndView@TempContainerMgr@@QAEXPAVViewObj@@@Z 004d3330 f   TempContainerMgr.obj
 0001:000d2360       ?delRecordChildrenToParagraphAndView@TempContainerMgr@@QAEXXZ 004d3360 f   TempContainerMgr.obj
 0001:000d2380       ?setParagraphManager@TempContainerMgr@@QAEXPAVParagraphManager@@@Z 004d3380 f   TempContainerMgr.obj
 0001:000d24c0       ??_ETempContainerMgr@@UAEPAXI@Z 004d34c0 f i TempContainerMgr.obj
 0001:000d24c0       ??_GTempContainerMgr@@UAEPAXI@Z 004d34c0 f i TempContainerMgr.obj
 0001:000d2500       ??0ParagraphData@@QAE@PAVBaseContainer@@@Z 004d3500 f   ParagraphData.obj
 0001:000d2570       ??0ParagraphData@@QAE@PAVBaseContainer@@PAV0@@Z 004d3570 f   ParagraphData.obj
 0001:000d25e0       ??1ParagraphData@@UAE@XZ   004d35e0 f   ParagraphData.obj
 0001:000d2600       ?init@ParagraphData@@UAEXXZ 004d3600 f   ParagraphData.obj
 0001:000d2680       ?init@ParagraphData@@QAEXPAV1@@Z 004d3680 f   ParagraphData.obj
 0001:000d2730       ?saveSelfData@ParagraphData@@MAEXPAVBaseIOTools@@@Z 004d3730 f   ParagraphData.obj
 0001:000d27c0       ?loadSelfData@ParagraphData@@MAEXPAVBaseIOTools@@@Z 004d37c0 f   ParagraphData.obj
 0001:000d2860       ?isSameParagraphParamsExceptAlignType@ParagraphData@@QAE_NPAV1@@Z 004d3860 f   ParagraphData.obj
 0001:000d28e0       ?setParagraphDataWithOutAlignTypeBySource@ParagraphData@@QAEXPAV1@@Z 004d38e0 f   ParagraphData.obj
 0001:000d2950       ?getParagraphDisTop@ParagraphData@@QAEMXZ 004d3950 f   ParagraphData.obj
 0001:000d2970       ?getParagraphDisBottom@ParagraphData@@QAEMXZ 004d3970 f   ParagraphData.obj
 0001:000d2990       ?getRowDisHTimes@ParagraphData@@QAEMXZ 004d3990 f   ParagraphData.obj
 0001:000d29b0       ?getRowDisHValue@ParagraphData@@QAEMXZ 004d39b0 f   ParagraphData.obj
 0001:000d29d0       ?getInsideLeft@ParagraphData@@QAEHXZ 004d39d0 f   ParagraphData.obj
 0001:000d29f0       ?getInsideRight@ParagraphData@@QAEHXZ 004d39f0 f   ParagraphData.obj
 0001:000d2a10       ?getIndentValue@ParagraphData@@QAEHXZ 004d3a10 f   ParagraphData.obj
 0001:000d2a30       ?getIndentType@ParagraphData@@QAEDXZ 004d3a30 f   ParagraphData.obj
 0001:000d2a50       ?getHorizonAlignType@ParagraphData@@QAEDXZ 004d3a50 f   ParagraphData.obj
 0001:000d2a70       ?setHorizonAlignType@ParagraphData@@QAE_ND_N@Z 004d3a70 f   ParagraphData.obj
 0001:000d2ab0       ?setRowDisHTimes@ParagraphData@@QAE_NM_N@Z 004d3ab0 f   ParagraphData.obj
 0001:000d2b40       ?setInsideLeft@ParagraphData@@QAE_NH_N@Z 004d3b40 f   ParagraphData.obj
 0001:000d2b80       ?setInsideRight@ParagraphData@@QAE_NH_N@Z 004d3b80 f   ParagraphData.obj
 0001:000d2bc0       ?setIndentParam@ParagraphData@@QAE_NHHDH_N@Z 004d3bc0 f   ParagraphData.obj
 0001:000d2c40       ?judgeLessOrMoreRowList@ParagraphData@@QAEXXZ 004d3c40 f   ParagraphData.obj
 0001:000d2ca0       ?replaceRowAignType@ParagraphData@@QAEXXZ 004d3ca0 f   ParagraphData.obj
 0001:000d2f80       ?addTxtLayerToReplaceList@ParagraphData@@QAEXXZ 004d3f80 f   ParagraphData.obj
 0001:000d3420       ??_EParagraphData@@UAEPAXI@Z 004d4420 f i ParagraphData.obj
 0001:000d3420       ??_GParagraphData@@UAEPAXI@Z 004d4420 f i ParagraphData.obj
 0001:000d3460       ??0FlagParam@@QAE@XZ       004d4460 f   FlagParam.obj
 0001:000d3480       ??1FlagParam@@QAE@XZ       004d4480 f   FlagParam.obj
 0001:000d34a0       ?isSame@FlagParam@@QAE_NPAV1@@Z 004d44a0 f   FlagParam.obj
 0001:000d34e0       ?getFocusObj@FlagParam@@QAEPAVViewObj@@XZ 004d44e0 f   FlagParam.obj
 0001:000d34f0       ?getDirection@FlagParam@@QAEDXZ 004d44f0 f   FlagParam.obj
 0001:000d3510       ?setParam@FlagParam@@QAEXPAVViewObj@@D@Z 004d4510 f   FlagParam.obj
 0001:000d3530       ?setParam@FlagParam@@QAEXPAV1@@Z 004d4530 f   FlagParam.obj
 0001:000d3590       ??0ParagraphManager@@QAE@PAVBaseTemplate@@@Z 004d4590 f   ParagraphManager.obj
 0001:000d3650       ??0ParagraphManager@@QAE@PAVBaseTemplate@@PAV0@@Z 004d4650 f   ParagraphManager.obj
 0001:000d3790       ??1ParagraphManager@@UAE@XZ 004d4790 f   ParagraphManager.obj
 0001:000d3810       ?getTempParent@ParagraphManager@@QAEPAVBaseTemplate@@XZ 004d4810 f   ParagraphManager.obj
 0001:000d3830       ?addNode@ParagraphManager@@QAEXPAVBaseContainer@@_NPAV?$QList@PAVParagraphData@@@@H1@Z 004d4830 f   ParagraphManager.obj
 0001:000d38a0       ?addChild@ParagraphManager@@QAEXPAVBaseContainer@@_NPAV?$QList@PAVParagraphData@@@@H1@Z 004d48a0 f   ParagraphManager.obj
 0001:000d3940       ?addChildren@ParagraphManager@@QAEXPAV?$QList@PAVBaseContainer@@@@_NPAV?$QList@PAVParagraphData@@@@H1@Z 004d4940 f   ParagraphManager.obj
 0001:000d3980       ?addChildren@ParagraphManager@@QAEXPAV?$QList@PAVBaseContainer@@@@HH_NPAV?$QList@PAVParagraphData@@@@H1@Z 004d4980 f   ParagraphManager.obj
 0001:000d3a00       ?addChildren@ParagraphManager@@QAEXPAV?$QList@PAVBaseContainer@@@@HH_NPAV?$QList@PAVParagraphData@@@@H11@Z 004d4a00 f   ParagraphManager.obj
 0001:000d3a80       ?addRecordChildren@ParagraphManager@@QAEXPAV?$QList@PAVBaseContainer@@@@PAVViewObj@@@Z 004d4a80 f   ParagraphManager.obj
 0001:000d3af0       ?delRecordChildren@ParagraphManager@@QAEXPAV?$QList@PAVBaseContainer@@@@@Z 004d4af0 f   ParagraphManager.obj
 0001:000d3b80       ?delChild@ParagraphManager@@QAEXPAVBaseContainer@@_N1@Z 004d4b80 f   ParagraphManager.obj
 0001:000d3bf0       ?delChildren@ParagraphManager@@QAEXPAV?$QList@PAVBaseContainer@@@@HH_N1@Z 004d4bf0 f   ParagraphManager.obj
 0001:000d3cb0       ?addParagraph@ParagraphManager@@QAEXPAVBaseParagraph@@H_N@Z 004d4cb0 f   ParagraphManager.obj
 0001:000d3d50       ?delParagraph@ParagraphManager@@QAEXPAVBaseParagraph@@_N@Z 004d4d50 f   ParagraphManager.obj
 0001:000d3da0       ?getFirstLayer@ParagraphManager@@QAEPAVViewObj@@XZ 004d4da0 f   ParagraphManager.obj
 0001:000d3ee0       ?setExcelParagrphManager@ParagraphManager@@QAEXXZ 004d4ee0 f   ParagraphManager.obj
 0001:000d3f00       ?getParagraphList@ParagraphManager@@QAEPAV?$QList@PAVBaseParagraph@@@@XZ 004d4f00 f   ParagraphManager.obj
 0001:000d3f20       ?getParagrapAt@ParagraphManager@@QAEPAVBaseParagraph@@H@Z 004d4f20 f   ParagraphManager.obj
 0001:000d3f70       ?refreshChildrenIndex@ParagraphManager@@QAEXH@Z 004d4f70 f   ParagraphManager.obj
 0001:000d3fd0       ?addExchangeRecordChildren@ParagraphManager@@AAEXPAV?$QList@PAV?$QList@PAVBaseContainer@@@@@@PAV?$QList@PAVBaseContainer@@@@PAVViewObj@@@Z 004d4fd0 f   ParagraphManager.obj
 0001:000d41f0       ?delExchangeRecordChildren@ParagraphManager@@AAEXPAV?$QList@PAV?$QList@PAVBaseContainer@@@@@@PAV?$QList@PAVBaseContainer@@@@@Z 004d51f0 f   ParagraphManager.obj
 0001:000d47b0       ?addExchangeNode@ParagraphManager@@AAEXPAV?$QList@PAV?$QList@PAVBaseContainer@@@@@@PAV?$QList@PAVBaseContainer@@@@_NPAV?$QList@PAVParagraphData@@@@H2@Z 004d57b0 f   ParagraphManager.obj
 0001:000d4bc0       ?addExchangeChildren@ParagraphManager@@AAEXPAV?$QList@PAV?$QList@PAVBaseContainer@@@@@@PAV?$QList@PAVBaseContainer@@@@_NPAV?$QList@PAVParagraphData@@@@H22@Z 004d5bc0 f   ParagraphManager.obj
 0001:000d5360       ?delExchangeChildren@ParagraphManager@@AAEXPAV?$QList@PAV?$QList@PAVBaseContainer@@@@@@PAV?$QList@PAVBaseContainer@@@@_N2@Z 004d6360 f   ParagraphManager.obj
 0001:000d5f40       ?createParagraphWhenNotCorrect@ParagraphManager@@AAEXH@Z 004d6f40 f   ParagraphManager.obj
 0001:000d6a20       ??0?$QList@PAVBaseParagraph@@@@QAE@XZ 004d7a20 f i ParagraphManager.obj
 0001:000d6a40       ??1?$QList@PAVBaseParagraph@@@@QAE@XZ 004d7a40 f i ParagraphManager.obj
 0001:000d6a80       ??4?$QList@PAVBaseParagraph@@@@QAEAAV0@$$QAV0@@Z 004d7a80 f i ParagraphManager.obj
 0001:000d6ab0       ??_G?$QList@PAVBaseParagraph@@@@QAEPAXI@Z 004d7ab0 f i ParagraphManager.obj
 0001:000d6af0       ??_EParagraphManager@@UAEPAXI@Z 004d7af0 f i ParagraphManager.obj
 0001:000d6af0       ??_GParagraphManager@@UAEPAXI@Z 004d7af0 f i ParagraphManager.obj
 0001:000d6b30       ?append@?$QList@PAVBaseParagraph@@@@QAEXABQAVBaseParagraph@@@Z 004d7b30 f i ParagraphManager.obj
 0001:000d6d00       ?at@?$QList@PAV?$QList@PAVBaseContainer@@@@@@QBEABQAV?$QList@PAVBaseContainer@@@@H@Z 004d7d00 f i ParagraphManager.obj
 0001:000d6d90       ?clear@?$QList@PAVBaseParagraph@@@@QAEXXZ 004d7d90 f i ParagraphManager.obj
 0001:000d6e20       ?dealloc@?$QList@PAVBaseParagraph@@@@AAEXPAUData@QListData@@@Z 004d7e20 f i ParagraphManager.obj
 0001:000d6e70       ?detach@?$QList@PAVBaseParagraph@@@@QAEXXZ 004d7e70 f i ParagraphManager.obj
 0001:000d6ea0       ?detach_helper@?$QList@PAVBaseParagraph@@@@AAEXH@Z 004d7ea0 f i ParagraphManager.obj
 0001:000d6fc0       ?detach_helper@?$QList@PAVBaseParagraph@@@@AAEXXZ 004d7fc0 f i ParagraphManager.obj
 0001:000d6ff0       ?detach_helper_grow@?$QList@PAVBaseParagraph@@@@AAEPAUNode@1@HH@Z 004d7ff0 f i ParagraphManager.obj
 0001:000d71f0       ?indexOf@?$QList@PAVBaseParagraph@@@@QBEHABQAVBaseParagraph@@H@Z 004d81f0 f i ParagraphManager.obj
 0001:000d72d0       ?insert@?$QList@PAVBaseParagraph@@@@QAEXHABQAVBaseParagraph@@@Z 004d82d0 f i ParagraphManager.obj
 0001:000d74a0       ?node_construct@?$QList@PAVBaseParagraph@@@@AAEXPAUNode@1@ABQAVBaseParagraph@@@Z 004d84a0 f i ParagraphManager.obj
 0001:000d7560       ?node_copy@?$QList@PAVBaseParagraph@@@@AAEXPAUNode@1@00@Z 004d8560 f i ParagraphManager.obj
 0001:000d77b0       ?node_destruct@?$QList@PAVBaseParagraph@@@@AAEXPAUNode@1@0@Z 004d87b0 f i ParagraphManager.obj
 0001:000d7820       ?node_destruct@?$QList@PAVBaseParagraph@@@@AAEXPAUNode@1@@Z 004d8820 f i ParagraphManager.obj
 0001:000d7850       ?prepend@?$QList@PAVBaseParagraph@@@@QAEXABQAVBaseParagraph@@@Z 004d8850 f i ParagraphManager.obj
 0001:000d7a20       ?push_back@?$QList@PAVBaseParagraph@@@@QAEXABQAVBaseParagraph@@@Z 004d8a20 f i ParagraphManager.obj
 0001:000d7a40       ?push_front@?$QList@PAVBaseParagraph@@@@QAEXABQAVBaseParagraph@@@Z 004d8a40 f i ParagraphManager.obj
 0001:000d7a60       ?removeAt@?$QList@PAVBaseParagraph@@@@QAEXH@Z 004d8a60 f i ParagraphManager.obj
 0001:000d7ac0       ?removeOne@?$QList@PAVBaseParagraph@@@@QAE_NABQAVBaseParagraph@@@Z 004d8ac0 f i ParagraphManager.obj
 0001:000d7b10       ?size@?$QList@PAV?$QList@PAVBaseContainer@@@@@@QBEHXZ 004d8b10 f i ParagraphManager.obj
 0001:000d7b30       ?t@Node@?$QList@PAV?$QList@PAVBaseContainer@@@@@@QAEAAPAV?$QList@PAVBaseContainer@@@@XZ 004d8b30 f i ParagraphManager.obj
 0001:000d7b60       ??0StrContentData@@QAE@PAVBaseContainer@@PAVCodeParams@@@Z 004d8b60 f   StrContentData.obj
 0001:000d7c60       ??0StrContentData@@QAE@PAVBaseContainer@@PAVCodeParams@@VQString@@H2HHDFDF_N3D@Z 004d8c60 f   StrContentData.obj
 0001:000d7de0       ??0StrContentData@@QAE@PAVBaseContainer@@PAVCodeParams@@VQString@@PAV0@@Z 004d8de0 f   StrContentData.obj
 0001:000d7f80       ??1StrContentData@@UAE@XZ  004d8f80 f   StrContentData.obj
 0001:000d8060       ?init@StrContentData@@UAEXXZ 004d9060 f   StrContentData.obj
 0001:000d8070       ?saveSelfData@StrContentData@@MAEXPAVBaseIOTools@@@Z 004d9070 f   StrContentData.obj
 0001:000d8160       ?loadSelfData@StrContentData@@MAEXPAVBaseIOTools@@@Z 004d9160 f   StrContentData.obj
 0001:000d8330       ?getString@StrContentData@@QAEAAVQString@@XZ 004d9330 f   StrContentData.obj
 0001:000d8350       ?setString@StrContentData@@QAEXVQString@@@Z 004d9350 f   StrContentData.obj
 0001:000d83c0       ?refreshTxtParam@StrContentData@@QAEXH_N@Z 004d93c0 f   StrContentData.obj
 0001:000d83d0       ?refreshTxtParamBySourceParam@StrContentData@@QAEXPAV1@_N@Z 004d93d0 f   StrContentData.obj
 0001:000d84a0       ?refreshTxtParamOnSetType@StrContentData@@QAE_NPAV1@@Z 004d94a0 f   StrContentData.obj
 0001:000d85f0       ?refreshTxtParamExceptSetType@StrContentData@@QAEXPAV1@W4SetTxtType@@@Z 004d95f0 f   StrContentData.obj
 0001:000d86e0       ?refreshTxtWH@StrContentData@@QAEXXZ 004d96e0 f   StrContentData.obj
 0001:000d89b0       ?setTxtParamW@StrContentData@@QAEXH@Z 004d99b0 f   StrContentData.obj
 0001:000d89e0       ?setBold@StrContentData@@QAEX_N@Z 004d99e0 f   StrContentData.obj
 0001:000d8a10       ?getBold@StrContentData@@QAE_NXZ 004d9a10 f   StrContentData.obj
 0001:000d8a30       ?setItalic@StrContentData@@QAEX_N@Z 004d9a30 f   StrContentData.obj
 0001:000d8a50       ?getItalic@StrContentData@@QAE_NXZ 004d9a50 f   StrContentData.obj
 0001:000d8a70       ?setFamily@StrContentData@@QAEXVQString@@@Z 004d9a70 f   StrContentData.obj
 0001:000d8b50       ?getFamily@StrContentData@@QAE?AVQString@@XZ 004d9b50 f   StrContentData.obj
 0001:000d8b90       ?setFlowType@StrContentData@@QAEXD@Z 004d9b90 f   StrContentData.obj
 0001:000d8be0       ?getFlowType@StrContentData@@QAEDXZ 004d9be0 f   StrContentData.obj
 0001:000d8c00       ?setFontColor@StrContentData@@QAEXH@Z 004d9c00 f   StrContentData.obj
 0001:000d8c50       ?setBackgroundColor@StrContentData@@QAEXH@Z 004d9c50 f   StrContentData.obj
 0001:000d8ca0       ?setFontColor@StrContentData@@QAEXVQColor@@@Z 004d9ca0 f   StrContentData.obj
 0001:000d8d70       ?setBackgroundColor@StrContentData@@QAEXVQColor@@@Z 004d9d70 f   StrContentData.obj
 0001:000d8e40       ?getFontColor@StrContentData@@QAEHXZ 004d9e40 f   StrContentData.obj
 0001:000d8e60       ?getBackgroundColor@StrContentData@@QAEHXZ 004d9e60 f   StrContentData.obj
 0001:000d8e80       ?getFontColorObj@StrContentData@@QAEPAVQColor@@XZ 004d9e80 f   StrContentData.obj
 0001:000d8ea0       ?getBackgroundColorObj@StrContentData@@QAEPAVQColor@@XZ 004d9ea0 f   StrContentData.obj
 0001:000d8ec0       ?getUnderLineType@StrContentData@@QAEDXZ 004d9ec0 f   StrContentData.obj
 0001:000d8ee0       ?getUnderLineThick@StrContentData@@QAEFXZ 004d9ee0 f   StrContentData.obj
 0001:000d8f00       ?getDelLineType@StrContentData@@QAEDXZ 004d9f00 f   StrContentData.obj
 0001:000d8f20       ?getDelLineThick@StrContentData@@QAEFXZ 004d9f20 f   StrContentData.obj
 0001:000d8f40       ?setUnderLine@StrContentData@@QAEXDF@Z 004d9f40 f   StrContentData.obj
 0001:000d8f70       ?setDelLine@StrContentData@@QAEXDF@Z 004d9f70 f   StrContentData.obj
 0001:000d8fa0       ?getPointSize@StrContentData@@QAEHXZ 004d9fa0 f   StrContentData.obj
 0001:000d8fc0       ?setPointSize@StrContentData@@QAEXH@Z 004d9fc0 f   StrContentData.obj
 0001:000d9000       ?setOperateType@StrContentData@@QAEXW4SetTxtType@@@Z 004da000 f   StrContentData.obj
 0001:000d9020       ?setNeedGray@StrContentData@@QAEX_N@Z 004da020 f   StrContentData.obj
 0001:000d9040       ?getNeedGray@StrContentData@@QAE_NXZ 004da040 f   StrContentData.obj
 0001:000d9060       ?isSameTxtType@StrContentData@@QAE_NPAV1@@Z 004da060 f   StrContentData.obj
 0001:000d91d0       ?initPainterAndFont@StrContentData@@QAEXPAVBaseTemplate@@@Z 004da1d0 f   StrContentData.obj
 0001:000d97b0       ??_EStrContentData@@UAEPAXI@Z 004da7b0 f i StrContentData.obj
 0001:000d97b0       ??_GStrContentData@@UAEPAXI@Z 004da7b0 f i StrContentData.obj
 0001:000d97f0       ??0FlagViewParam@@QAE@PAVViewObj@@@Z 004da7f0 f   FlagViewParam.obj
 0001:000d9830       ??1FlagViewParam@@UAE@XZ   004da830 f   FlagViewParam.obj
 0001:000d9850       ?setFocus@FlagViewParam@@QAEXPAVViewObj@@D@Z 004da850 f   FlagViewParam.obj
 0001:000d9880       ?getFocusAndDirection@FlagViewParam@@QAEXAAPAVViewObj@@AAD@Z 004da880 f   FlagViewParam.obj
 0001:000d98b0       ?getFocus@FlagViewParam@@QAEPAVViewObj@@XZ 004da8b0 f   FlagViewParam.obj
 0001:000d98d0       ?getDirection@FlagViewParam@@QAEDXZ 004da8d0 f   FlagViewParam.obj
 0001:000d9920       ??_EFlagViewParam@@UAEPAXI@Z 004da920 f i FlagViewParam.obj
 0001:000d9920       ??_GFlagViewParam@@UAEPAXI@Z 004da920 f i FlagViewParam.obj
 0001:000d9960       ??0DrawButton@@QAE@PAVViewObj@@@Z 004da960 f   DrawButton.obj
 0001:000d99e0       ??1DrawButton@@UAE@XZ      004da9e0 f   DrawButton.obj
 0001:000d9a50       ?init@DrawButton@@QAEXVQString@@0@Z 004daa50 f   DrawButton.obj
 0001:000d9b90       ?release@DrawButton@@QAEXXZ 004dab90 f   DrawButton.obj
 0001:000d9c10       ?setIndex@DrawButton@@QAEXH@Z 004dac10 f   DrawButton.obj
 0001:000d9c30       ?draw@DrawButton@@UAE_NAAVQPainter@@HHHH@Z 004dac30 f   DrawButton.obj
 0001:000d9db0       ??$_Move@AAPAU?$QTypedArrayData@PAVQImage@@@@@std@@YA$$QAPAU?$QTypedArrayData@PAVQImage@@@@AAPAU1@@Z 004dadb0 f i DrawButton.obj
 0001:000d9dc0       ??$qSwap@PAU?$QTypedArrayData@PAVQImage@@@@@@YAXAAPAU?$QTypedArrayData@PAVQImage@@@@0@Z 004dadc0 f i DrawButton.obj
 0001:000d9de0       ??$swap@PAU?$QTypedArrayData@PAVQImage@@@@@std@@YAXAAPAU?$QTypedArrayData@PAVQImage@@@@0@Z 004dade0 f i DrawButton.obj
 0001:000d9e30       ??0?$QFlags@W4AllocationOption@QArrayData@@@@QAE@W4AllocationOption@QArrayData@@@Z 004dae30 f i DrawButton.obj
 0001:000d9e50       ??0?$QVector@PAVQImage@@@@QAE@ABV0@@Z 004dae50 f i DrawButton.obj
 0001:000d9f80       ??0?$QVector@PAVQImage@@@@QAE@XZ 004daf80 f i DrawButton.obj
 0001:000d9fa0       ??1?$QVector@PAVQImage@@@@QAE@XZ 004dafa0 f i DrawButton.obj
 0001:000d9fe0       ??4?$QVector@PAVQImage@@@@QAE?AV0@$$QAV0@@Z 004dafe0 f i DrawButton.obj
 0001:000da030       ??A?$QVector@PAVQImage@@@@QAEAAPAVQImage@@H@Z 004db030 f i DrawButton.obj
 0001:000da0b0       ??_GDrawButton@@UAEPAXI@Z  004db0b0 f i DrawButton.obj
 0001:000da0b0       ??_EDrawButton@@UAEPAXI@Z  004db0b0 f i DrawButton.obj
 0001:000da0f0       ?allocate@?$QTypedArrayData@PAVQImage@@@@SAPAU1@IV?$QFlags@W4AllocationOption@QArrayData@@@@@Z 004db0f0 f i DrawButton.obj
 0001:000da110       ?append@?$QVector@PAVQImage@@@@QAEXABQAVQImage@@@Z 004db110 f i DrawButton.obj
 0001:000da280       ?begin@?$QTypedArrayData@PAVQImage@@@@QAEPAPAVQImage@@PAPAV2@@Z 004db280 f i DrawButton.obj
 0001:000da2a0       ?begin@?$QVector@PAVQImage@@@@QAEPAPAVQImage@@XZ 004db2a0 f i DrawButton.obj
 0001:000da2d0       ?clear@?$QVector@PAVQImage@@@@QAEXXZ 004db2d0 f i DrawButton.obj
 0001:000da370       ?copyConstruct@?$QVector@PAVQImage@@@@AAEXPBQAVQImage@@0PAPAV2@@Z 004db370 f i DrawButton.obj
 0001:000da420       ?data@?$QTypedArrayData@PAVQImage@@@@QAEPAPAVQImage@@XZ 004db420 f i DrawButton.obj
 0001:000da440       ?data@?$QVector@PAVQImage@@@@QAEPAPAVQImage@@XZ 004db440 f i DrawButton.obj
 0001:000da470       ?deallocate@?$QTypedArrayData@PAVQImage@@@@SAXPAUQArrayData@@@Z 004db470 f i DrawButton.obj
 0001:000da490       ?defaultConstruct@?$QVector@PAVQImage@@@@AAEXPAPAVQImage@@0@Z 004db490 f i DrawButton.obj
 0001:000da530       ?destruct@?$QVector@PAVQImage@@@@AAEXPAPAVQImage@@0@Z 004db530 f i DrawButton.obj
 0001:000da560       ?detach@?$QVector@PAVQImage@@@@QAEXXZ 004db560 f i DrawButton.obj
 0001:000da630       ?end@?$QTypedArrayData@PAVQImage@@@@QAEPAPAVQImage@@PAPAV2@@Z 004db630 f i DrawButton.obj
 0001:000da660       ?end@?$QVector@PAVQImage@@@@QAEPAPAVQImage@@XZ 004db660 f i DrawButton.obj
 0001:000da690       ?freeData@?$QVector@PAVQImage@@@@AAEXPAU?$QTypedArrayData@PAVQImage@@@@@Z 004db690 f i DrawButton.obj
 0001:000da6e0       ?isDetached@?$QVector@PAVQImage@@@@QBE_NXZ 004db6e0 f i DrawButton.obj
 0001:000da720       ?isSharable@RefCount@QtPrivate@@QBE_NXZ 004db720 f i DrawButton.obj
 0001:000da760       ?push_back@?$QVector@PAVQImage@@@@QAEXABQAVQImage@@@Z 004db760 f i DrawButton.obj
 0001:000da780       ?reallocData@?$QVector@PAVQImage@@@@AAEXHHV?$QFlags@W4AllocationOption@QArrayData@@@@@Z 004db780 f i DrawButton.obj
 0001:000db010       ?replace@?$QVector@PAVQImage@@@@QAEXHABQAVQImage@@@Z 004dc010 f i DrawButton.obj
 0001:000db0a0       ?sharedNull@?$QTypedArrayData@PAVQImage@@@@SAPAU1@XZ 004dc0a0 f i DrawButton.obj
 0001:000db0b0       ?size@?$QVector@PAVQImage@@@@QBEHXZ 004dc0b0 f i DrawButton.obj
 0001:000db0d0       ?testFlag@?$QFlags@W4AllocationOption@QArrayData@@@@QBE_NW4AllocationOption@QArrayData@@@Z 004dc0d0 f i DrawButton.obj
 0001:000db120       ?unsharableEmpty@?$QTypedArrayData@PAVQImage@@@@SAPAU1@XZ 004dc120 f i DrawButton.obj
 0001:000db140       ??0DrawImage@@QAE@PAVViewObj@@PAVImgConTentData@@@Z 004dc140 f   DrawImage.obj
 0001:000db1f0       ??1DrawImage@@UAE@XZ       004dc1f0 f   DrawImage.obj
 0001:000db240       ?draw@DrawImage@@UAE_NAAVQPainter@@HHHH@Z 004dc240 f   DrawImage.obj
 0001:000db5e0       ??_GDrawImage@@UAEPAXI@Z   004dc5e0 f i DrawImage.obj
 0001:000db5e0       ??_EDrawImage@@UAEPAXI@Z   004dc5e0 f i DrawImage.obj
 0001:000db620       ??0DrawLine@@QAE@PAVViewObj@@@Z 004dc620 f   DrawLine.obj
 0001:000db660       ??1DrawLine@@UAE@XZ        004dc660 f   DrawLine.obj
 0001:000db6b0       ?setLineParam@DrawLine@@QAEXHHD@Z 004dc6b0 f   DrawLine.obj
 0001:000db710       ?draw@DrawLine@@UAE_NAAVQPainter@@HHHH@Z 004dc710 f   DrawLine.obj
 0001:000db8e0       ??_GDrawLine@@UAEPAXI@Z    004dc8e0 f i DrawLine.obj
 0001:000db8e0       ??_EDrawLine@@UAEPAXI@Z    004dc8e0 f i DrawLine.obj
 0001:000db920       ??0DrawStr@@QAE@PAVViewObj@@@Z 004dc920 f   DrawStr.obj
 0001:000db960       ??1DrawStr@@UAE@XZ         004dc960 f   DrawStr.obj
 0001:000db990       ?drawStrList@DrawStr@@QAE_NAAVQPainter@@HHPAV?$QList@PAVStrContentData@@@@@Z 004dc990 f   DrawStr.obj
 0001:000dbc80       ?draw@DrawStr@@UAE_NAAVQPainter@@HHHH@Z 004dcc80 f   DrawStr.obj
 0001:000dbdc0       ?drawStr@DrawStr@@AAEXAAVQPainter@@VQString@@HH@Z 004dcdc0 f   DrawStr.obj
 0001:000dbfb0       ??_EDrawStr@@UAEPAXI@Z     004dcfb0 f i DrawStr.obj
 0001:000dbfb0       ??_GDrawStr@@UAEPAXI@Z     004dcfb0 f i DrawStr.obj
 0001:000dbff0       ?at@?$QList@PAVStrContentData@@@@QBEABQAVStrContentData@@H@Z 004dcff0 f i DrawStr.obj
 0001:000dc080       ?size@?$QList@PAVStrContentData@@@@QBEHXZ 004dd080 f i DrawStr.obj
 0001:000dc0a0       ?t@Node@?$QList@PAVStrContentData@@@@QAEAAPAVStrContentData@@XZ 004dd0a0 f i DrawStr.obj
 0001:000dc0d0       ??0BaseKey@@QAE@XZ         004dd0d0 f   BaseKey.obj
 0001:000dc100       ??1BaseKey@@UAE@XZ         004dd100 f   BaseKey.obj
 0001:000dc130       ??_GBaseKey@@UAEPAXI@Z     004dd130 f i BaseKey.obj
 0001:000dc130       ??_EBaseKey@@UAEPAXI@Z     004dd130 f i BaseKey.obj
 0001:000dc170       ?keyPress@BaseKey@@UAEHVQString@@@Z 004dd170 f i BaseKey.obj
 0001:000dc1a0       ?keyRelease@BaseKey@@UAEHVQString@@@Z 004dd1a0 f i BaseKey.obj
 0001:000dc1d0       ??0BaseMouse@@QAE@PAVViewObj@@H@Z 004dd1d0 f   BaseMouse.obj
 0001:000dc210       ??1BaseMouse@@UAE@XZ       004dd210 f   BaseMouse.obj
 0001:000dc230       ?releaseFocusFromWindow@BaseMouse@@UAEXXZ 004dd230 f   BaseMouse.obj
 0001:000dc260       ??_GBaseMouse@@UAEPAXI@Z   004dd260 f i BaseMouse.obj
 0001:000dc260       ??_EBaseMouse@@UAEPAXI@Z   004dd260 f i BaseMouse.obj
 0001:000dc2a0       ?mouseDoublePress@BaseMouse@@UAEHHHH@Z 004dd2a0 f i BaseMouse.obj
 0001:000dc2c0       ?mouseDrag@BaseMouse@@UAEHHHH@Z 004dd2c0 f i BaseMouse.obj
 0001:000dc2e0       ?mouseMove@BaseMouse@@UAEHHHH@Z 004dd2e0 f i BaseMouse.obj
 0001:000dc300       ?mousePress@BaseMouse@@UAEHHHH@Z 004dd300 f i BaseMouse.obj
 0001:000dc320       ?mouseRelease@BaseMouse@@UAEHHHH@Z 004dd320 f i BaseMouse.obj
 0001:000dc340       ?mouseScroll@BaseMouse@@UAEHH@Z 004dd340 f i BaseMouse.obj
 0001:000dc360       ?setMiddleButtonParam@BaseMouse@@UAEHHHH@Z 004dd360 f i BaseMouse.obj
 0001:000dc380       ?setScale@BaseMouse@@UAEXM@Z 004dd380 f i BaseMouse.obj
 0001:000dc660       ??0EmrClient@@QAE@PAVQWidget@@@Z 004dd660 f   emrclient.obj
 0001:000dc790       ??1EmrClient@@UAE@XZ       004dd790 f   emrclient.obj
 0001:000dc7c0       ?OpenEidtImageWindow@EmrClient@@QAEXPAVImgConTentData@@@Z 004dd7c0 f   emrclient.obj
 0001:000dc8dc       ??_EEmrClient@@W7AEPAXI@Z  004dd8dc f i emrclient.obj
 0001:000dc8e6       ??_EQMenuBar@@W7AEPAXI@Z   004dd8e6 f i emrclient.obj
 0001:000dc8f0       ??_EQStatusBar@@W7AEPAXI@Z 004dd8f0 f i emrclient.obj
 0001:000dc8fa       ??_EQToolBar@@W7AEPAXI@Z   004dd8fa f i emrclient.obj
 0001:000dc904       ??_EQWidget@@W7AEPAXI@Z    004dd904 f i emrclient.obj
 0001:000dc910       ??_GEmrClient@@UAEPAXI@Z   004dd910 f i emrclient.obj
 0001:000dc910       ??_EEmrClient@@UAEPAXI@Z   004dd910 f i emrclient.obj
 0001:000dc950       ??_GQMenuBar@@UAEPAXI@Z    004dd950 f i emrclient.obj
 0001:000dc950       ??_EQMenuBar@@UAEPAXI@Z    004dd950 f i emrclient.obj
 0001:000dc990       ??_GQStatusBar@@UAEPAXI@Z  004dd990 f i emrclient.obj
 0001:000dc990       ??_EQStatusBar@@UAEPAXI@Z  004dd990 f i emrclient.obj
 0001:000dc9d0       ??_GQToolBar@@UAEPAXI@Z    004dd9d0 f i emrclient.obj
 0001:000dc9d0       ??_EQToolBar@@UAEPAXI@Z    004dd9d0 f i emrclient.obj
 0001:000dca10       ??_EQWidget@@UAEPAXI@Z     004dda10 f i emrclient.obj
 0001:000dca10       ??_GQWidget@@UAEPAXI@Z     004dda10 f i emrclient.obj
 0001:000dca50       ?data_ptr@?$QStaticStringData@$0L@@@QBEPAU?$QTypedArrayData@G@@XZ 004dda50 f i emrclient.obj
 0001:000dcab0       ?data_ptr@?$QStaticStringData@$0N@@@QBEPAU?$QTypedArrayData@G@@XZ 004ddab0 f i emrclient.obj
 0001:000dcb10       ?data_ptr@?$QStaticStringData@$0O@@@QBEPAU?$QTypedArrayData@G@@XZ 004ddb10 f i emrclient.obj
 0001:000dcb70       ?retranslateUi@Ui_EmrClientClass@@QAEXPAVQMainWindow@@@Z 004ddb70 f i emrclient.obj
 0001:000dcc20       ?setupUi@Ui_EmrClientClass@@QAEXPAVQMainWindow@@@Z 004ddc20 f i emrclient.obj
 0001:000dd140       ??0BasePointData@@QAE@HH@Z 004de140 f   BasePointData.obj
 0001:000dd170       ??0BasePointData@@QAE@PAV0@@Z 004de170 f   BasePointData.obj
 0001:000dd1a0       ??1BasePointData@@QAE@XZ   004de1a0 f   BasePointData.obj
 0001:000dd1d0       ??0BaseUIMsgData@@QAE@PAVWriterManager@@H@Z 004de1d0 f   BaseUIMsgData.obj
 0001:000dd250       ??1BaseUIMsgData@@UAE@XZ   004de250 f   BaseUIMsgData.obj
 0001:000dd2b0       ??_EBaseUIMsgData@@UAEPAXI@Z 004de2b0 f i BaseUIMsgData.obj
 0001:000dd2b0       ??_GBaseUIMsgData@@UAEPAXI@Z 004de2b0 f i BaseUIMsgData.obj
 0001:000dd2f0       ??0GlobalImgData@@QAE@VQString@@@Z 004de2f0 f   GlobalImgData.obj
 0001:000dd3d0       ??1GlobalImgData@@UAE@XZ   004de3d0 f   GlobalImgData.obj
 0001:000dd470       ?isSameImg@GlobalImgData@@QAE_NVQString@@@Z 004de470 f   GlobalImgData.obj
 0001:000dd500       ?getImg@GlobalImgData@@QAEPAVQImage@@XZ 004de500 f   GlobalImgData.obj
 0001:000dd520       ?delNum@GlobalImgData@@QAE_NXZ 004de520 f   GlobalImgData.obj
 0001:000dd550       ?addNum@GlobalImgData@@QAEXXZ 004de550 f   GlobalImgData.obj
 0001:000dd570       ?getImgName@GlobalImgData@@QAE?AVQString@@XZ 004de570 f   GlobalImgData.obj
 0001:000dd650       ??_EGlobalImgData@@UAEPAXI@Z 004de650 f i GlobalImgData.obj
 0001:000dd650       ??_GGlobalImgData@@UAEPAXI@Z 004de650 f i GlobalImgData.obj
 0001:000dd690       ??0MousePressParams@@QAE@XZ 004de690 f   MousePressParams.obj
 0001:000dd700       ??1MousePressParams@@QAE@XZ 004de700 f   MousePressParams.obj
 0001:000dd720       ?getX@MousePressParams@@QAEHXZ 004de720 f   MousePressParams.obj
 0001:000dd740       ?getY@MousePressParams@@QAEHXZ 004de740 f   MousePressParams.obj
 0001:000dd760       ?getType@MousePressParams@@QAEHXZ 004de760 f   MousePressParams.obj
 0001:000dd770       ?refresh@MousePressParams@@QAEXHHH@Z 004de770 f   MousePressParams.obj
 0001:000dd7a0       ?refresh@MousePressParams@@QAEXHHHV?$QMap@VQString@@V1@@@@Z 004de7a0 f   MousePressParams.obj
 0001:000dd810       ?getData@MousePressParams@@QAE?AV?$QMap@VQString@@V1@@@XZ 004de810 f   MousePressParams.obj
 0001:000dd8b0       ??0UIMsgResizeWindow@@QAE@PAVWriterManager@@VQSize@@@Z 004de8b0 f   UIMsgResizeWindow.obj
 0001:000dd8f0       ??1UIMsgResizeWindow@@UAE@XZ 004de8f0 f   UIMsgResizeWindow.obj
 0001:000dd910       ?doAction@UIMsgResizeWindow@@UAEXXZ 004de910 f   UIMsgResizeWindow.obj
 0001:000dd970       ??_EUIMsgResizeWindow@@UAEPAXI@Z 004de970 f i UIMsgResizeWindow.obj
 0001:000dd970       ??_GUIMsgResizeWindow@@UAEPAXI@Z 004de970 f i UIMsgResizeWindow.obj
 0001:000dd9b0       ??0TempleteFactory@@QAE@XZ 004de9b0 f   TempleteFactory.obj
 0001:000dd9c0       ??1TempleteFactory@@QAE@XZ 004de9c0 f   TempleteFactory.obj
 0001:000dd9d0       ?createRootTemp@TempleteFactory@@SAPAVBaseTemplate@@PAVWriterManager@@PAVBaseIOTools@@@Z 004de9d0 f   TempleteFactory.obj
 0001:000ddb60       ?createParagraph@TempleteFactory@@SAPAVBaseParagraph@@PAVWriterManager@@PAVParagraphManager@@PAVParagraphData@@@Z 004deb60 f   TempleteFactory.obj
 0001:000ddca0       ?createNode@TempleteFactory@@SAPAVBaseTemplate@@PAVWriterManager@@PAVParagraphManager@@PAVCodeParams@@2@Z 004deca0 f   TempleteFactory.obj
 0001:000dde20       ?createNoEditTextWidgetTemplete@TempleteFactory@@SAPAVTextWidget@@PAVBaseContainer@@PAVViewObj@@H_NHVQString@@2@Z 004dee20 f   TempleteFactory.obj
 0001:000ddfc0       ?createStructurationTemplete@TempleteFactory@@SAPAVStructurationTextWidget@@PAVBaseTemplate@@_N@Z 004defc0 f   TempleteFactory.obj
 0001:000de120       ?createInputTextTemplete@TempleteFactory@@SAPAVBracketWidget@@PAVBaseTemplate@@_N@Z 004df120 f   TempleteFactory.obj
 0001:000de250       ?createMenstruationTemplete@TempleteFactory@@SAPAVMenstruationTemplete@@PAVBaseTemplate@@_N@Z 004df250 f   TempleteFactory.obj
 0001:000de340       ?createMacroTemplete@TempleteFactory@@SAPAVMacroTemplete@@PAVBaseTemplate@@H_N@Z 004df340 f   TempleteFactory.obj
 0001:000de420       ?createMacroTextWidgetTemplete@TempleteFactory@@SAPAVTextWidget@@PAVBaseTemplate@@_N@Z 004df420 f   TempleteFactory.obj
 0001:000de590       ?createBracketTemplete@TempleteFactory@@SAPAVBracketWidget@@PAVBaseTemplate@@_N@Z 004df590 f   TempleteFactory.obj
 0001:000de700       ?createChoiceWidgetTemplete@TempleteFactory@@SAPAVChoiceWidgetTemplete@@PAVBaseTemplate@@D_N@Z 004df700 f   TempleteFactory.obj
 0001:000de7f0       ?createChoiceTextWidgetTemplete@TempleteFactory@@SAPAVTextWidget@@PAVBaseTemplate@@_N@Z 004df7f0 f   TempleteFactory.obj
 0001:000de860       ?createTextWidgetTemplete@TempleteFactory@@SAPAVTextWidget@@PAVBaseTemplate@@H_N@Z 004df860 f   TempleteFactory.obj
 0001:000de9b0       ?createExcelTemplete@TempleteFactory@@SAPAVExcelTemplete@@PAVBaseTemplate@@_N@Z 004df9b0 f   TempleteFactory.obj
 0001:000deac0       ?createExcelCellTemplate@TempleteFactory@@SAPAVBaseTemplate@@PAV2@@Z 004dfac0 f   TempleteFactory.obj
 0001:000dec00       ?crateUnfoldChoiceItemTextWidget@TempleteFactory@@SAPAVChoiceItemTextWidget@@PAVBaseTemplate@@DH_N@Z 004dfc00 f   TempleteFactory.obj
 0001:000ded10       ?createUnfoldChoiceWidget@TempleteFactory@@SAPAVUnfoldChoiceWidgetTemplete@@PAVBaseTemplate@@D_N@Z 004dfd10 f   TempleteFactory.obj
 0001:000dee00       ?createMenstruationParam@TempleteFactory@@SAPAVMenStruationDataParam@@PAVBaseTemplate@@@Z 004dfe00 f   TempleteFactory.obj
 0001:000dee80       ?createStructurationParam@TempleteFactory@@SAPAVStructurationTextParam@@PAVBaseTemplate@@@Z 004dfe80 f   TempleteFactory.obj
 0001:000def00       ?createTextWidgetParam@TempleteFactory@@SAPAVTextWidgetParam@@PAVBaseTemplate@@@Z 004dff00 f   TempleteFactory.obj
 0001:000def80       ?createMacronParam@TempleteFactory@@SAPAVMacroTempleteParam@@PAVBaseTemplate@@@Z 004dff80 f   TempleteFactory.obj
 0001:000df000       ?createChoiceWidgetParam@TempleteFactory@@SAPAVChoiceWidgetTempleteParam@@PAVBaseTemplate@@PAVCodeParams@@@Z 004e0000 f   TempleteFactory.obj
 0001:000df080       ?createUnfoldChoiceWidgetParam@TempleteFactory@@SAPAVUnfoldChoiceWidgetTempleteParam@@PAVBaseTemplate@@PAVCodeParams@@@Z 004e0080 f   TempleteFactory.obj
 0001:000df100       ?createPartTemp@TempleteFactory@@CAPAVBaseTemplate@@PAVWriterManager@@H@Z 004e0100 f   TempleteFactory.obj
 0001:000df2a0       ?createTempContainer@TempleteFactory@@CAPAVBaseTemplate@@PAVWriterManager@@HPAVParagraphManager@@@Z 004e02a0 f   TempleteFactory.obj
 0001:000dfa50       ??0ViewFactory@@QAE@XZ     004e0a50 f   ViewFactory.obj
 0001:000dfa60       ??1ViewFactory@@QAE@XZ     004e0a60 f   ViewFactory.obj
 0001:000dfa70       ?init@ViewFactory@@SAXXZ   004e0a70 f   ViewFactory.obj
 0001:000dfa80       ?createRoot@ViewFactory@@SAPAVViewObj@@PAVWriterManager@@@Z 004e0a80 f   ViewFactory.obj
 0001:000dfc40       ?createTxtWindow@ViewFactory@@SAPAVViewObj@@PAVWriterManager@@@Z 004e0c40 f   ViewFactory.obj
 0001:000e0110       ?createPagePanel@ViewFactory@@SAPAVViewObj@@PAVWriterManager@@@Z 004e1110 f   ViewFactory.obj
 0001:000e02d0       ?createScrollPanel@ViewFactory@@SAPAVViewObj@@PAVWriterManager@@@Z 004e12d0 f   ViewFactory.obj
 0001:000e05f0       ?createNormalPage@ViewFactory@@SAPAVViewObj@@PAVWriterManager@@@Z 004e15f0 f   ViewFactory.obj
 0001:000e0610       ?createNormalPage@ViewFactory@@SAPAVViewObj@@PAVWriterManager@@PAV2@1@Z 004e1610 f   ViewFactory.obj
 0001:000e0a80       ?createPageTitle@ViewFactory@@SAPAVViewObj@@PAVWriterManager@@@Z 004e1a80 f   ViewFactory.obj
 0001:000e0cd0       ?createPageBottom@ViewFactory@@SAPAVViewObj@@PAVWriterManager@@@Z 004e1cd0 f   ViewFactory.obj
 0001:000e0eb0       ?createPageContent@ViewFactory@@SAPAVViewObj@@PAVWriterManager@@@Z 004e1eb0 f   ViewFactory.obj
 0001:000e1040       ?createExcelPage@ViewFactory@@SAPAVViewObj@@PAVWriterManager@@HHHHPAVExcelTemplete@@_N@Z 004e2040 f   ViewFactory.obj
 0001:000e12d0       ?createScrollButtonUp@ViewFactory@@SAPAVViewObj@@PAVWriterManager@@@Z 004e22d0 f   ViewFactory.obj
 0001:000e1450       ?createScrollButtonMiddle@ViewFactory@@SAPAVViewObj@@PAVWriterManager@@@Z 004e2450 f   ViewFactory.obj
 0001:000e1710       ?createScrollButtonDown@ViewFactory@@SAPAVViewObj@@PAVWriterManager@@@Z 004e2710 f   ViewFactory.obj
 0001:000e1890       ?createLayer@ViewFactory@@SAPAVViewObj@@PAVWriterManager@@HHD@Z 004e2890 f   ViewFactory.obj
 0001:000e1a50       ?createExcelLayer@ViewFactory@@SAPAVViewObj@@PAVWriterManager@@HHD@Z 004e2a50 f   ViewFactory.obj
 0001:000e1c00       ?createRow@ViewFactory@@SAPAVViewObj@@PAVWriterManager@@PAVBaseContainer@@@Z 004e2c00 f   ViewFactory.obj
 0001:000e1e00       ?createExcelRowContainer@ViewFactory@@SAPAVViewObj@@PAVExcelTemplete@@PAV2@@Z 004e2e00 f   ViewFactory.obj
 0001:000e1fc0       ?createMenstruationRow@ViewFactory@@SAPAVViewObj@@PAVWriterManager@@PAVBaseContainer@@@Z 004e2fc0 f   ViewFactory.obj
 0001:000e2040       ?createEnter@ViewFactory@@SAPAVViewObj@@PAVWriterManager@@H@Z 004e3040 f   ViewFactory.obj
 0001:000e2230       ?createFlag@ViewFactory@@SAPAVViewObj@@PAVWriterManager@@@Z 004e3230 f   ViewFactory.obj
 0001:000e2400       ?createHorizontalLine@ViewFactory@@SAPAVViewObj@@PAVWriterManager@@H@Z 004e3400 f   ViewFactory.obj
 0001:000e25c0       ?createEndPageLine@ViewFactory@@SAPAVViewObj@@PAVWriterManager@@H@Z 004e35c0 f   ViewFactory.obj
 0001:000e2780       ?createTxt@ViewFactory@@SAPAVViewObj@@PAVWriterManager@@HVQString@@@Z 004e3780 f   ViewFactory.obj
 0001:000e2930       ?createPageNumber@ViewFactory@@SAPAVViewObj@@PAVWriterManager@@PAVCodeParams@@H@Z 004e3930 f   ViewFactory.obj
 0001:000e2ae0       ?createTemplateTxt@ViewFactory@@SAPAVViewObj@@PAVWriterManager@@PAVBaseTemplate@@VQString@@PAVStrContentData@@@Z 004e3ae0 f   ViewFactory.obj
 0001:000e2cb0       ?createImg@ViewFactory@@SAPAVViewObj@@PAVWriterManager@@PAVCodeParams@@VQString@@@Z 004e3cb0 f   ViewFactory.obj
 0001:000e2f80       ?createExcel@ViewFactory@@SAPAVViewObj@@PAVBaseTemplate@@PAV2@HHHHHH_N@Z 004e3f80 f   ViewFactory.obj
 0001:000e32d0       ?createExcelCell@ViewFactory@@SAPAVViewObj@@PAV2@PAVExcelCellData@@@Z 004e42d0 f   ViewFactory.obj
 0001:000e34b0       ?createChoiceBoxRectImg@ViewFactory@@SAPAVViewObj@@PAVWriterManager@@PAVBaseTemplate@@H@Z 004e44b0 f   ViewFactory.obj
 0001:000e36d0       ?createChoiceBoxRadioImg@ViewFactory@@SAPAVViewObj@@PAVWriterManager@@PAVBaseTemplate@@H@Z 004e46d0 f   ViewFactory.obj
 0001:000e38f0       ?createChoiceBoxMultipleImg@ViewFactory@@SAPAVViewObj@@PAVWriterManager@@PAVBaseTemplate@@H@Z 004e48f0 f   ViewFactory.obj
 0001:000e3ae0       ?createChoiceBoxContainerView@ViewFactory@@SAPAVViewObj@@PAVWriterManager@@PAVBaseTemplate@@H@Z 004e4ae0 f   ViewFactory.obj
 0001:000e3c60       ?createDefaultStrContentData@ViewFactory@@SAPAVStrContentData@@XZ 004e4c60 f   ViewFactory.obj
 0001:000e3d30       ?initImgParam@ViewFactory@@CAXAAH0@Z 004e4d30 f   ViewFactory.obj
 0001:000e4ff0       ??0BaseContainerParam@@QAE@PAVBaseContainer@@H@Z 004e5ff0 f   BaseContainerParam.obj
 0001:000e5020       ??0BaseContainerParam@@QAE@PAVBaseContainer@@PAV0@H@Z 004e6020 f   BaseContainerParam.obj
 0001:000e5050       ??1BaseContainerParam@@UAE@XZ 004e6050 f   BaseContainerParam.obj
 0001:000e5080       ?getOwner@BaseContainerParam@@QAEPAVBaseContainer@@XZ 004e6080 f   BaseContainerParam.obj
 0001:000e50a0       ?initOwner@BaseContainerParam@@QAEXPAVBaseContainer@@@Z 004e60a0 f   BaseContainerParam.obj
 0001:000e50f0       ??_GBaseContainerParam@@UAEPAXI@Z 004e60f0 f i BaseContainerParam.obj
 0001:000e50f0       ??_EBaseContainerParam@@UAEPAXI@Z 004e60f0 f i BaseContainerParam.obj
 0001:000e5130       ??0BaseElement@@QAE@H@Z    004e6130 f   BaseElement.obj
 0001:000e5160       ??0BaseElement@@QAE@PAV0@@Z 004e6160 f   BaseElement.obj
 0001:000e5190       ??1BaseElement@@UAE@XZ     004e6190 f   BaseElement.obj
 0001:000e51b0       ?getClassId@BaseElement@@QAEHXZ 004e61b0 f   BaseElement.obj
 0001:000e51f0       ??_EBaseElement@@UAEPAXI@Z 004e61f0 f i BaseElement.obj
 0001:000e51f0       ??_GBaseElement@@UAEPAXI@Z 004e61f0 f i BaseElement.obj
 0001:000e5230       ??0BaseContentData@@QAE@PAVBaseContainer@@HPAVCodeParams@@@Z 004e6230 f   BaseContentData.obj
 0001:000e5280       ??0BaseContentData@@QAE@PAVBaseContainer@@PAV0@H@Z 004e6280 f   BaseContentData.obj
 0001:000e5360       ??1BaseContentData@@UAE@XZ 004e6360 f   BaseContentData.obj
 0001:000e5410       ?setNeedLoadSelfChildren@BaseContentData@@QAEX_N@Z 004e6410 f   BaseContentData.obj
 0001:000e5430       ?doSave@BaseContentData@@QAEXPAVBaseIOTools@@@Z 004e6430 f   BaseContentData.obj
 0001:000e5480       ?doLoadWithoutID@BaseContentData@@QAEXPAVBaseIOTools@@@Z 004e6480 f   BaseContentData.obj
 0001:000e54c0       ?isParagraphMgrData@BaseContentData@@QAE_NXZ 004e64c0 f   BaseContentData.obj
 0001:000e54e0       ?isTempContainerData@BaseContentData@@QAE_NXZ 004e64e0 f   BaseContentData.obj
 0001:000e5500       ?isCodeAndExtendsData@BaseContentData@@QAE_NXZ 004e6500 f   BaseContentData.obj
 0001:000e5530       ?saveCodeParams@BaseContentData@@UAEXPAVBaseIOTools@@@Z 004e6530 f   BaseContentData.obj
 0001:000e5590       ?loadCodeParams@BaseContentData@@UAEXPAVBaseIOTools@@@Z 004e6590 f   BaseContentData.obj
 0001:000e55d0       ?saveChildrenData@BaseContentData@@UAEXPAVBaseIOTools@@@Z 004e65d0 f   BaseContentData.obj
 0001:000e56b0       ?loadChildrenData@BaseContentData@@QAEXPAVBaseIOTools@@@Z 004e66b0 f   BaseContentData.obj
 0001:000e5780       ?saveID@BaseContentData@@QAEXPAVBaseIOTools@@@Z 004e6780 f   BaseContentData.obj
 0001:000e57d0       ?setOwnerObjId@BaseContentData@@QAEXH@Z 004e67d0 f   BaseContentData.obj
 0001:000e57f0       ?setChooseObjId@BaseContentData@@QAEXH@Z 004e67f0 f   BaseContentData.obj
 0001:000e5810       ?initCodeParams@BaseContentData@@QAEXPAVCodeParams@@@Z 004e6810 f   BaseContentData.obj
 0001:000e5830       ?getCodeParams@BaseContentData@@QAEPAVCodeParams@@XZ 004e6830 f   BaseContentData.obj
 0001:000e5850       ?getNodeParams@BaseContentData@@QAEPAVNodeParams@@XZ 004e6850 f   BaseContentData.obj
 0001:000e5870       ?getParagraphCodeParams@BaseContentData@@QAEPAVParagraphCodeParams@@XZ 004e6870 f   BaseContentData.obj
 0001:000e5890       ?createOwner@BaseContentData@@UAEPAVBaseContainer@@PAV2@PAVBaseIOTools@@_N@Z 004e6890 f   BaseContentData.obj
 0001:000e5a40       ??_GBaseContentData@@UAEPAXI@Z 004e6a40 f i BaseContentData.obj
 0001:000e5a40       ??_EBaseContentData@@UAEPAXI@Z 004e6a40 f i BaseContentData.obj
 0001:000e5a80       ?init@BaseContentData@@UAEXXZ 004e6a80 f i BaseContentData.obj
 0001:000e5a90       ?loadSelfData@BaseContentData@@UAEXPAVBaseIOTools@@@Z 004e6a90 f i BaseContentData.obj
 0001:000e5aa0       ?saveSelfData@BaseContentData@@UAEXPAVBaseIOTools@@@Z 004e6aa0 f i BaseContentData.obj
 0001:000e5ab0       ??0CodeTempData@@QAE@PAVBaseContainer@@HPAVCodeParams@@@Z 004e6ab0 f   CodeTempData.obj
 0001:000e5b30       ??0CodeTempData@@QAE@PAVBaseContainer@@PAV0@H@Z 004e6b30 f   CodeTempData.obj
 0001:000e5bd0       ??1CodeTempData@@UAE@XZ    004e6bd0 f   CodeTempData.obj
 0001:000e5c30       ?init@CodeTempData@@UAEXXZ 004e6c30 f   CodeTempData.obj
 0001:000e5c40       ?saveSelfData@CodeTempData@@UAEXPAVBaseIOTools@@@Z 004e6c40 f   CodeTempData.obj
 0001:000e5cc0       ?loadSelfData@CodeTempData@@UAEXPAVBaseIOTools@@@Z 004e6cc0 f   CodeTempData.obj
 0001:000e5d50       ?saveChildrenData@CodeTempData@@UAEXPAVBaseIOTools@@@Z 004e6d50 f   CodeTempData.obj
 0001:000e5ef0       ?createOwner@CodeTempData@@UAEPAVBaseContainer@@PAV2@@Z 004e6ef0 f   CodeTempData.obj
 0001:000e5f00       ?getParentParagraphMgr@CodeTempData@@QAEPAVParagraphManager@@XZ 004e6f00 f   CodeTempData.obj
 0001:000e5f60       ?canWrite@CodeTempData@@QAE_NXZ 004e6f60 f   CodeTempData.obj
 0001:000e5f90       ?setAuthority@CodeTempData@@QAEXH@Z 004e6f90 f   CodeTempData.obj
 0001:000e5fb0       ?setCodeId@CodeTempData@@QAEXVQString@@@Z 004e6fb0 f   CodeTempData.obj
 0001:000e6010       ?getCodeId@CodeTempData@@QAE?AVQString@@XZ 004e7010 f   CodeTempData.obj
 0001:000e6050       ?saveFocusData@CodeTempData@@IAEXPAVStrContentData@@PAVBaseIOTools@@@Z 004e7050 f   CodeTempData.obj
 0001:000e61a0       ?loadFocusData@CodeTempData@@IAEPAVStrContentData@@PAVBaseIOTools@@@Z 004e71a0 f   CodeTempData.obj
 0001:000e6540       ??_ECodeTempData@@UAEPAXI@Z 004e7540 f i CodeTempData.obj
 0001:000e6540       ??_GCodeTempData@@UAEPAXI@Z 004e7540 f i CodeTempData.obj
 0001:000e6580       ??0TempParagraphMgrData@@QAE@PAVBaseContainer@@HPAVCodeParams@@@Z 004e7580 f   TempParagraphMgrData.obj
 0001:000e6600       ??0TempParagraphMgrData@@QAE@PAVBaseContainer@@PAV0@@Z 004e7600 f   TempParagraphMgrData.obj
 0001:000e66d0       ??1TempParagraphMgrData@@UAE@XZ 004e76d0 f   TempParagraphMgrData.obj
 0001:000e66f0       ?init@TempParagraphMgrData@@UAEXXZ 004e76f0 f   TempParagraphMgrData.obj
 0001:000e6780       ?getParagraphMgr@TempParagraphMgrData@@QAEPAVParagraphManager@@XZ 004e7780 f   TempParagraphMgrData.obj
 0001:000e67a0       ?saveSelfData@TempParagraphMgrData@@MAEXPAVBaseIOTools@@@Z 004e77a0 f   TempParagraphMgrData.obj
 0001:000e6870       ?loadSelfData@TempParagraphMgrData@@MAEXPAVBaseIOTools@@@Z 004e7870 f   TempParagraphMgrData.obj
 0001:000e69e0       ??_GTempParagraphMgrData@@UAEPAXI@Z 004e79e0 f i TempParagraphMgrData.obj
 0001:000e69e0       ??_ETempParagraphMgrData@@UAEPAXI@Z 004e79e0 f i TempParagraphMgrData.obj
 0001:000e6a20       ??0ImgConTentData@@QAE@PAVBaseContainer@@PAVCodeParams@@@Z 004e7a20 f   ImgContentData.obj
 0001:000e6ab0       ??0ImgConTentData@@QAE@PAVBaseContainer@@PAVCodeParams@@VQString@@@Z 004e7ab0 f   ImgContentData.obj
 0001:000e6b80       ??0ImgConTentData@@QAE@PAVBaseContainer@@PAVCodeParams@@PAV0@@Z 004e7b80 f   ImgContentData.obj
 0001:000e6cf0       ??1ImgConTentData@@UAE@XZ  004e7cf0 f   ImgContentData.obj
 0001:000e6d50       ?getSnap@ImgConTentData@@QAEPAVQImage@@XZ 004e7d50 f   ImgContentData.obj
 0001:000e6d70       ?getImg@ImgConTentData@@QAEPAVQImage@@XZ 004e7d70 f   ImgContentData.obj
 0001:000e6d90       ?getImgName@ImgConTentData@@QAE?AVQString@@XZ 004e7d90 f   ImgContentData.obj
 0001:000e6dd0       ?getBaseEditParam@ImgConTentData@@QAEPAVBaseEditParam@@XZ 004e7dd0 f   ImgContentData.obj
 0001:000e6df0       ?setSnap@ImgConTentData@@QAEXPAVQImage@@@Z 004e7df0 f   ImgContentData.obj
 0001:000e6e10       ?setWightAndHeight@ImgConTentData@@QAEXHH@Z 004e7e10 f   ImgContentData.obj
 0001:000e6e60       ?init@ImgConTentData@@EAEXXZ 004e7e60 f   ImgContentData.obj
 0001:000e6f20       ?destroy@ImgConTentData@@AAEXXZ 004e7f20 f   ImgContentData.obj
 0001:000e6fc0       ?saveSelfData@ImgConTentData@@MAEXPAVBaseIOTools@@@Z 004e7fc0 f   ImgContentData.obj
 0001:000e70e0       ?loadSelfData@ImgConTentData@@MAEXPAVBaseIOTools@@@Z 004e80e0 f   ImgContentData.obj
 0001:000e7590       ??_GImgConTentData@@UAEPAXI@Z 004e8590 f i ImgContentData.obj
 0001:000e7590       ??_EImgConTentData@@UAEPAXI@Z 004e8590 f i ImgContentData.obj
 0001:000e75d0       ??0BaseViewParam@@QAE@PAVViewObj@@@Z 004e85d0 f   BaseViewParam.obj
 0001:000e7640       ??0BaseViewParam@@QAE@PAVViewObj@@H@Z 004e8640 f   BaseViewParam.obj
 0001:000e76b0       ??0BaseViewParam@@QAE@PAVViewObj@@PAV0@@Z 004e86b0 f   BaseViewParam.obj
 0001:000e7730       ??1BaseViewParam@@UAE@XZ   004e8730 f   BaseViewParam.obj
 0001:000e7750       ?initParams@BaseViewParam@@QAEXPAVViewObj@@PAV1@@Z 004e8750 f   BaseViewParam.obj
 0001:000e78e0       ?init@BaseViewParam@@QAEXMMHH@Z 004e88e0 f   BaseViewParam.obj
 0001:000e7920       ?initDefaultWH@BaseViewParam@@QAEXFF@Z 004e8920 f   BaseViewParam.obj
 0001:000e7950       ?initClip@BaseViewParam@@QAEXPAH@Z 004e8950 f   BaseViewParam.obj
 0001:000e7970       ?isView@BaseViewParam@@QAE_NXZ 004e8970 f   BaseViewParam.obj
 0001:000e79a0       ?getViewType@BaseViewParam@@QAEDXZ 004e89a0 f   BaseViewParam.obj
 0001:000e79c0       ?setViewType@BaseViewParam@@QAEXD@Z 004e89c0 f   BaseViewParam.obj
 0001:000e79e0       ?getClip@BaseViewParam@@QAEPAHXZ 004e89e0 f   BaseViewParam.obj
 0001:000e7a00       ?setX@BaseViewParam@@QAEXM@Z 004e8a00 f   BaseViewParam.obj
 0001:000e7a60       ?setY@BaseViewParam@@QAEXM@Z 004e8a60 f   BaseViewParam.obj
 0001:000e7aa0       ?addY@BaseViewParam@@QAEXM@Z 004e8aa0 f   BaseViewParam.obj
 0001:000e7af0       ?setSelfW@BaseViewParam@@QAE_NH_N@Z 004e8af0 f   BaseViewParam.obj
 0001:000e7b80       ?setSelfH@BaseViewParam@@UAE_NH_N@Z 004e8b80 f   BaseViewParam.obj
 0001:000e7c70       ?setSelfW@BaseViewParam@@QAE_NHD_N@Z 004e8c70 f   BaseViewParam.obj
 0001:000e7d80       ?setSelfH@BaseViewParam@@UAE_NHD_N@Z 004e8d80 f   BaseViewParam.obj
 0001:000e7ec0       ?getX@BaseViewParam@@QAEMXZ 004e8ec0 f   BaseViewParam.obj
 0001:000e7ee0       ?getY@BaseViewParam@@QAEMXZ 004e8ee0 f   BaseViewParam.obj
 0001:000e7f00       ?getAbsX@BaseViewParam@@QAEMPAVViewObj@@@Z 004e8f00 f   BaseViewParam.obj
 0001:000e7f70       ?getAbsY@BaseViewParam@@QAEMPAVViewObj@@@Z 004e8f70 f   BaseViewParam.obj
 0001:000e7fe0       ?getSelfW@BaseViewParam@@QAEHXZ 004e8fe0 f   BaseViewParam.obj
 0001:000e8000       ?getSelfH@BaseViewParam@@QAEHXZ 004e9000 f   BaseViewParam.obj
 0001:000e8020       ?getTotalW@BaseViewParam@@QAEMXZ 004e9020 f   BaseViewParam.obj
 0001:000e8040       ?getTotalH@BaseViewParam@@QAEMXZ 004e9040 f   BaseViewParam.obj
 0001:000e8060       ?getDefaultW@BaseViewParam@@QAEFXZ 004e9060 f   BaseViewParam.obj
 0001:000e8080       ?getDefaultH@BaseViewParam@@QAEFXZ 004e9080 f   BaseViewParam.obj
 0001:000e80a0       ?refreshWByChildren@BaseViewParam@@UAEX_N@Z 004e90a0 f   BaseViewParam.obj
 0001:000e81d0       ?refreshHByChildren@BaseViewParam@@UAEX_N@Z 004e91d0 f   BaseViewParam.obj
 0001:000e81e0       ?refreshWByParent@BaseViewParam@@QAEXD_N@Z 004e91e0 f   BaseViewParam.obj
 0001:000e82e0       ?refreshHByParent@BaseViewParam@@QAEXD_N@Z 004e92e0 f   BaseViewParam.obj
 0001:000e83d0       ?initScaleParam@BaseViewParam@@QAEXPAVBaseScaleParam@@@Z 004e93d0 f   BaseViewParam.obj
 0001:000e83f0       ?getBaseScaleParam@BaseViewParam@@QAEPAVBaseScaleParam@@XZ 004e93f0 f   BaseViewParam.obj
 0001:000e8790       ??_EBaseViewParam@@UAEPAXI@Z 004e9790 f i BaseViewParam.obj
 0001:000e8790       ??_GBaseViewParam@@UAEPAXI@Z 004e9790 f i BaseViewParam.obj
 0001:000e87d0       ??0TxtWinData@@QAE@PAVBaseContainer@@@Z 004e97d0 f   TxtWinData.obj
 0001:000e8870       ??1TxtWinData@@UAE@XZ      004e9870 f   TxtWinData.obj
 0001:000e8890       ?init@TxtWinData@@UAEXXZ   004e9890 f   TxtWinData.obj
 0001:000e88a0       ?getTitleView@TxtWinData@@QAEPAVViewObj@@XZ 004e98a0 f   TxtWinData.obj
 0001:000e88f0       ?getBottomView@TxtWinData@@QAEPAVViewObj@@XZ 004e98f0 f   TxtWinData.obj
 0001:000e8940       ?getPagePanel@TxtWinData@@QAEPAVViewObj@@XZ 004e9940 f   TxtWinData.obj
 0001:000e8980       ?getPageList@TxtWinData@@QAEPAV?$QList@PAVBaseContainer@@@@XZ 004e9980 f   TxtWinData.obj
 0001:000e89c0       ?getPageListNum@TxtWinData@@QAEHXZ 004e99c0 f   TxtWinData.obj
 0001:000e8a70       ??_GTxtWinData@@UAEPAXI@Z  004e9a70 f i TxtWinData.obj
 0001:000e8a70       ??_ETxtWinData@@UAEPAXI@Z  004e9a70 f i TxtWinData.obj
 0001:000e8ab0       ?loadSelfData@TxtWinData@@MAEXPAVBaseIOTools@@@Z 004e9ab0 f i TxtWinData.obj
 0001:000e8ac0       ?saveSelfData@TxtWinData@@MAEXPAVBaseIOTools@@@Z 004e9ac0 f i TxtWinData.obj
 0001:000e8ad0       ??0BaseLogic@@QAE@PAVBaseContainer@@H@Z 004e9ad0 f   BaseLogic.obj
 0001:000e8b10       ??1BaseLogic@@UAE@XZ       004e9b10 f   BaseLogic.obj
 0001:000e8b30       ?getTime@BaseLogic@@QAEHXZ 004e9b30 f   BaseLogic.obj
 0001:000e8b50       ?addTime@BaseLogic@@QAEXXZ 004e9b50 f   BaseLogic.obj
 0001:000e8b80       ?clearTime@BaseLogic@@QAEXXZ 004e9b80 f   BaseLogic.obj
 0001:000e8ba0       ?setBlock@BaseLogic@@QAEX_N@Z 004e9ba0 f   BaseLogic.obj
 0001:000e8bc0       ?isBlock@BaseLogic@@QAE_NXZ 004e9bc0 f   BaseLogic.obj
 0001:000e8be0       ?refreshLogic@BaseLogic@@UAEXXZ 004e9be0 f   BaseLogic.obj
 0001:000e8c40       ??_GBaseLogic@@UAEPAXI@Z   004e9c40 f i BaseLogic.obj
 0001:000e8c40       ??_EBaseLogic@@UAEPAXI@Z   004e9c40 f i BaseLogic.obj
 0001:000e8c80       ??0BaseChildrenManager@@QAE@PAVBaseContainer@@@Z 004e9c80 f   BaseChildrenManager.obj
 0001:000e8d00       ??0BaseChildrenManager@@QAE@PAVBaseContainer@@H@Z 004e9d00 f   BaseChildrenManager.obj
 0001:000e8d80       ??0BaseChildrenManager@@QAE@PAVBaseContainer@@PAV0@@Z 004e9d80 f   BaseChildrenManager.obj
 0001:000e8e70       ??1BaseChildrenManager@@UAE@XZ 004e9e70 f   BaseChildrenManager.obj
 0001:000e8ed0       ?recycleChildren@BaseChildrenManager@@MAEXXZ 004e9ed0 f   BaseChildrenManager.obj
 0001:000e8f00       ?haveChildren@BaseChildrenManager@@QAEDXZ 004e9f00 f   BaseChildrenManager.obj
 0001:000e8f30       ?setChildWriteManger@BaseChildrenManager@@QAEXPAVWriterManager@@@Z 004e9f30 f   BaseChildrenManager.obj
 0001:000e8fa0       ?swapChild@BaseChildrenManager@@QAEXPAVBaseContainer@@0@Z 004e9fa0 f   BaseChildrenManager.obj
 0001:000e8ff0       ?createChildren@BaseChildrenManager@@IAEXXZ 004e9ff0 f   BaseChildrenManager.obj
 0001:000e90a0       ?directAddChild@BaseChildrenManager@@AAEXPAVBaseContainer@@H_N@Z 004ea0a0 f   BaseChildrenManager.obj
 0001:000e9280       ?directAddChildren@BaseChildrenManager@@AAEXPAV?$QList@PAVBaseContainer@@@@HHH_N@Z 004ea280 f   BaseChildrenManager.obj
 0001:000e9640       ?directDelChild@BaseChildrenManager@@AAEHH_N@Z 004ea640 f   BaseChildrenManager.obj
 0001:000e96d0       ?directDelChild@BaseChildrenManager@@AAEHPAVBaseContainer@@_N@Z 004ea6d0 f   BaseChildrenManager.obj
 0001:000e9750       ?directDelChildren@BaseChildrenManager@@AAEHHH_N@Z 004ea750 f   BaseChildrenManager.obj
 0001:000e9840       ?swapChild@BaseChildrenManager@@AAEHPAVBaseContainer@@H@Z 004ea840 f   BaseChildrenManager.obj
 0001:000e98a0       ?swapChildren@BaseChildrenManager@@AAE_NPAV?$QList@PAVBaseContainer@@@@HHHPAV?$QList@H@@@Z 004ea8a0 f   BaseChildrenManager.obj
 0001:000e9960       ?pushChild@BaseChildrenManager@@QAEXPAVBaseContainer@@_N@Z 004ea960 f   BaseChildrenManager.obj
 0001:000e9980       ?addChild@BaseChildrenManager@@UAE_NPAVBaseContainer@@H_N@Z 004ea980 f   BaseChildrenManager.obj
 0001:000e99b0       ?addChildren@BaseChildrenManager@@UAEXPAV?$QList@PAVBaseContainer@@@@HHH_N@Z 004ea9b0 f   BaseChildrenManager.obj
 0001:000e99e0       ?delChild@BaseChildrenManager@@UAEHH_N@Z 004ea9e0 f   BaseChildrenManager.obj
 0001:000e9a00       ?delChild@BaseChildrenManager@@UAEHPAVBaseContainer@@_N@Z 004eaa00 f   BaseChildrenManager.obj
 0001:000e9a20       ?delChildren@BaseChildrenManager@@UAEHHH_N@Z 004eaa20 f   BaseChildrenManager.obj
 0001:000e9a50       ?getChild@BaseChildrenManager@@QAEPAVBaseContainer@@H@Z 004eaa50 f   BaseChildrenManager.obj
 0001:000e9a70       ?getFirstChild@BaseChildrenManager@@QAEPAVBaseContainer@@XZ 004eaa70 f   BaseChildrenManager.obj
 0001:000e9a90       ?getLastChild@BaseChildrenManager@@QAEPAVBaseContainer@@XZ 004eaa90 f   BaseChildrenManager.obj
 0001:000e9ae0       ?getChildren@BaseChildrenManager@@QAEPAV?$QList@PAVBaseContainer@@@@XZ 004eaae0 f   BaseChildrenManager.obj
 0001:000e9b00       ?getChildrenSize@BaseChildrenManager@@QAEHXZ 004eab00 f   BaseChildrenManager.obj
 0001:000e9ff0       ??_GBaseChildrenManager@@UAEPAXI@Z 004eaff0 f i BaseChildrenManager.obj
 0001:000e9ff0       ??_EBaseChildrenManager@@UAEPAXI@Z 004eaff0 f i BaseChildrenManager.obj
 0001:000ea030       ?swap@?$QList@PAVBaseContainer@@@@QAEXHH@Z 004eb030 f i BaseChildrenManager.obj
 0001:000ea130       ??0RelativeChildrenParam@@QAE@PAVViewObj@@D0@Z 004eb130 f   RelativeChildrenParam.obj
 0001:000ea190       ??0RelativeChildrenParam@@QAE@PAVViewObj@@D0D0PAH@Z 004eb190 f   RelativeChildrenParam.obj
 0001:000ea1f0       ??1RelativeChildrenParam@@QAE@XZ 004eb1f0 f   RelativeChildrenParam.obj
 0001:000ea250       ?replace@RelativeChildrenParam@@QAEX_N@Z 004eb250 f   RelativeChildrenParam.obj
 0001:000ea280       ?getX@RelativeChildrenParam@@QAEMXZ 004eb280 f   RelativeChildrenParam.obj
 0001:000ea2b0       ?getY@RelativeChildrenParam@@QAEMXZ 004eb2b0 f   RelativeChildrenParam.obj
 0001:000ea2d0       ?getAreaValue@RelativeChildrenParam@@AAEMM@Z 004eb2d0 f   RelativeChildrenParam.obj
 0001:000ea320       ?replaceSingle@RelativeChildrenParam@@AAEXXZ 004eb320 f   RelativeChildrenParam.obj
 0001:000ea790       ?replaceBetween@RelativeChildrenParam@@AAEX_N@Z 004eb790 f   RelativeChildrenParam.obj
 0001:000eb220       ??0ImgViewParam@@QAE@PAVViewObj@@@Z 004ec220 f   ImgViewParam.obj
 0001:000eb260       ??0ImgViewParam@@QAE@PAVViewObj@@PAV0@@Z 004ec260 f   ImgViewParam.obj
 0001:000eb2b0       ??1ImgViewParam@@UAE@XZ    004ec2b0 f   ImgViewParam.obj
 0001:000eb2d0       ?setSourceW@ImgViewParam@@QAEXH@Z 004ec2d0 f   ImgViewParam.obj
 0001:000eb2f0       ?setSourceH@ImgViewParam@@QAEXH@Z 004ec2f0 f   ImgViewParam.obj
 0001:000eb310       ?getSourceW@ImgViewParam@@QAEMXZ 004ec310 f   ImgViewParam.obj
 0001:000eb330       ?getSourceH@ImgViewParam@@QAEMXZ 004ec330 f   ImgViewParam.obj
 0001:000eb3a0       ??_GImgViewParam@@UAEPAXI@Z 004ec3a0 f i ImgViewParam.obj
 0001:000eb3a0       ??_EImgViewParam@@UAEPAXI@Z 004ec3a0 f i ImgViewParam.obj
 0001:000eb3e0       ??0LayoutViewParam@@QAE@PAVViewObj@@@Z 004ec3e0 f   LayoutViewParam.obj
 0001:000eb470       ??0LayoutViewParam@@QAE@PAVViewObj@@H@Z 004ec470 f   LayoutViewParam.obj
 0001:000eb500       ??1LayoutViewParam@@UAE@XZ 004ec500 f   LayoutViewParam.obj
 0001:000eb520       ?initInside@LayoutViewParam@@QAEXHHHH@Z 004ec520 f   LayoutViewParam.obj
 0001:000eb570       ?initMinH@LayoutViewParam@@QAEXH@Z 004ec570 f   LayoutViewParam.obj
 0001:000eb590       ?getInsideLeft@LayoutViewParam@@QAEHXZ 004ec590 f   LayoutViewParam.obj
 0001:000eb5b0       ?setInsideLeft@LayoutViewParam@@QAEXH@Z 004ec5b0 f   LayoutViewParam.obj
 0001:000eb5d0       ?getInsideRight@LayoutViewParam@@QAEHXZ 004ec5d0 f   LayoutViewParam.obj
 0001:000eb5f0       ?setInsideRight@LayoutViewParam@@QAEXH@Z 004ec5f0 f   LayoutViewParam.obj
 0001:000eb610       ?setInsideTop@LayoutViewParam@@QAEXH@Z 004ec610 f   LayoutViewParam.obj
 0001:000eb630       ?setInsideBottom@LayoutViewParam@@QAEXH@Z 004ec630 f   LayoutViewParam.obj
 0001:000eb650       ?getInsideTop@LayoutViewParam@@QAEHXZ 004ec650 f   LayoutViewParam.obj
 0001:000eb670       ?getInsideBottom@LayoutViewParam@@QAEHXZ 004ec670 f   LayoutViewParam.obj
 0001:000eb690       ?getInsideW@LayoutViewParam@@QAEHXZ 004ec690 f   LayoutViewParam.obj
 0001:000eb6b0       ?getInsideH@LayoutViewParam@@QAEHXZ 004ec6b0 f   LayoutViewParam.obj
 0001:000eb6d0       ?refreshPreInsideW@LayoutViewParam@@QAEXXZ 004ec6d0 f   LayoutViewParam.obj
 0001:000eb6f0       ?refreshPreInsideH@LayoutViewParam@@QAEXXZ 004ec6f0 f   LayoutViewParam.obj
 0001:000eb710       ?getPreInsideW@LayoutViewParam@@QAEHXZ 004ec710 f   LayoutViewParam.obj
 0001:000eb730       ?setPreInsideH@LayoutViewParam@@QAEXH@Z 004ec730 f   LayoutViewParam.obj
 0001:000eb750       ?getPreInsideH@LayoutViewParam@@QAEHXZ 004ec750 f   LayoutViewParam.obj
 0001:000eb770       ?refreshInsideW@LayoutViewParam@@QAEXD@Z 004ec770 f   LayoutViewParam.obj
 0001:000eb820       ?refreshInsideH@LayoutViewParam@@QAEXD@Z 004ec820 f   LayoutViewParam.obj
 0001:000eb8e0       ?setInsideW@LayoutViewParam@@QAEXHD@Z 004ec8e0 f   LayoutViewParam.obj
 0001:000eb910       ?setInsideH@LayoutViewParam@@QAEXHD@Z 004ec910 f   LayoutViewParam.obj
 0001:000eb950       ?judgeCanResetHByChildren@LayoutViewParam@@QAE_NH@Z 004ec950 f   LayoutViewParam.obj
 0001:000eb990       ?refreshWByChildren@LayoutViewParam@@UAEX_N@Z 004ec990 f   LayoutViewParam.obj
 0001:000ebb50       ?refreshHByChildren@LayoutViewParam@@UAEX_N@Z 004ecb50 f   LayoutViewParam.obj
 0001:000ebd40       ?getChildrenW@LayoutViewParam@@UAEMXZ 004ecd40 f   LayoutViewParam.obj
 0001:000ebd50       ?getChildrenRowH@LayoutViewParam@@UAEMXZ 004ecd50 f   LayoutViewParam.obj
 0001:000ebfc0       ??_ELayoutViewParam@@UAEPAXI@Z 004ecfc0 f i LayoutViewParam.obj
 0001:000ebfc0       ??_GLayoutViewParam@@UAEPAXI@Z 004ecfc0 f i LayoutViewParam.obj
 0001:000ec000       ??0RowViewParam@@QAE@PAVViewObj@@@Z 004ed000 f   RowViewParam.obj
 0001:000ec070       ??1RowViewParam@@UAE@XZ    004ed070 f   RowViewParam.obj
 0001:000ec090       ?judgeChangeParagraph@RowViewParam@@AAE_NXZ 004ed090 f   RowViewParam.obj
 0001:000ec0c0       ?getCrossY@RowViewParam@@QAEMPAVViewObj@@@Z 004ed0c0 f   RowViewParam.obj
 0001:000ec130       ?getDescent@RowViewParam@@QAEHXZ 004ed130 f   RowViewParam.obj
 0001:000ec150       ?refreshVerticalParamByChildren@RowViewParam@@QAEXXZ 004ed150 f   RowViewParam.obj
 0001:000ec250       ?refreshHByChildren@RowViewParam@@UAEX_N@Z 004ed250 f   RowViewParam.obj
 0001:000ec510       ?refreshWByChildren@RowViewParam@@UAEX_N@Z 004ed510 f   RowViewParam.obj
 0001:000ec640       ?getChildrenW@RowViewParam@@UAEMXZ 004ed640 f   RowViewParam.obj
 0001:000ec6f0       ?getEffectL@RowViewParam@@QAEHPAVViewObj@@@Z 004ed6f0 f   RowViewParam.obj
 0001:000ec7f0       ?getEffectW@RowViewParam@@QAEHPAVViewObj@@@Z 004ed7f0 f   RowViewParam.obj
 0001:000ec8c0       ?getDistanceWithPreRow@RowViewParam@@QAEMXZ 004ed8c0 f   RowViewParam.obj
 0001:000ec930       ?getDistanceWithNextRow@RowViewParam@@QAEMXZ 004ed930 f   RowViewParam.obj
 0001:000ecc10       ??_GRowViewParam@@UAEPAXI@Z 004edc10 f i RowViewParam.obj
 0001:000ecc10       ??_ERowViewParam@@UAEPAXI@Z 004edc10 f i RowViewParam.obj
 0001:000ecc50       ??0TxtViewParam@@QAE@PAVViewObj@@@Z 004edc50 f   TxtViewParam.obj
 0001:000eccb0       ??0TxtViewParam@@QAE@PAVViewObj@@PAV0@@Z 004edcb0 f   TxtViewParam.obj
 0001:000ecd10       ??1TxtViewParam@@UAE@XZ    004edd10 f   TxtViewParam.obj
 0001:000ecd30       ?getAscent@TxtViewParam@@QAEHXZ 004edd30 f   TxtViewParam.obj
 0001:000ecd50       ?setAscent@TxtViewParam@@QAEXH@Z 004edd50 f   TxtViewParam.obj
 0001:000ecd70       ?getDescent@TxtViewParam@@QAEHXZ 004edd70 f   TxtViewParam.obj
 0001:000ecd90       ?setDescent@TxtViewParam@@QAEXH@Z 004edd90 f   TxtViewParam.obj
 0001:000ece00       ??_GTxtViewParam@@UAEPAXI@Z 004ede00 f i TxtViewParam.obj
 0001:000ece00       ??_ETxtViewParam@@UAEPAXI@Z 004ede00 f i TxtViewParam.obj
 0001:000ece40       ??0VerticalViewParam@@QAE@PAVViewObj@@@Z 004ede40 f   VerticalViewParam.obj
 0001:000ece80       ??1VerticalViewParam@@UAE@XZ 004ede80 f   VerticalViewParam.obj
 0001:000ecea0       ?getChildrenDis@VerticalViewParam@@QAEHXZ 004edea0 f   VerticalViewParam.obj
 0001:000ecec0       ?setChildrenDis@VerticalViewParam@@QAEXH@Z 004edec0 f   VerticalViewParam.obj
 0001:000ecee0       ?getChildrenRowH@VerticalViewParam@@UAEMXZ 004edee0 f   VerticalViewParam.obj
 0001:000ed010       ?refreshHByChildren@VerticalViewParam@@UAEX_N@Z 004ee010 f   VerticalViewParam.obj
 0001:000ed2f0       ??_GVerticalViewParam@@UAEPAXI@Z 004ee2f0 f i VerticalViewParam.obj
 0001:000ed2f0       ??_EVerticalViewParam@@UAEPAXI@Z 004ee2f0 f i VerticalViewParam.obj
 0001:000ed330       ??0BaseDraw@@QAE@PAVViewObj@@H@Z 004ee330 f   BaseDraw.obj
 0001:000ed370       ??0BaseDraw@@QAE@PAVViewObj@@PAV0@@Z 004ee370 f   BaseDraw.obj
 0001:000ed3b0       ??1BaseDraw@@UAE@XZ        004ee3b0 f   BaseDraw.obj
 0001:000ed3d0       ?getRowParam@BaseDraw@@QAEPAVRowViewParam@@XZ 004ee3d0 f   BaseDraw.obj
 0001:000ed400       ?setViewOwner@BaseDraw@@QAEXPAVViewObj@@@Z 004ee400 f   BaseDraw.obj
 0001:000ed420       ?draw@BaseDraw@@UAE_NAAVQPainter@@HHHH@Z 004ee420 f   BaseDraw.obj
 0001:000ed470       ??_GBaseDraw@@UAEPAXI@Z    004ee470 f i BaseDraw.obj
 0001:000ed470       ??_EBaseDraw@@UAEPAXI@Z    004ee470 f i BaseDraw.obj
 0001:000ed4b0       ??0DrawRect@@QAE@PAVViewObj@@DHHF_N@Z 004ee4b0 f   DrawRect.obj
 0001:000ed670       ??0DrawRect@@QAE@PAVViewObj@@PAV0@@Z 004ee670 f   DrawRect.obj
 0001:000ed760       ??1DrawRect@@UAE@XZ        004ee760 f   DrawRect.obj
 0001:000ed7d0       ?initLineViewType@DrawRect@@QAEXDDDD@Z 004ee7d0 f   DrawRect.obj
 0001:000ed810       ?drawLines@DrawRect@@QAE_NAAVQPainter@@HHHH@Z 004ee810 f   DrawRect.obj
 0001:000ed930       ?draw@DrawRect@@UAE_NAAVQPainter@@HHHH@Z 004ee930 f   DrawRect.obj
 0001:000edb50       ?getFillRectType@DrawRect@@QAEDXZ 004eeb50 f   DrawRect.obj
 0001:000edb70       ?setFillRectType@DrawRect@@QAEXD@Z 004eeb70 f   DrawRect.obj
 0001:000edbb0       ?getRoundLineColor@DrawRect@@QAEPAVQColor@@XZ 004eebb0 f   DrawRect.obj
 0001:000edbd0       ?getRoundLineThick@DrawRect@@QAEHXZ 004eebd0 f   DrawRect.obj
 0001:000edbf0       ?setRoundLineThick@DrawRect@@QAEXH@Z 004eebf0 f   DrawRect.obj
 0001:000edc10       ?getTopLineViewType@DrawRect@@QAEDXZ 004eec10 f   DrawRect.obj
 0001:000edc30       ?setTopLineViewType@DrawRect@@QAEXD@Z 004eec30 f   DrawRect.obj
 0001:000edc50       ?getBottomLineViewType@DrawRect@@QAEDXZ 004eec50 f   DrawRect.obj
 0001:000edc70       ?setBottomLineViewType@DrawRect@@QAEXD@Z 004eec70 f   DrawRect.obj
 0001:000edc90       ?getLeftLineViewType@DrawRect@@QAEDXZ 004eec90 f   DrawRect.obj
 0001:000edcb0       ?setLeftLineViewType@DrawRect@@QAEXD@Z 004eecb0 f   DrawRect.obj
 0001:000edcd0       ?getRightLineViewType@DrawRect@@QAEDXZ 004eecd0 f   DrawRect.obj
 0001:000edcf0       ?setRightLineViewType@DrawRect@@QAEXD@Z 004eecf0 f   DrawRect.obj
 0001:000edd10       ?setBackGroundColor@DrawRect@@QAEXH@Z 004eed10 f   DrawRect.obj
 0001:000edd50       ?setRoundLineColor@DrawRect@@QAEXH@Z 004eed50 f   DrawRect.obj
 0001:000edd90       ?getRoundLineIntColor@DrawRect@@QAEHXZ 004eed90 f   DrawRect.obj
 0001:000eddb0       ?getBackGroundIntColor@DrawRect@@QAEHXZ 004eedb0 f   DrawRect.obj
 0001:000eddd0       ?saveSelfData@DrawRect@@QAEXPAVBaseIOTools@@@Z 004eedd0 f   DrawRect.obj
 0001:000edea0       ?loadSelfData@DrawRect@@QAEXPAVBaseIOTools@@@Z 004eeea0 f   DrawRect.obj
 0001:000edf80       ?initExcelCellPropertyMap@DrawRect@@SAXAAV?$QMap@VQString@@V1@@@PAVViewObj@@@Z 004eef80 f   DrawRect.obj
 0001:000ee3e0       ?setExcelCellPropertyByMap@DrawRect@@SAXAAV?$QMap@VQString@@V1@@@PAVViewObj@@@Z 004ef3e0 f   DrawRect.obj
 0001:000ee7b0       ?initExcelPropertyMap@DrawRect@@SAHAAV?$QMap@VQString@@V1@@@PAVViewObj@@@Z 004ef7b0 f   DrawRect.obj
 0001:000ee940       ?setExcelPropertyByMap@DrawRect@@SAXAAV?$QMap@VQString@@V1@@@PAVViewObj@@@Z 004ef940 f   DrawRect.obj
 0001:000ef160       ??_EDrawRect@@UAEPAXI@Z    004f0160 f i DrawRect.obj
 0001:000ef160       ??_GDrawRect@@UAEPAXI@Z    004f0160 f i DrawRect.obj
 0001:000ef1a0       ??0TxtWindowMouse@@QAE@PAVViewObj@@@Z 004f01a0 f   TxtWindowMouse.obj
 0001:000ef270       ??1TxtWindowMouse@@UAE@XZ  004f0270 f   TxtWindowMouse.obj
 0001:000ef320       ?mousePress@TxtWindowMouse@@UAEHHHH@Z 004f0320 f   TxtWindowMouse.obj
 0001:000ef350       ?mouseRelease@TxtWindowMouse@@UAEHHHH@Z 004f0350 f   TxtWindowMouse.obj
 0001:000ef4a0       ?mouseDrag@TxtWindowMouse@@UAEHHHH@Z 004f04a0 f   TxtWindowMouse.obj
 0001:000ef660       ?mouseMove@TxtWindowMouse@@UAEHHHH@Z 004f0660 f   TxtWindowMouse.obj
 0001:000ef670       ?mouseDoublePress@TxtWindowMouse@@UAEHHHH@Z 004f0670 f   TxtWindowMouse.obj
 0001:000ef6b0       ?judgeInitPagePanel@TxtWindowMouse@@AAEXXZ 004f06b0 f   TxtWindowMouse.obj
 0001:000ef6f0       ?getFocusPage@TxtWindowMouse@@AAEPAVViewObj@@PAV?$QList@PAVBaseContainer@@@@AAH1@Z 004f06f0 f   TxtWindowMouse.obj
 0001:000ef8e0       ?doPress@TxtWindowMouse@@AAEHDHH@Z 004f08e0 f   TxtWindowMouse.obj
 0001:000efa50       ?getPagePartTxtLayer@TxtWindowMouse@@AAEPAVViewObj@@DPAV2@AAH1@Z 004f0a50 f   TxtWindowMouse.obj
 0001:000efd10       ?judgePart@TxtWindowMouse@@AAEPAVViewObj@@DPAV2@HH@Z 004f0d10 f   TxtWindowMouse.obj
 0001:000eff10       ?getPointInsideRow@TxtWindowMouse@@AAEPAVViewObj@@PAV2@PAV?$QList@PAVBaseContainer@@@@AAH2@Z 004f0f10 f   TxtWindowMouse.obj
 0001:000f0150       ?getPointInsideObj@TxtWindowMouse@@AAEPAVViewObj@@PAVOperateMgr@@PAV?$QList@PAVBaseContainer@@@@HHAADD@Z 004f1150 f   TxtWindowMouse.obj
 0001:000f0780       ??_GTxtWindowMouse@@UAEPAXI@Z 004f1780 f i TxtWindowMouse.obj
 0001:000f0780       ??_ETxtWindowMouse@@UAEPAXI@Z 004f1780 f i TxtWindowMouse.obj
 0001:000f07c0       ??0BaseLayout@@QAE@PAVViewObj@@H@Z 004f17c0 f   BaseLayout.obj
 0001:000f0800       ??0BaseLayout@@QAE@PAVViewObj@@@Z 004f1800 f   BaseLayout.obj
 0001:000f0840       ??1BaseLayout@@UAE@XZ      004f1840 f   BaseLayout.obj
 0001:000f0870       ?replaceByType@BaseLayout@@QAEXD@Z 004f1870 f   BaseLayout.obj
 0001:000f08d0       ?addChild@BaseLayout@@UAEXPAVBaseContainer@@H_ND@Z 004f18d0 f   BaseLayout.obj
 0001:000f0980       ?addChildren@BaseLayout@@UAEXPAV?$QList@PAVBaseContainer@@@@HHH_ND@Z 004f1980 f   BaseLayout.obj
 0001:000f0a90       ?delChild@BaseLayout@@UAEHPAVBaseContainer@@_ND@Z 004f1a90 f   BaseLayout.obj
 0001:000f0b20       ?delChildren@BaseLayout@@UAEHHH_ND@Z 004f1b20 f   BaseLayout.obj
 0001:000f0c10       ?replaceChildren@BaseLayout@@UAEXXZ 004f1c10 f   BaseLayout.obj
 0001:000f0c30       ?getViewOwner@BaseLayout@@QAEPAVViewObj@@XZ 004f1c30 f   BaseLayout.obj
 0001:000f0c50       ?openReplace@BaseLayout@@QAEXXZ 004f1c50 f   BaseLayout.obj
 0001:000f0c70       ?closeReplace@BaseLayout@@QAEXXZ 004f1c70 f   BaseLayout.obj
 0001:000f0c90       ?isRelativeLayout@BaseLayout@@QAE_NXZ 004f1c90 f   BaseLayout.obj
 0001:000f0cc0       ?getNextLayout@BaseLayout@@UAEPAV1@_N@Z 004f1cc0 f   BaseLayout.obj
 0001:000f0d60       ?judgeRemovePage@BaseLayout@@AAEXPAVBaseContainer@@@Z 004f1d60 f   BaseLayout.obj
 0001:000f0e30       ?judgeAddPage@BaseLayout@@AAEXPAVBaseContainer@@@Z 004f1e30 f   BaseLayout.obj
 0001:000f0ea0       ?canReplace@BaseLayout@@IAE_NXZ 004f1ea0 f   BaseLayout.obj
 0001:000f0ee0       ?createNextLayout@BaseLayout@@MAEPAV1@XZ 004f1ee0 f   BaseLayout.obj
 0001:000f0ef0       ?judgeRefreshPageNum@BaseLayout@@AAEXH@Z 004f1ef0 f   BaseLayout.obj
 0001:000f1080       ?replaceNumber@BaseLayout@@AAEX_NPAVViewObj@@@Z 004f2080 f   BaseLayout.obj
 0001:000f1350       ??_GBaseLayout@@UAEPAXI@Z  004f2350 f i BaseLayout.obj
 0001:000f1350       ??_EBaseLayout@@UAEPAXI@Z  004f2350 f i BaseLayout.obj
 0001:000f1390       ??0BaseTxtLayerLayout@@QAE@PAVViewObj@@H@Z 004f2390 f   BaseTxtLayerLayout.obj
 0001:000f13c0       ??1BaseTxtLayerLayout@@UAE@XZ 004f23c0 f   BaseTxtLayerLayout.obj
 0001:000f13e0       ?replaceChildren@BaseTxtLayerLayout@@UAEXXZ 004f23e0 f   BaseTxtLayerLayout.obj
 0001:000f1570       ??_GBaseTxtLayerLayout@@UAEPAXI@Z 004f2570 f i BaseTxtLayerLayout.obj
 0001:000f1570       ??_EBaseTxtLayerLayout@@UAEPAXI@Z 004f2570 f i BaseTxtLayerLayout.obj
 0001:000f15b0       ??0PageContentTxtLayerLayout@@QAE@PAVViewObj@@@Z 004f25b0 f   PageContentTxtLayerLayout.obj
 0001:000f15f0       ??1PageContentTxtLayerLayout@@UAE@XZ 004f25f0 f   PageContentTxtLayerLayout.obj
 0001:000f1610       ?addChild@PageContentTxtLayerLayout@@UAEXPAVBaseContainer@@H_ND@Z 004f2610 f   PageContentTxtLayerLayout.obj
 0001:000f1660       ?addChildren@PageContentTxtLayerLayout@@UAEXPAV?$QList@PAVBaseContainer@@@@HHH_ND@Z 004f2660 f   PageContentTxtLayerLayout.obj
 0001:000f1690       ?replaceChildren@PageContentTxtLayerLayout@@UAEXXZ 004f2690 f   PageContentTxtLayerLayout.obj
 0001:000f1750       ?delChild@PageContentTxtLayerLayout@@UAEHPAVBaseContainer@@_ND@Z 004f2750 f   PageContentTxtLayerLayout.obj
 0001:000f1800       ?delChildren@PageContentTxtLayerLayout@@UAEHHH_ND@Z 004f2800 f   PageContentTxtLayerLayout.obj
 0001:000f1930       ?delChildWithOutClearCrossParents@PageContentTxtLayerLayout@@QAEXPAVBaseContainer@@_ND@Z 004f2930 f   PageContentTxtLayerLayout.obj
 0001:000f1960       ?delChildrenWithOutClearCrossParents@PageContentTxtLayerLayout@@QAEXHH_ND@Z 004f2960 f   PageContentTxtLayerLayout.obj
 0001:000f1990       ?getPreLayout@PageContentTxtLayerLayout@@QAEPAV1@XZ 004f2990 f   PageContentTxtLayerLayout.obj
 0001:000f1a30       ?replaceTitleBottomLayer@PageContentTxtLayerLayout@@AAEXXZ 004f2a30 f   PageContentTxtLayerLayout.obj
 0001:000f1d20       ?replaceContentLayer@PageContentTxtLayerLayout@@AAEXXZ 004f2d20 f   PageContentTxtLayerLayout.obj
 0001:000f2830       ?replaceExcelLayer@PageContentTxtLayerLayout@@AAEXXZ 004f3830 f   PageContentTxtLayerLayout.obj
 0001:000f2ba0       ?isExcelRowFirstPage@PageContentTxtLayerLayout@@AAE_NPAVViewObj@@HPAVExcelCrossParentMgr@@@Z 004f3ba0 f   PageContentTxtLayerLayout.obj
 0001:000f2bf0       ?judgeCanHaveNum@PageContentTxtLayerLayout@@AAEHXZ 004f3bf0 f   PageContentTxtLayerLayout.obj
 0001:000f2c10       ?judgeNextPageIndent@PageContentTxtLayerLayout@@AAEHH@Z 004f3c10 f   PageContentTxtLayerLayout.obj
 0001:000f2f50       ?getNextLayout@PageContentTxtLayerLayout@@EAEPAVBaseLayout@@_N@Z 004f3f50 f   PageContentTxtLayerLayout.obj
 0001:000f3020       ?createNextLayout@PageContentTxtLayerLayout@@EAEPAVBaseLayout@@XZ 004f4020 f   PageContentTxtLayerLayout.obj
 0001:000f37e0       ??_GPageContentTxtLayerLayout@@UAEPAXI@Z 004f47e0 f i PageContentTxtLayerLayout.obj
 0001:000f37e0       ??_EPageContentTxtLayerLayout@@UAEPAXI@Z 004f47e0 f i PageContentTxtLayerLayout.obj
 0001:000f3820       ??0RowLayout@@QAE@PAVViewObj@@@Z 004f4820 f   RowLayout.obj
 0001:000f3890       ??1RowLayout@@UAE@XZ       004f4890 f   RowLayout.obj
 0001:000f38b0       ?getParagraph@RowLayout@@QAEPAVBaseParagraph@@XZ 004f48b0 f   RowLayout.obj
 0001:000f38e0       ?judgeCanHaveNumAfterAdd@RowLayout@@QAEHPAV?$QList@PAVBaseContainer@@@@HHH@Z 004f48e0 f   RowLayout.obj
 0001:000f3de0       ?judgeAddChildren@RowLayout@@QAEXPAV?$QList@PAVBaseContainer@@@@HHHD@Z 004f4de0 f   RowLayout.obj
 0001:000f46a0       ?addChildren@RowLayout@@UAEXPAV?$QList@PAVBaseContainer@@@@HHH_ND@Z 004f56a0 f   RowLayout.obj
 0001:000f4820       ?delChildren@RowLayout@@QAEHHH_N0@Z 004f5820 f   RowLayout.obj
 0001:000f4890       ?judgeLessThanCircle@RowLayout@@QAE_N_N@Z 004f5890 f   RowLayout.obj
 0001:000f4910       ?judgeOverFlowCircle@RowLayout@@QAEXXZ 004f5910 f   RowLayout.obj
 0001:000f4980       ?judgeLessThanCircleUntilObj@RowLayout@@QAE_NPAVBaseContainer@@@Z 004f5980 f   RowLayout.obj
 0001:000f4b80       ?judgeOverFlowCircleUntilObj@RowLayout@@QAEXPAVBaseContainer@@@Z 004f5b80 f   RowLayout.obj
 0001:000f4d80       ?replaceChildren@RowLayout@@UAEXXZ 004f5d80 f   RowLayout.obj
 0001:000f4fb0       ?getPreLayout@RowLayout@@QAEPAVBaseLayout@@_N@Z 004f5fb0 f   RowLayout.obj
 0001:000f5150       ?getNextLayout@RowLayout@@UAEPAVBaseLayout@@_N@Z 004f6150 f   RowLayout.obj
 0001:000f5310       ?createPreLayout@RowLayout@@AAEPAVBaseLayout@@XZ 004f6310 f   RowLayout.obj
 0001:000f53d0       ?createNextLayout@RowLayout@@EAEPAVBaseLayout@@XZ 004f63d0 f   RowLayout.obj
 0001:000f5490       ?judgeOverflow@RowLayout@@AAEPAV1@XZ 004f6490 f   RowLayout.obj
 0001:000f56f0       ?judgeLessThan@RowLayout@@AAEPAV1@AA_N_N@Z 004f66f0 f   RowLayout.obj
 0001:000f6350       ??_GRowLayout@@UAEPAXI@Z   004f7350 f i RowLayout.obj
 0001:000f6350       ??_ERowLayout@@UAEPAXI@Z   004f7350 f i RowLayout.obj
 0001:000f6390       ??0VerticalLayout@@QAE@PAVViewObj@@@Z 004f7390 f   VerticalLayout.obj
 0001:000f6400       ??0VerticalLayout@@QAE@PAVViewObj@@H@Z 004f7400 f   VerticalLayout.obj
 0001:000f6470       ??1VerticalLayout@@UAE@XZ  004f7470 f   VerticalLayout.obj
 0001:000f6490       ?replaceChildren@VerticalLayout@@UAEXXZ 004f7490 f   VerticalLayout.obj
 0001:000f6660       ??_GVerticalLayout@@UAEPAXI@Z 004f7660 f i VerticalLayout.obj
 0001:000f6660       ??_EVerticalLayout@@UAEPAXI@Z 004f7660 f i VerticalLayout.obj
 0001:000f66a0       ??0RelativeLayout@@QAE@PAVViewObj@@@Z 004f76a0 f   RelativeLayout.obj
 0001:000f6750       ??1RelativeLayout@@UAE@XZ  004f7750 f   RelativeLayout.obj
 0001:000f67d0       ?replaceChildren@RelativeLayout@@UAEXXZ 004f77d0 f   RelativeLayout.obj
 0001:000f69a0       ?addChild@RelativeLayout@@QAEXPAVViewObj@@H_NDPAVRelativeChildrenParam@@@Z 004f79a0 f   RelativeLayout.obj
 0001:000f6ba0       ??0?$QList@PAVRelativeChildrenParam@@@@QAE@XZ 004f7ba0 f i RelativeLayout.obj
 0001:000f6bc0       ??1?$QList@PAVRelativeChildrenParam@@@@QAE@XZ 004f7bc0 f i RelativeLayout.obj
 0001:000f6c00       ??4?$QList@PAVRelativeChildrenParam@@@@QAEAAV0@$$QAV0@@Z 004f7c00 f i RelativeLayout.obj
 0001:000f6c30       ??_G?$QList@PAVRelativeChildrenParam@@@@QAEPAXI@Z 004f7c30 f i RelativeLayout.obj
 0001:000f6c70       ??_GRelativeChildrenParam@@QAEPAXI@Z 004f7c70 f i RelativeLayout.obj
 0001:000f6cb0       ??_GRelativeLayout@@UAEPAXI@Z 004f7cb0 f i RelativeLayout.obj
 0001:000f6cb0       ??_ERelativeLayout@@UAEPAXI@Z 004f7cb0 f i RelativeLayout.obj
 0001:000f6cf0       ?append@?$QList@PAVRelativeChildrenParam@@@@QAEXABQAVRelativeChildrenParam@@@Z 004f7cf0 f i RelativeLayout.obj
 0001:000f6ec0       ?at@?$QList@PAVRelativeChildrenParam@@@@QBEABQAVRelativeChildrenParam@@H@Z 004f7ec0 f i RelativeLayout.obj
 0001:000f6f50       ?clear@?$QList@PAVRelativeChildrenParam@@@@QAEXXZ 004f7f50 f i RelativeLayout.obj
 0001:000f6fe0       ?dealloc@?$QList@PAVRelativeChildrenParam@@@@AAEXPAUData@QListData@@@Z 004f7fe0 f i RelativeLayout.obj
 0001:000f7030       ?detach_helper_grow@?$QList@PAVRelativeChildrenParam@@@@AAEPAUNode@1@HH@Z 004f8030 f i RelativeLayout.obj
 0001:000f7230       ?node_construct@?$QList@PAVRelativeChildrenParam@@@@AAEXPAUNode@1@ABQAVRelativeChildrenParam@@@Z 004f8230 f i RelativeLayout.obj
 0001:000f72f0       ?node_copy@?$QList@PAVRelativeChildrenParam@@@@AAEXPAUNode@1@00@Z 004f82f0 f i RelativeLayout.obj
 0001:000f7540       ?node_destruct@?$QList@PAVRelativeChildrenParam@@@@AAEXPAUNode@1@0@Z 004f8540 f i RelativeLayout.obj
 0001:000f75b0       ?node_destruct@?$QList@PAVRelativeChildrenParam@@@@AAEXPAUNode@1@@Z 004f85b0 f i RelativeLayout.obj
 0001:000f75e0       ?push_back@?$QList@PAVRelativeChildrenParam@@@@QAEXABQAVRelativeChildrenParam@@@Z 004f85e0 f i RelativeLayout.obj
 0001:000f7600       ?size@?$QList@PAVRelativeChildrenParam@@@@QBEHXZ 004f8600 f i RelativeLayout.obj
 0001:000f7620       ?t@Node@?$QList@PAVRelativeChildrenParam@@@@QAEAAPAVRelativeChildrenParam@@XZ 004f8620 f i RelativeLayout.obj
 0001:000f7650       ??0CrossParentMgr@@QAE@PAVViewObj@@@Z 004f8650 f   CrossParentMgr.obj
 0001:000f76d0       ??0CrossParentMgr@@QAE@PAVViewObj@@H@Z 004f86d0 f   CrossParentMgr.obj
 0001:000f7750       ??1CrossParentMgr@@UAE@XZ  004f8750 f   CrossParentMgr.obj
 0001:000f7780       ?init@CrossParentMgr@@AAEXXZ 004f8780 f   CrossParentMgr.obj
 0001:000f7820       ?setActiveParent@CrossParentMgr@@QAEXPAVViewObj@@@Z 004f8820 f   CrossParentMgr.obj
 0001:000f7840       ?getActiveParent@CrossParentMgr@@QAEPAVViewObj@@XZ 004f8840 f   CrossParentMgr.obj
 0001:000f7860       ?haveCrossParent@CrossParentMgr@@QAE_NXZ 004f8860 f   CrossParentMgr.obj
 0001:000f7890       ?addParent@CrossParentMgr@@QAEXPAVViewObj@@@Z 004f8890 f   CrossParentMgr.obj
 0001:000f7930       ?removeParent@CrossParentMgr@@QAEXPAVViewObj@@@Z 004f8930 f   CrossParentMgr.obj
 0001:000f7950       ?getFirstCrossParent@CrossParentMgr@@QAEPAVViewObj@@XZ 004f8950 f   CrossParentMgr.obj
 0001:000f7970       ?getLastCrossParent@CrossParentMgr@@QAEPAVViewObj@@XZ 004f8970 f   CrossParentMgr.obj
 0001:000f79a0       ?getCrossParents@CrossParentMgr@@QAEPAV?$QList@PAVViewObj@@@@XZ 004f89a0 f   CrossParentMgr.obj
 0001:000f7a90       ??_ECrossParentMgr@@UAEPAXI@Z 004f8a90 f i CrossParentMgr.obj
 0001:000f7a90       ??_GCrossParentMgr@@UAEPAXI@Z 004f8a90 f i CrossParentMgr.obj
 0001:000f7ad0       ?insert@?$QList@PAVViewObj@@@@QAEXHABQAVViewObj@@@Z 004f8ad0 f i CrossParentMgr.obj
 0001:000f7ca0       ?removeOne@?$QList@PAVViewObj@@@@QAE_NABQAVViewObj@@@Z 004f8ca0 f i CrossParentMgr.obj
 0001:000f7cf0       ??0ObjKeyManager@@QAE@PAVViewObj@@@Z 004f8cf0 f   ObjKeyManager.obj
 0001:000f7d30       ??0ObjKeyManager@@QAE@PAVViewObj@@H@Z 004f8d30 f   ObjKeyManager.obj
 0001:000f7d70       ??0ObjKeyManager@@QAE@PAVViewObj@@PAV0@@Z 004f8d70 f   ObjKeyManager.obj
 0001:000f7db0       ??1ObjKeyManager@@UAE@XZ   004f8db0 f   ObjKeyManager.obj
 0001:000f7e50       ?setKey@ObjKeyManager@@QAEXPAVBaseKey@@@Z 004f8e50 f   ObjKeyManager.obj
 0001:000f7ea0       ?keyPress@ObjKeyManager@@UAEHVQString@@@Z 004f8ea0 f   ObjKeyManager.obj
 0001:000f8030       ?keyRelease@ObjKeyManager@@UAEHVQString@@@Z 004f9030 f   ObjKeyManager.obj
 0001:000f82d0       ??_GObjKeyManager@@UAEPAXI@Z 004f92d0 f i ObjKeyManager.obj
 0001:000f82d0       ??_EObjKeyManager@@UAEPAXI@Z 004f92d0 f i ObjKeyManager.obj
 0001:000f8310       ??0LogicManager@@QAE@PAVBaseContainer@@@Z 004f9310 f   LogicManager.obj
 0001:000f83c0       ??0LogicManager@@QAE@PAVBaseContainer@@H@Z 004f93c0 f   LogicManager.obj
 0001:000f8470       ??1LogicManager@@UAE@XZ    004f9470 f   LogicManager.obj
 0001:000f8580       ?addLogic@LogicManager@@QAEXPAVBaseLogic@@@Z 004f9580 f   LogicManager.obj
 0001:000f85c0       ?doRefreshLogic@LogicManager@@QAEXXZ 004f95c0 f   LogicManager.obj
 0001:000f8620       ?getLogicByClassID@LogicManager@@QAEPAVBaseLogic@@H@Z 004f9620 f   LogicManager.obj
 0001:000f8690       ?myUpdate@LogicManager@@UAEHXZ 004f9690 f   LogicManager.obj
 0001:000f8810       ??_ELogicManager@@UAEPAXI@Z 004f9810 f i LogicManager.obj
 0001:000f8810       ??_GLogicManager@@UAEPAXI@Z 004f9810 f i LogicManager.obj
 0001:000f8850       ??0ObjMouseManager@@QAE@PAVViewObj@@@Z 004f9850 f   ObjMouseManager.obj
 0001:000f8890       ??0ObjMouseManager@@QAE@PAVViewObj@@H@Z 004f9890 f   ObjMouseManager.obj
 0001:000f88d0       ??0ObjMouseManager@@QAE@PAVViewObj@@PAV0@@Z 004f98d0 f   ObjMouseManager.obj
 0001:000f8970       ??1ObjMouseManager@@UAE@XZ 004f9970 f   ObjMouseManager.obj
 0001:000f8a10       ?setMiddleButtonParam@ObjMouseManager@@UAEHHHH@Z 004f9a10 f   ObjMouseManager.obj
 0001:000f8a50       ?mousePress@ObjMouseManager@@UAEHHHH@Z 004f9a50 f   ObjMouseManager.obj
 0001:000f8e40       ?mouseRelease@ObjMouseManager@@UAEHHHH@Z 004f9e40 f   ObjMouseManager.obj
 0001:000f9150       ?mouseMove@ObjMouseManager@@UAEHHHH@Z 004fa150 f   ObjMouseManager.obj
 0001:000f9460       ?mouseDrag@ObjMouseManager@@UAEHHHH@Z 004fa460 f   ObjMouseManager.obj
 0001:000f97b0       ?mouseDoublePress@ObjMouseManager@@UAEHHHH@Z 004fa7b0 f   ObjMouseManager.obj
 0001:000f9ac0       ?mouseScroll@ObjMouseManager@@UAEHH@Z 004faac0 f   ObjMouseManager.obj
 0001:000f9bb0       ?setMouse@ObjMouseManager@@QAEXPAVBaseMouse@@@Z 004fabb0 f   ObjMouseManager.obj
 0001:000f9c00       ?getMouse@ObjMouseManager@@QAEPAVBaseMouse@@XZ 004fac00 f   ObjMouseManager.obj
 0001:000f9c20       ?setFocus@ObjMouseManager@@QAEXPAVViewObj@@@Z 004fac20 f   ObjMouseManager.obj
 0001:000f9c60       ?getFocus@ObjMouseManager@@QAEPAVViewObj@@XZ 004fac60 f   ObjMouseManager.obj
 0001:000f9c80       ?getFocusPage@ObjMouseManager@@AAEPAVViewObj@@PAV2@HH@Z 004fac80 f   ObjMouseManager.obj
 0001:000f9e00       ?exchangeCrossPageExcelXYWhenFocusInput@ObjMouseManager@@AAEXPAVBaseViewParam@@AAH1@Z 004fae00 f   ObjMouseManager.obj
 0001:000fa600       ??_GObjMouseManager@@UAEPAXI@Z 004fb600 f i ObjMouseManager.obj
 0001:000fa600       ??_EObjMouseManager@@UAEPAXI@Z 004fb600 f i ObjMouseManager.obj
 0001:000fa640       ??0ObjDrawManager@@QAE@PAVViewObj@@@Z 004fb640 f   ObjDrawManager.obj
 0001:000fa700       ??0ObjDrawManager@@QAE@PAVViewObj@@H@Z 004fb700 f   ObjDrawManager.obj
 0001:000fa7c0       ??0ObjDrawManager@@QAE@PAVViewObj@@PAV0@@Z 004fb7c0 f   ObjDrawManager.obj
 0001:000fa910       ??1ObjDrawManager@@UAE@XZ  004fb910 f   ObjDrawManager.obj
 0001:000faa00       ?initDraws@ObjDrawManager@@QAEXPAVBaseDraw@@0@Z 004fba00 f   ObjDrawManager.obj
 0001:000faa20       ?initDraws@ObjDrawManager@@QAEXPAVBaseDraw@@0HHHH@Z 004fba20 f   ObjDrawManager.obj
 0001:000faa70       ?initDrawsParams@ObjDrawManager@@QAEXHHHH@Z 004fba70 f   ObjDrawManager.obj
 0001:000faab0       ?setBottomDraw@ObjDrawManager@@QAEXPAVBaseDraw@@@Z 004fbab0 f   ObjDrawManager.obj
 0001:000fab00       ?getBottomDraw@ObjDrawManager@@QAEPAVBaseDraw@@XZ 004fbb00 f   ObjDrawManager.obj
 0001:000fab20       ?draw@ObjDrawManager@@UAEHAAVQPainter@@HH_N@Z 004fbb20 f   ObjDrawManager.obj
 0001:000fb750       ?initDefaultParams@ObjDrawManager@@AAEXXZ 004fc750 f   ObjDrawManager.obj
 0001:000fbbe0       ??$_Move@AAPAU?$QTypedArrayData@VQRect@@@@@std@@YA$$QAPAU?$QTypedArrayData@VQRect@@@@AAPAU1@@Z 004fcbe0 f i ObjDrawManager.obj
 0001:000fbbf0       ??$qSwap@PAU?$QTypedArrayData@VQRect@@@@@@YAXAAPAU?$QTypedArrayData@VQRect@@@@0@Z 004fcbf0 f i ObjDrawManager.obj
 0001:000fbc10       ??$swap@PAU?$QTypedArrayData@VQRect@@@@@std@@YAXAAPAU?$QTypedArrayData@VQRect@@@@0@Z 004fcc10 f i ObjDrawManager.obj
 0001:000fbc60       ??0?$QVector@VQRect@@@@QAE@ABV0@@Z 004fcc60 f i ObjDrawManager.obj
 0001:000fbd90       ??0?$QVector@VQRect@@@@QAE@XZ 004fcd90 f i ObjDrawManager.obj
 0001:000fbdb0       ??1?$QVector@VQRect@@@@QAE@XZ 004fcdb0 f i ObjDrawManager.obj
 0001:000fbdf0       ??4?$QVector@VQRect@@@@QAE?AV0@$$QAV0@@Z 004fcdf0 f i ObjDrawManager.obj
 0001:000fbe40       ??_EObjDrawManager@@UAEPAXI@Z 004fce40 f i ObjDrawManager.obj
 0001:000fbe40       ??_GObjDrawManager@@UAEPAXI@Z 004fce40 f i ObjDrawManager.obj
 0001:000fbe80       ?allocate@?$QTypedArrayData@VQRect@@@@SAPAU1@IV?$QFlags@W4AllocationOption@QArrayData@@@@@Z 004fce80 f i ObjDrawManager.obj
 0001:000fbea0       ?append@?$QList@PAVStrContentData@@@@QAEXABQAVStrContentData@@@Z 004fcea0 f i ObjDrawManager.obj
 0001:000fc070       ?at@?$QVector@VQRect@@@@QBEABVQRect@@H@Z 004fd070 f i ObjDrawManager.obj
 0001:000fc100       ?begin@?$QTypedArrayData@VQRect@@@@QAEPAVQRect@@PAV2@@Z 004fd100 f i ObjDrawManager.obj
 0001:000fc120       ?copyConstruct@?$QVector@VQRect@@@@AAEXPBVQRect@@0PAV2@@Z 004fd120 f i ObjDrawManager.obj
 0001:000fc1f0       ?data@?$QTypedArrayData@VQRect@@@@QAEPAVQRect@@XZ 004fd1f0 f i ObjDrawManager.obj
 0001:000fc210       ?deallocate@?$QTypedArrayData@VQRect@@@@SAXPAUQArrayData@@@Z 004fd210 f i ObjDrawManager.obj
 0001:000fc230       ?destruct@?$QVector@VQRect@@@@AAEXPAVQRect@@0@Z 004fd230 f i ObjDrawManager.obj
 0001:000fc270       ?detach_helper_grow@?$QList@PAVStrContentData@@@@AAEPAUNode@1@HH@Z 004fd270 f i ObjDrawManager.obj
 0001:000fc470       ?end@?$QTypedArrayData@VQRect@@@@QAEPAVQRect@@PAV2@@Z 004fd470 f i ObjDrawManager.obj
 0001:000fc4a0       ?freeData@?$QVector@VQRect@@@@AAEXPAU?$QTypedArrayData@VQRect@@@@@Z 004fd4a0 f i ObjDrawManager.obj
 0001:000fc4f0       ?node_construct@?$QList@PAVStrContentData@@@@AAEXPAUNode@1@ABQAVStrContentData@@@Z 004fd4f0 f i ObjDrawManager.obj
 0001:000fc5b0       ?node_copy@?$QList@PAVStrContentData@@@@AAEXPAUNode@1@00@Z 004fd5b0 f i ObjDrawManager.obj
 0001:000fc800       ?node_destruct@?$QList@PAVStrContentData@@@@AAEXPAUNode@1@@Z 004fd800 f i ObjDrawManager.obj
 0001:000fc830       ?push_back@?$QList@PAVStrContentData@@@@QAEXABQAVStrContentData@@@Z 004fd830 f i ObjDrawManager.obj
 0001:000fc850       ?sharedNull@?$QTypedArrayData@VQRect@@@@SAPAU1@XZ 004fd850 f i ObjDrawManager.obj
 0001:000fc860       ?size@?$QVector@VQRect@@@@QBEHXZ 004fd860 f i ObjDrawManager.obj
 0001:000fc880       ??0TxtWinDrawManager@@QAE@PAVViewObj@@@Z 004fd880 f   TxtWinDrawManager.obj
 0001:000fc8c0       ??1TxtWinDrawManager@@UAE@XZ 004fd8c0 f   TxtWinDrawManager.obj
 0001:000fc8e0       ?draw@TxtWinDrawManager@@UAEHAAVQPainter@@HH_N@Z 004fd8e0 f   TxtWinDrawManager.obj
 0001:000fc930       ?drawFlag@TxtWinDrawManager@@AAEXAAVQPainter@@HH_N@Z 004fd930 f   TxtWinDrawManager.obj
 0001:000fd780       ??_ETxtWinDrawManager@@UAEPAXI@Z 004fe780 f i TxtWinDrawManager.obj
 0001:000fd780       ??_GTxtWinDrawManager@@UAEPAXI@Z 004fe780 f i TxtWinDrawManager.obj
 0001:000fd7c0       ??0ViewObj@@QAE@PAVWriterManager@@H@Z 004fe7c0 f   ViewObj.obj
 0001:000fd9b0       ??0ViewObj@@QAE@PAVWriterManager@@HH_N@Z 004fe9b0 f   ViewObj.obj
 0001:000fdb90       ??0ViewObj@@QAE@PAVWriterManager@@PAV0@@Z 004feb90 f   ViewObj.obj
 0001:000fdcf0       ??1ViewObj@@UAE@XZ         004fecf0 f   ViewObj.obj
 0001:000fdd20       ?initViewParam@ViewObj@@QAEXPAVBaseViewParam@@@Z 004fed20 f   ViewObj.obj
 0001:000fdd40       ?initDrawMgr@ViewObj@@QAEXPAVObjDrawManager@@@Z 004fed40 f   ViewObj.obj
 0001:000fdd60       ?initCrossParentMgr@ViewObj@@QAEXPAVCrossParentMgr@@@Z 004fed60 f   ViewObj.obj
 0001:000fdd80       ?getKeyMgr@ViewObj@@UAEPAVObjKeyManager@@XZ 004fed80 f   ViewObj.obj
 0001:000fdda0       ?getMouseMgr@ViewObj@@UAEPAVObjMouseManager@@XZ 004feda0 f   ViewObj.obj
 0001:000fddc0       ?getDrawMgr@ViewObj@@QAEPAVObjDrawManager@@XZ 004fedc0 f   ViewObj.obj
 0001:000fdde0       ?getCrossParentMgr@ViewObj@@QAEPAVCrossParentMgr@@XZ 004fede0 f   ViewObj.obj
 0001:000fde00       ?getExcelCrossParentMgr@ViewObj@@QAEPAVExcelCrossParentMgr@@XZ 004fee00 f   ViewObj.obj
 0001:000fde20       ?getViewParent@ViewObj@@UAEPAV1@XZ 004fee20 f   ViewObj.obj
 0001:000fde60       ?getParentTxtLayer@ViewObj@@QAEPAV1@_N@Z 004fee60 f   ViewObj.obj
 0001:000fdeb0       ?setViewIndex@ViewObj@@QAEXH@Z 004feeb0 f   ViewObj.obj
 0001:000fded0       ?refreshChildrenViewIndex@ViewObj@@QAEXH@Z 004feed0 f   ViewObj.obj
 0001:000fdf50       ?getViewParam@ViewObj@@QAEPAVBaseViewParam@@XZ 004fef50 f   ViewObj.obj
 0001:000fdf70       ?setRelativeParam@ViewObj@@QAEXPAVRelativeChildrenParam@@@Z 004fef70 f   ViewObj.obj
 0001:000fdf90       ?getRelativeParam@ViewObj@@QAEPAVRelativeChildrenParam@@XZ 004fef90 f   ViewObj.obj
 0001:000fdfb0       ?getLayout@ViewObj@@QAEPAVBaseLayout@@XZ 004fefb0 f   ViewObj.obj
 0001:000fdfd0       ?getParentPage@ViewObj@@QAEPAV1@XZ 004fefd0 f   ViewObj.obj
 0001:000fe020       ?getParentPagePanel@ViewObj@@QAEPAV1@XZ 004ff020 f   ViewObj.obj
 0001:000fe040       ?getWindow@ViewObj@@QAEPAV1@XZ 004ff040 f   ViewObj.obj
 0001:000fe0a0       ?getWinData@ViewObj@@QAEPAVTxtWinData@@XZ 004ff0a0 f   ViewObj.obj
 0001:000fe120       ?getViewIndex@ViewObj@@QAEHXZ 004ff120 f   ViewObj.obj
 0001:000fe160       ?getParagraphIndex@ViewObj@@QAEHXZ 004ff160 f   ViewObj.obj
 0001:000fe180       ?setParagraphIndex@ViewObj@@QAEXH@Z 004ff180 f   ViewObj.obj
 0001:000fe1a0       ?getPreViewFromViewParent@ViewObj@@QAEPAV1@XZ 004ff1a0 f   ViewObj.obj
 0001:000fe460       ?getNextViewFromViewParent@ViewObj@@QAEPAV1@XZ 004ff460 f   ViewObj.obj
 0001:000fe7a0       ?getPreViewFromParagraphParent@ViewObj@@QAEPAV1@XZ 004ff7a0 f   ViewObj.obj
 0001:000fe870       ?getNextViewFromParagraphParent@ViewObj@@QAEPAV1@XZ 004ff870 f   ViewObj.obj
 0001:000fe950       ?isInDest@ViewObj@@QAE_NH@Z 004ff950 f   ViewObj.obj
 0001:000fe9b0       ?setFocus@ViewObj@@QAEX_N0D@Z 004ff9b0 f   ViewObj.obj
 0001:000fea10       ?setFocus1@ViewObj@@QAEXD_ND@Z 004ffa10 f   ViewObj.obj
 0001:000fea50       ?setFocusByX@ViewObj@@QAEXHD@Z 004ffa50 f   ViewObj.obj
 0001:000fead0       ?setViewType@ViewObj@@QAEXD@Z 004ffad0 f   ViewObj.obj
 0001:000feaf0       ?releaseFromWindow@ViewObj@@QAEXXZ 004ffaf0 f   ViewObj.obj
 0001:000feb50       ?setDrawTxtParam@ViewObj@@UAE_NPAVStrContentData@@@Z 004ffb50 f   ViewObj.obj
 0001:000ff300       ??_GViewObj@@UAEPAXI@Z     00500300 f i ViewObj.obj
 0001:000ff300       ??_EViewObj@@UAEPAXI@Z     00500300 f i ViewObj.obj
 0001:000ff340       ??0htmlOutPutManger@@QAE@H@Z 00500340 f   htmlOutPutManger.obj
 0001:000ff370       ??1htmlOutPutManger@@UAE@XZ 00500370 f   htmlOutPutManger.obj
 0001:000ff3a0       ?getHtmlObj@htmlOutPutManger@@QAEXPAV?$QList@PAVhtmlBaseObj@@@@PAVViewObj@@@Z 005003a0 f   htmlOutPutManger.obj
 0001:000ff400       ?handleViewObj@htmlOutPutManger@@QAEXPAVViewObj@@HH@Z 00500400 f   htmlOutPutManger.obj
 0001:000ffe40       ?handleTextViewObj@htmlOutPutManger@@QAEXPAVViewObj@@HHAAPAVhtmlBaseObj@@1@Z 00500e40 f   htmlOutPutManger.obj
 0001:00100360       ?handleImgViewObj@htmlOutPutManger@@QAEXPAVViewObj@@HH@Z 00501360 f   htmlOutPutManger.obj
 0001:00100560       ?handleExcelPageViewObj@htmlOutPutManger@@QAEXPAVViewObj@@HH@Z 00501560 f   htmlOutPutManger.obj
 0001:001009e0       ?removeSamePositionLine@htmlOutPutManger@@QAEXXZ 005019e0 f   htmlOutPutManger.obj
 0001:00100be0       ?saveImage@htmlOutPutManger@@QAE?AVQString@@PAVQImage@@@Z 00501be0 f   htmlOutPutManger.obj
 0001:00100f40       ?saveImageInByteArray@htmlOutPutManger@@QAEXPAVQImage@@PAVQByteArray@@@Z 00501f40 f   htmlOutPutManger.obj
 0001:00100fe0       ?getTxt@htmlOutPutManger@@QAEXPAVViewObj@@AAVQString@@@Z 00501fe0 f   htmlOutPutManger.obj
 0001:00101150       ?isSameTxtContentDataViewObj@htmlOutPutManger@@QAE_NPAVViewObj@@0@Z 00502150 f   htmlOutPutManger.obj
 0001:00101190       ?handleSameTxtViewObjList@htmlOutPutManger@@QAEXAAV?$QList@PAVViewObj@@@@HH@Z 00502190 f   htmlOutPutManger.obj
 0001:00101be0       ??_EhtmlOutPutManger@@UAEPAXI@Z 00502be0 f i htmlOutPutManger.obj
 0001:00101be0       ??_GhtmlOutPutManger@@UAEPAXI@Z 00502be0 f i htmlOutPutManger.obj
 0001:00101c20       ?append@?$QList@PAVhtmlBaseObj@@@@QAEXABQAVhtmlBaseObj@@@Z 00502c20 f i htmlOutPutManger.obj
 0001:00101df0       ?detach_helper_grow@?$QList@PAVhtmlBaseObj@@@@AAEPAUNode@1@HH@Z 00502df0 f i htmlOutPutManger.obj
 0001:00101ff0       ?node_construct@?$QList@PAVhtmlBaseObj@@@@AAEXPAUNode@1@ABQAVhtmlBaseObj@@@Z 00502ff0 f i htmlOutPutManger.obj
 0001:001020b0       ?node_destruct@?$QList@PAVhtmlBaseObj@@@@AAEXPAUNode@1@@Z 005030b0 f i htmlOutPutManger.obj
 0001:001020e0       ?push_back@?$QList@PAVhtmlBaseObj@@@@QAEXABQAVhtmlBaseObj@@@Z 005030e0 f i htmlOutPutManger.obj
 0001:00102100       ?removeAt@?$QList@PAVhtmlBaseObj@@@@QAEXH@Z 00503100 f i htmlOutPutManger.obj
 0001:00102160       ??0BaseMath@@QAE@XZ        00503160 f   BaseMath.obj
 0001:00102170       ??1BaseMath@@QAE@XZ        00503170 f   BaseMath.obj
 0001:00102180       ?refreshPageWHByPixel@BaseMath@@SAX_NFAAH1@Z 00503180 f   BaseMath.obj
 0001:001021f0       ?refreshPageWHByCentimeter@BaseMath@@SAXFAAH0@Z 005031f0 f   BaseMath.obj
 0001:00102240       ?changeFresequencyToMillisecond@BaseMath@@SAHH@Z 00503240 f   BaseMath.obj
 0001:001022e0       ?changeMillisecondToFresequency@BaseMath@@SAHH@Z 005032e0 f   BaseMath.obj
 0001:001022f0       ?getAbs@BaseMath@@SAHH@Z   005032f0 f   BaseMath.obj
 0001:00102320       ?haveColor@BaseMath@@SA_NH@Z 00503320 f   BaseMath.obj
 0001:00102340       ?haveColor@BaseMath@@SA_NABVQColor@@@Z 00503340 f   BaseMath.obj
 0001:00102370       ?createColor@BaseMath@@SAPAVQColor@@H@Z 00503370 f   BaseMath.obj
 0001:00102420       ?exchangeQColorToColor@BaseMath@@SAHVQColor@@@Z 00503420 f   BaseMath.obj
 0001:00102480       ?isPointerInsizeRect@BaseMath@@SA_NHHHHHH@Z 00503480 f   BaseMath.obj
 0001:001024c0       ?isValueInArea@BaseMath@@SA_NHHH@Z 005034c0 f   BaseMath.obj
 0001:001024e0       ?pointInsideDragObjArea@BaseMath@@SADMHHHHHH@Z 005034e0 f   BaseMath.obj
 0001:001025d0       ?pointInsideCornerType@BaseMath@@SADMHHHHHH@Z 005035d0 f   BaseMath.obj
 0001:001026d0       ?isRectCrossWH@BaseMath@@SA_NHHHHHHHH@Z 005036d0 f   BaseMath.obj
 0001:00102710       ?isRectCross@BaseMath@@SA_NHHHHHHHH@Z 00503710 f   BaseMath.obj
 0001:001027c0       ?isRectCrossExceptSameSide@BaseMath@@SA_NHHHHHHHH@Z 005037c0 f   BaseMath.obj
 0001:00102870       ?getAngleEffectValue@BaseMath@@SAHH@Z 00503870 f   BaseMath.obj
 0001:001028b0       ?changeAngleToRadian@BaseMath@@SAMM@Z 005038b0 f   BaseMath.obj
 0001:001028e0       ?getDistanceFromTwoPoints@BaseMath@@SAMHHHH@Z 005038e0 f   BaseMath.obj
 0001:00102930       ?getAngleFromTwoPoints@BaseMath@@SAMHHHH@Z 00503930 f   BaseMath.obj
 0001:001029d0       ?square@BaseMath@@SAHH@Z   005039d0 f   BaseMath.obj
 0001:001029e0       ?isInsideTotalArea@BaseMath@@SA_NHHPAVViewObj@@@Z 005039e0 f   BaseMath.obj
 0001:00102cb0       ??$sqrt@H@@YANH@Z          00503cb0 f i BaseMath.obj
 0001:00102cd0       ?acos@@YAMM@Z              00503cd0 f i BaseMath.obj
 0001:00102cf0       _acosf                     00503cf0 f i BaseMath.obj
 0001:00102d20       ??0BaseSystem@@AAE@XZ      00503d20 f   BaseSystem.obj
 0001:00102f90       ??1BaseSystem@@EAE@XZ      00503f90 f   BaseSystem.obj
 0001:001031d0       ?getInstance@BaseSystem@@SAPAV1@XZ 005041d0 f   BaseSystem.obj
 0001:00103260       ?useBufferParagraphData@BaseSystem@@QAEPAVParagraphData@@PAV?$QList@PAVParagraphData@@@@AAH@Z 00504260 f   BaseSystem.obj
 0001:001032b0       ?getBufParagraphDataForCopyList@BaseSystem@@QAEPAV?$QList@PAVParagraphData@@@@XZ 005042b0 f   BaseSystem.obj
 0001:001032d0       ?setCopyList@BaseSystem@@QAEXPAVWriterManager@@PAV?$QList@PAVBaseContainer@@@@_N2PAV?$QList@PAVParagraphData@@@@@Z 005042d0 f   BaseSystem.obj
 0001:001036b0       ?CopyListToList@BaseSystem@@QAEXPAV?$QList@PAVBaseContainer@@@@PAVWriterManager@@0@Z 005046b0 f   BaseSystem.obj
 0001:00103730       ?createCopyFromList@BaseSystem@@QAEPAV?$QList@PAVBaseContainer@@@@PAVWriterManager@@PAV2@@Z 00504730 f   BaseSystem.obj
 0001:00103820       ?getContainerCopy@BaseSystem@@QAEPAVBaseContainer@@PAVWriterManager@@PAV2@@Z 00504820 f   BaseSystem.obj
 0001:00103c20       ?getViewParamCopy@BaseSystem@@QAEPAVBaseViewParam@@PAVViewObj@@PAV2@@Z 00504c20 f   BaseSystem.obj
 0001:00103d80       ?getDrawMgrCopy@BaseSystem@@QAEPAVObjDrawManager@@PAVViewObj@@PAV2@@Z 00504d80 f   BaseSystem.obj
 0001:00103e30       ?getDrawCopy@BaseSystem@@QAEPAVBaseDraw@@PAVViewObj@@PAV2@@Z 00504e30 f   BaseSystem.obj
 0001:00103f90       ?getContentDataCopy@BaseSystem@@QAEPAVBaseContentData@@PAVBaseContainer@@PAV2@@Z 00504f90 f   BaseSystem.obj
 0001:00104110       ?getMouseInputCopy@BaseSystem@@QAEPAVBaseMouse@@PAVViewObj@@PAV2@@Z 00505110 f   BaseSystem.obj
 0001:001041d0       ?getKeyMgrCopy@BaseSystem@@QAEPAVObjKeyManager@@PAVViewObj@@PAV2@@Z 005051d0 f   BaseSystem.obj
 0001:00104280       ?getMouseMgrCopy@BaseSystem@@QAEPAVObjMouseManager@@PAVViewObj@@PAV2@@Z 00505280 f   BaseSystem.obj
 0001:00104330       ?clearCopyList@BaseSystem@@QAEXXZ 00505330 f   BaseSystem.obj
 0001:001043c0       ?getCopyList@BaseSystem@@QAEPAV?$QList@PAVBaseContainer@@@@XZ 005053c0 f   BaseSystem.obj
 0001:001043e0       ?getClearTempContainerList@BaseSystem@@QAEPAV?$QList@PAVBaseContainer@@@@XZ 005053e0 f   BaseSystem.obj
 0001:00104400       ?getTempIntList@BaseSystem@@QAEPAV?$QList@H@@XZ 00505400 f   BaseSystem.obj
 0001:00104420       ?getImg@BaseSystem@@QAEPAVGlobalImgData@@VQString@@@Z 00505420 f   BaseSystem.obj
 0001:00104570       ?getFont@BaseSystem@@QAEPAVQFont@@XZ 00505570 f   BaseSystem.obj
 0001:00104590       ?getDefaultStrData@BaseSystem@@QAEPAVStrContentData@@XZ 00505590 f   BaseSystem.obj
 0001:001045b0       ?getDefaultParagraphData@BaseSystem@@QAEPAVParagraphData@@XZ 005055b0 f   BaseSystem.obj
 0001:001045d0       ?refreshPainterFont@BaseSystem@@QAEXAAVQPainter@@PAVStrContentData@@@Z 005055d0 f   BaseSystem.obj
 0001:001046d0       ?loadFromClipboard@BaseSystem@@QAEXPAVQByteArray@@@Z 005056d0 f   BaseSystem.obj
 0001:00104760       ?saveToClipboard@BaseSystem@@QAEXPAVQByteArray@@@Z 00505760 f   BaseSystem.obj
 0001:00104820       ?getSystemId@BaseSystem@@QAEJXZ 00505820 f   BaseSystem.obj
 0001:00104840       ?setCopyListWriteManger@BaseSystem@@QAEXPAVWriterManager@@_N@Z 00505840 f   BaseSystem.obj
 0001:00105080       ??0?$QList@PAVAuthorityViewLineAndStr@@@@QAE@XZ 00506080 f i BaseSystem.obj
 0001:001050a0       ??0?$QList@PAVGlobalImgData@@@@QAE@XZ 005060a0 f i BaseSystem.obj
 0001:001050c0       ??1?$QList@PAVGlobalImgData@@@@QAE@XZ 005060c0 f i BaseSystem.obj
 0001:00105100       ??1CGarbo@BaseSystem@@QAE@XZ 00506100 f i BaseSystem.obj
 0001:00105160       ??4?$QList@PAVGlobalImgData@@@@QAEAAV0@$$QAV0@@Z 00506160 f i BaseSystem.obj
 0001:00105190       ??_G?$QList@PAVGlobalImgData@@@@QAEPAXI@Z 00506190 f i BaseSystem.obj
 0001:001051d0       ??_EBaseSystem@@EAEPAXI@Z  005061d0 f i BaseSystem.obj
 0001:001051d0       ??_GBaseSystem@@EAEPAXI@Z  005061d0 f i BaseSystem.obj
 0001:00105210       ??_GQMimeData@@UAEPAXI@Z   00506210 f i BaseSystem.obj
 0001:00105210       ??_EQMimeData@@UAEPAXI@Z   00506210 f i BaseSystem.obj
 0001:00105250       ?append@?$QList@PAVGlobalImgData@@@@QAEXABQAVGlobalImgData@@@Z 00506250 f i BaseSystem.obj
 0001:00105420       ?at@?$QList@PAVGlobalImgData@@@@QBEABQAVGlobalImgData@@H@Z 00506420 f i BaseSystem.obj
 0001:001054b0       ?clear@?$QList@PAVGlobalImgData@@@@QAEXXZ 005064b0 f i BaseSystem.obj
 0001:00105540       ?dealloc@?$QList@PAVGlobalImgData@@@@AAEXPAUData@QListData@@@Z 00506540 f i BaseSystem.obj
 0001:00105590       ?detach@?$QList@PAVParagraphData@@@@QAEXXZ 00506590 f i BaseSystem.obj
 0001:001055c0       ?detach_helper@?$QList@PAVParagraphData@@@@AAEXH@Z 005065c0 f i BaseSystem.obj
 0001:001056e0       ?detach_helper@?$QList@PAVParagraphData@@@@AAEXXZ 005066e0 f i BaseSystem.obj
 0001:00105710       ?detach_helper_grow@?$QList@PAVGlobalImgData@@@@AAEPAUNode@1@HH@Z 00506710 f i BaseSystem.obj
 0001:00105910       ?node_construct@?$QList@PAVGlobalImgData@@@@AAEXPAUNode@1@ABQAVGlobalImgData@@@Z 00506910 f i BaseSystem.obj
 0001:001059d0       ?node_copy@?$QList@PAVGlobalImgData@@@@AAEXPAUNode@1@00@Z 005069d0 f i BaseSystem.obj
 0001:00105c20       ?node_destruct@?$QList@PAVGlobalImgData@@@@AAEXPAUNode@1@0@Z 00506c20 f i BaseSystem.obj
 0001:00105c90       ?node_destruct@?$QList@PAVGlobalImgData@@@@AAEXPAUNode@1@@Z 00506c90 f i BaseSystem.obj
 0001:00105cc0       ?push_back@?$QList@PAVGlobalImgData@@@@QAEXABQAVGlobalImgData@@@Z 00506cc0 f i BaseSystem.obj
 0001:00105ce0       ?removeAt@?$QList@PAVParagraphData@@@@QAEXH@Z 00506ce0 f i BaseSystem.obj
 0001:00105d40       ?size@?$QList@PAVGlobalImgData@@@@QBEHXZ 00506d40 f i BaseSystem.obj
 0001:00105d60       ?t@Node@?$QList@PAVGlobalImgData@@@@QAEAAPAVGlobalImgData@@XZ 00506d60 f i BaseSystem.obj
 0001:00105d90       ??0BaseTools@@QAE@XZ       00506d90 f   BaseTools.obj
 0001:00105da0       ??1BaseTools@@QAE@XZ       00506da0 f   BaseTools.obj
 0001:00105db0       ?openAllRowReplace@BaseTools@@SAXPAVBaseContainer@@@Z 00506db0 f   BaseTools.obj
 0001:00105e40       ?haveExcel@BaseTools@@SA_NPAV?$QList@PAVBaseContainer@@@@@Z 00506e40 f   BaseTools.obj
 0001:00105ec0       ?getCurClip@BaseTools@@SA?AV?$QVector@VQRect@@@@AAVQPainter@@@Z 00506ec0 f   BaseTools.obj
 0001:00106030       ?addToListWithoutSame@BaseTools@@SAXPAV?$QList@PAVParagraphData@@@@PAVParagraphData@@@Z 00507030 f   BaseTools.obj
 0001:00106060       ?getMaxPageNumberWidth@BaseTools@@SAHPAVTxtWinData@@VQFontMetrics@@D@Z 00507060 f   BaseTools.obj
 0001:00106470       ?judgeStrWithPageNumber@BaseTools@@SA?AVQString@@PAVStrContentData@@PAVViewObj@@@Z 00507470 f   BaseTools.obj
 0001:00106730       ?setLineType@BaseTools@@SAXAAVQPainter@@PAVQColor@@HD@Z 00507730 f   BaseTools.obj
 0001:00106860       ?drawLines@BaseTools@@SA_NAAVQPainter@@PAVQColor@@HDHHHH@Z 00507860 f   BaseTools.obj
 0001:001068b0       ?getObjListFromExcel@BaseTools@@SAXPAVBaseContainer@@PAV?$QList@PAVBaseContainer@@@@@Z 005078b0 f   BaseTools.obj
 0001:00106950       ?exchangeObjToViewList@BaseTools@@SAXPAVBaseContainer@@PAV?$QList@PAVBaseContainer@@@@@Z 00507950 f   BaseTools.obj
 0001:001069e0       ?exchangeListToViewList@BaseTools@@SAXPAV?$QList@PAVBaseContainer@@@@HH0@Z 005079e0 f   BaseTools.obj
 0001:00106a50       ?seperateListByEnter@BaseTools@@SAXPAV?$QList@PAV?$QList@PAVBaseContainer@@@@@@PAV?$QList@PAVBaseContainer@@@@@Z 00507a50 f   BaseTools.obj
 0001:00106bc0       ?removeAllChildrenFromList@BaseTools@@SAXPAV?$QList@PAVBaseContainer@@@@PAVBaseContainer@@@Z 00507bc0 f   BaseTools.obj
 0001:00106c30       ?setChooseColor@BaseTools@@SAXPAVBaseContainer@@H@Z 00507c30 f   BaseTools.obj
 0001:00106cc0       ?drawChildrenUnderline@BaseTools@@SAXAAVQPainter@@PAVRowViewParam@@HHPAV?$QList@PAVBaseContainer@@@@HHDH@Z 00507cc0 f   BaseTools.obj
 0001:00106e40       ?drawChildrenBackground@BaseTools@@SAXAAVQPainter@@PAVRowViewParam@@HHPAV?$QList@PAVBaseContainer@@@@HHH@Z 00507e40 f   BaseTools.obj
 0001:00106f40       ?refreshTempContainerAndTempIdx@BaseTools@@SAXPAVBaseContainer@@AAPAVBaseTemplate@@AAH@Z 00507f40 f   BaseTools.obj
 0001:00107000       ?judgeTitleOrBottomOutArea@BaseTools@@SAXPAVViewObj@@@Z 00508000 f   BaseTools.obj
 0001:00107150       ?getFirstNodeIdx@BaseTools@@SAHPAV?$QList@PAVBaseContainer@@@@HH@Z 00508150 f   BaseTools.obj
 0001:001071d0       ?copyObjListToObjList@BaseTools@@SAXPAV?$QList@PAVBaseContainer@@@@0_N@Z 005081d0 f   BaseTools.obj
 0001:00107240       ?isOverOrEqualsVersion@BaseTools@@SA_NHVQString@@@Z 00508240 f   BaseTools.obj
 0001:001072d0       ?convertQStringOfVersionToInt@BaseTools@@SAHVQString@@@Z 005082d0 f   BaseTools.obj
 0001:00107440       ?println@BaseTools@@SAXVQString@@@Z 00508440 f   BaseTools.obj
 0001:00107450       ?println@BaseTools@@SAXVQString@@H@Z 00508450 f   BaseTools.obj
 0001:00107520       ?refreshStartTime@BaseTools@@SAJXZ 00508520 f   BaseTools.obj
 0001:00107540       ?printSpendTime@BaseTools@@SAXVQString@@H@Z 00508540 f   BaseTools.obj
 0001:00107630       ?printSpendTime@BaseTools@@SAXVQString@@_N@Z 00508630 f   BaseTools.obj
 0001:001076a0       ?printSpendTime@BaseTools@@SAXAAJVQString@@H@Z 005086a0 f   BaseTools.obj
 0001:001077c0       ?printSpendTime@BaseTools@@SAXAAJVQString@@_N@Z 005087c0 f   BaseTools.obj
 0001:00108020       ??0?$QForeachContainer@$$CBV?$QVector@VQRect@@@@@@QAE@ABV?$QVector@VQRect@@@@@Z 00509020 f i BaseTools.obj
 0001:001080c0       ??0?$QList@PAV?$QList@PAVBaseContainer@@@@@@QAE@XZ 005090c0 f i BaseTools.obj
 0001:001080e0       ??0?$QList@VQString@@@@QAE@$$QAV0@@Z 005090e0 f i BaseTools.obj
 0001:00108110       ??1?$QForeachContainer@$$CBV?$QVector@VQRect@@@@@@QAE@XZ 00509110 f i BaseTools.obj
 0001:00108130       ??1?$QList@PAV?$QList@PAVBaseContainer@@@@@@QAE@XZ 00509130 f i BaseTools.obj
 0001:00108170       ??4?$QList@PAV?$QList@PAVBaseContainer@@@@@@QAEAAV0@$$QAV0@@Z 00509170 f i BaseTools.obj
 0001:001081a0       ?append@?$QList@PAV?$QList@PAVBaseContainer@@@@@@QAEXABQAV?$QList@PAVBaseContainer@@@@@Z 005091a0 f i BaseTools.obj
 0001:00108370       ?begin@?$QVector@VQRect@@@@QBEPBVQRect@@XZ 00509370 f i BaseTools.obj
 0001:00108390       ?clear@?$QList@PAV?$QList@PAVBaseContainer@@@@@@QAEXXZ 00509390 f i BaseTools.obj
 0001:00108420       ?constBegin@?$QTypedArrayData@VQRect@@@@QBEPBVQRect@@PBV2@@Z 00509420 f i BaseTools.obj
 0001:00108440       ?constEnd@?$QTypedArrayData@VQRect@@@@QBEPBVQRect@@PBV2@@Z 00509440 f i BaseTools.obj
 0001:00108470       ?data@?$QTypedArrayData@VQRect@@@@QBEPBVQRect@@XZ 00509470 f i BaseTools.obj
 0001:00108490       ?dealloc@?$QList@PAV?$QList@PAVBaseContainer@@@@@@AAEXPAUData@QListData@@@Z 00509490 f i BaseTools.obj
 0001:001084e0       ?detach_helper_grow@?$QList@PAV?$QList@PAVBaseContainer@@@@@@AAEPAUNode@1@HH@Z 005094e0 f i BaseTools.obj
 0001:001086e0       ?end@?$QVector@VQRect@@@@QBEPBVQRect@@XZ 005096e0 f i BaseTools.obj
 0001:00108700       ?indexOf@?$QList@PAVParagraphData@@@@QBEHABQAVParagraphData@@H@Z 00509700 f i BaseTools.obj
 0001:001087e0       ?node_construct@?$QList@PAV?$QList@PAVBaseContainer@@@@@@AAEXPAUNode@1@ABQAV?$QList@PAVBaseContainer@@@@@Z 005097e0 f i BaseTools.obj
 0001:001088a0       ?node_copy@?$QList@PAV?$QList@PAVBaseContainer@@@@@@AAEXPAUNode@1@00@Z 005098a0 f i BaseTools.obj
 0001:00108af0       ?node_destruct@?$QList@PAV?$QList@PAVBaseContainer@@@@@@AAEXPAUNode@1@0@Z 00509af0 f i BaseTools.obj
 0001:00108b60       ?node_destruct@?$QList@PAV?$QList@PAVBaseContainer@@@@@@AAEXPAUNode@1@@Z 00509b60 f i BaseTools.obj
 0001:00108b90       ?push_back@?$QList@PAV?$QList@PAVBaseContainer@@@@@@QAEXABQAV?$QList@PAVBaseContainer@@@@@Z 00509b90 f i BaseTools.obj
 0001:00108bb0       ?qPow@@YANNN@Z             00509bb0 f i BaseTools.obj
 0001:00108be0       ??0BaseIOTools@@QAE@PAVWriterManager@@@Z 00509be0 f   BaseIOTools.obj
 0001:00108c20       ??1BaseIOTools@@QAE@XZ     00509c20 f   BaseIOTools.obj
 0001:00108c80       ?openSaveFileDialog@BaseIOTools@@QAE_NXZ 00509c80 f   BaseIOTools.obj
 0001:00108e00       ?saveFile@BaseIOTools@@QAE_NVQString@@@Z 00509e00 f   BaseIOTools.obj
 0001:00108f80       ?openReadFileDialog@BaseIOTools@@QAE_NXZ 00509f80 f   BaseIOTools.obj
 0001:001090e0       ?openFile@BaseIOTools@@QAE_NVQString@@_N@Z 0050a0e0 f   BaseIOTools.obj
 0001:00109150       ?readFile@BaseIOTools@@QAEPAVQDataStream@@XZ 0050a150 f   BaseIOTools.obj
 0001:001092b0       ?writeFile@BaseIOTools@@QAEPAVQDataStream@@XZ 0050a2b0 f   BaseIOTools.obj
 0001:001094e0       ?readFile@BaseIOTools@@QAE_NABVQString@@_N@Z 0050a4e0 f   BaseIOTools.obj
 0001:00109640       ?writeFile@BaseIOTools@@QAEPAVQDataStream@@ABVQString@@@Z 0050a640 f   BaseIOTools.obj
 0001:001097a0       ?writeBool@BaseIOTools@@QAEX_N@Z 0050a7a0 f   BaseIOTools.obj
 0001:001097c0       ?writeByte@BaseIOTools@@QAEXD@Z 0050a7c0 f   BaseIOTools.obj
 0001:001097f0       ?writeShort@BaseIOTools@@QAEXF@Z 0050a7f0 f   BaseIOTools.obj
 0001:00109810       ?writeInt@BaseIOTools@@QAEXH@Z 0050a810 f   BaseIOTools.obj
 0001:00109830       ?writeFloat@BaseIOTools@@QAEXM@Z 0050a830 f   BaseIOTools.obj
 0001:00109860       ?writeString@BaseIOTools@@QAEXVQString@@@Z 0050a860 f   BaseIOTools.obj
 0001:001098d0       ?writeImage@BaseIOTools@@QAEXPAVQImage@@@Z 0050a8d0 f   BaseIOTools.obj
 0001:00109900       ?wirteStrItemData@BaseIOTools@@QAEXUStrItemData@@@Z 0050a900 f   BaseIOTools.obj
 0001:001099f0       ?readBool@BaseIOTools@@QAE_NXZ 0050a9f0 f   BaseIOTools.obj
 0001:00109a10       ?readByte@BaseIOTools@@QAEHXZ 0050aa10 f   BaseIOTools.obj
 0001:00109a30       ?readShort@BaseIOTools@@QAEFXZ 0050aa30 f   BaseIOTools.obj
 0001:00109a60       ?readInt@BaseIOTools@@QAEHXZ 0050aa60 f   BaseIOTools.obj
 0001:00109a80       ?readFloat@BaseIOTools@@QAEMXZ 0050aa80 f   BaseIOTools.obj
 0001:00109aa0       ?readString@BaseIOTools@@QAE?AVQString@@XZ 0050aaa0 f   BaseIOTools.obj
 0001:00109b30       ?readImage@BaseIOTools@@QAEPAVQImage@@VQString@@@Z 0050ab30 f   BaseIOTools.obj
 0001:00109bf0       ?readStrItemData@BaseIOTools@@QAE?AUStrItemData@@XZ 0050abf0 f   BaseIOTools.obj
 0001:00109d00       ?close@BaseIOTools@@QAEXXZ 0050ad00 f   BaseIOTools.obj
 0001:00109e40       ?setByteArray@BaseIOTools@@QAEXPAVQByteArray@@@Z 0050ae40 f   BaseIOTools.obj
 0001:00109f00       ?getByteArray@BaseIOTools@@QAE?AVQByteArray@@XZ 0050af00 f   BaseIOTools.obj
 0001:00109f40       ?initWriteManager@BaseIOTools@@QAEXPAVWriterManager@@@Z 0050af40 f   BaseIOTools.obj
 0001:0010a870       ??0?$QFlags@W4Option@QFileDialog@@@@QAE@PQPrivate@0@H@Z 0050b870 f i BaseIOTools.obj
 0001:0010a890       ??_GQBuffer@@UAEPAXI@Z     0050b890 f i BaseIOTools.obj
 0001:0010a890       ??_EQBuffer@@UAEPAXI@Z     0050b890 f i BaseIOTools.obj
 0001:0010a8d0       ??_GQDataStream@@QAEPAXI@Z 0050b8d0 f i BaseIOTools.obj
 0001:0010a910       ?data_ptr@?$QStaticStringData@$01@@QBEPAU?$QTypedArrayData@G@@XZ 0050b910 f i BaseIOTools.obj
 0001:0010a970       ?data_ptr@?$QStaticStringData@$05@@QBEPAU?$QTypedArrayData@G@@XZ 0050b970 f i BaseIOTools.obj
 0001:0010a9d0       ??0BaseTempleteKeyboard@@QAE@PAVBaseTemplate@@H@Z 0050b9d0 f   BaseTempleteKeyboard.obj
 0001:0010aa00       ??1BaseTempleteKeyboard@@UAE@XZ 0050ba00 f   BaseTempleteKeyboard.obj
 0001:0010aa30       ?setTempleteOwner@BaseTempleteKeyboard@@QAEXPAVBaseTemplate@@@Z 0050ba30 f   BaseTempleteKeyboard.obj
 0001:0010aa50       ?getTempleteOwner@BaseTempleteKeyboard@@QAEPAVBaseTemplate@@XZ 0050ba50 f   BaseTempleteKeyboard.obj
 0001:0010aa90       ??_EBaseTempleteKeyboard@@UAEPAXI@Z 0050ba90 f i BaseTempleteKeyboard.obj
 0001:0010aa90       ??_GBaseTempleteKeyboard@@UAEPAXI@Z 0050ba90 f i BaseTempleteKeyboard.obj
 0001:0010aad0       ??0BaseTempleteMouse@@QAE@PAVBaseTemplate@@H@Z 0050bad0 f   BaseTempleteMouse.obj
 0001:0010ab00       ??1BaseTempleteMouse@@UAE@XZ 0050bb00 f   BaseTempleteMouse.obj
 0001:0010ab50       ??_GBaseTempleteMouse@@UAEPAXI@Z 0050bb50 f i BaseTempleteMouse.obj
 0001:0010ab50       ??_EBaseTempleteMouse@@UAEPAXI@Z 0050bb50 f i BaseTempleteMouse.obj
 0001:0010ab90       ??0BracketWidget@@QAE@PAVWriterManager@@PAVBaseTemplate@@H@Z 0050bb90 f   BracketWidget.obj
 0001:0010ac60       ??0BracketWidget@@QAE@PAVWriterManager@@PAVBaseTemplate@@HHVQString@@_N@Z 0050bc60 f   BracketWidget.obj
 0001:0010ad40       ??0BracketWidget@@QAE@PAVWriterManager@@PAV0@@Z 0050bd40 f   BracketWidget.obj
 0001:0010af30       ??0BracketWidget@@QAE@PAVWriterManager@@PAV0@_N@Z 0050bf30 f   BracketWidget.obj
 0001:0010afe0       ?setTempleteProperty@BracketWidget@@UAE_NAAV?$QMap@VQString@@V1@@@@Z 0050bfe0 f   BracketWidget.obj
 0001:0010b250       ?setPropertyOnActionRedoOrUndo@BracketWidget@@UAEXAAV?$QMap@VQString@@V1@@@PAV?$QList@PAVViewObj@@@@1@Z 0050c250 f   BracketWidget.obj
 0001:0010b380       ??1BracketWidget@@UAE@XZ   0050c380 f   BracketWidget.obj
 0001:0010b430       ?setTitle@BracketWidget@@UAEXVQString@@_N@Z 0050c430 f   BracketWidget.obj
 0001:0010b4f0       ?setTitleOnShow@BracketWidget@@QAEXVQString@@@Z 0050c4f0 f   BracketWidget.obj
 0001:0010b590       ?getTitle@BracketWidget@@UAE?AVQString@@XZ 0050c590 f   BracketWidget.obj
 0001:0010b630       ?setHint@BracketWidget@@QAEXVQString@@_N@Z 0050c630 f   BracketWidget.obj
 0001:0010b740       ?getHint@BracketWidget@@QAE?AVQString@@XZ 0050c740 f   BracketWidget.obj
 0001:0010b7e0       ?showTidy@BracketWidget@@UAEXXZ 0050c7e0 f   BracketWidget.obj
 0001:0010be00       ??_EBracketWidget@@UAEPAXI@Z 0050ce00 f i BracketWidget.obj
 0001:0010be00       ??_GBracketWidget@@UAEPAXI@Z 0050ce00 f i BracketWidget.obj
 0001:0010be40       ??0BracketWidgetKeyboard@@QAE@PAVBaseTemplate@@@Z 0050ce40 f   BracketWidgetKeyboard.obj
 0001:0010be80       ??1BracketWidgetKeyboard@@UAE@XZ 0050ce80 f   BracketWidgetKeyboard.obj
 0001:0010beb0       ?keyPress@BracketWidgetKeyboard@@UAEHVQString@@PAVBaseElement@@@Z 0050ceb0 f   BracketWidgetKeyboard.obj
 0001:0010c980       ?keyRelease@BracketWidgetKeyboard@@UAEHVQString@@PAVBaseElement@@@Z 0050d980 f   BracketWidgetKeyboard.obj
 0001:0010caa0       ?handleIfLeftSign@BracketWidgetKeyboard@@QAEXXZ 0050daa0 f   BracketWidgetKeyboard.obj
 0001:0010ced0       ??_EBracketWidgetKeyboard@@UAEPAXI@Z 0050ded0 f i BracketWidgetKeyboard.obj
 0001:0010ced0       ??_GBracketWidgetKeyboard@@UAEPAXI@Z 0050ded0 f i BracketWidgetKeyboard.obj
 0001:0010cf10       ??0ChoiceWidgetTemplete@@QAE@PAVWriterManager@@DPAVBaseTemplate@@HVQString@@_N@Z 0050df10 f   ChoiceWidgetTemplete.obj
 0001:0010d1e0       ??0ChoiceWidgetTemplete@@QAE@PAVWriterManager@@PAV0@@Z 0050e1e0 f   ChoiceWidgetTemplete.obj
 0001:0010d7d0       ??1ChoiceWidgetTemplete@@UAE@XZ 0050e7d0 f   ChoiceWidgetTemplete.obj
 0001:0010dcf0       ?addAllChildToBufList@ChoiceWidgetTemplete@@UAEXPAV?$QList@PAVBaseContainer@@@@HH0@Z 0050ecf0 f   ChoiceWidgetTemplete.obj
 0001:0010dd70       ?isSelectedOnItem@ChoiceWidgetTemplete@@QAE_NH@Z 0050ed70 f   ChoiceWidgetTemplete.obj
 0001:0010ddd0       ?setTitleAndOptions@ChoiceWidgetTemplete@@QAEXPAVTextWidget@@PAV?$QList@PAVTextWidget@@@@@Z 0050edd0 f   ChoiceWidgetTemplete.obj
 0001:0010de10       ?setTitleAndOptions@ChoiceWidgetTemplete@@QAEXVQString@@V?$QList@VQString@@@@@Z 0050ee10 f   ChoiceWidgetTemplete.obj
 0001:0010ded0       ?setSelectItem@ChoiceWidgetTemplete@@QAEXV?$QList@H@@@Z 0050eed0 f   ChoiceWidgetTemplete.obj
 0001:0010df60       ?setTitle@ChoiceWidgetTemplete@@QAEXPAVTextWidget@@@Z 0050ef60 f   ChoiceWidgetTemplete.obj
 0001:0010dfa0       ?setTitleOnNotShow@ChoiceWidgetTemplete@@QAEXPAVTextWidget@@@Z 0050efa0 f   ChoiceWidgetTemplete.obj
 0001:0010dfc0       ?setSignBeforSelectNotShow@ChoiceWidgetTemplete@@QAEXPAVTextWidget@@@Z 0050efc0 f   ChoiceWidgetTemplete.obj
 0001:0010dfe0       ?setSignBeforNotSelectNotShow@ChoiceWidgetTemplete@@QAEXPAVTextWidget@@@Z 0050efe0 f   ChoiceWidgetTemplete.obj
 0001:0010e000       ?setTitle@ChoiceWidgetTemplete@@UAEXVQString@@@Z 0050f000 f   ChoiceWidgetTemplete.obj
 0001:0010e0d0       ?setTitleHintName@ChoiceWidgetTemplete@@QAEXVQString@@@Z 0050f0d0 f   ChoiceWidgetTemplete.obj
 0001:0010e150       ?getTiltle@ChoiceWidgetTemplete@@QAEPAVBaseTemplate@@XZ 0050f150 f   ChoiceWidgetTemplete.obj
 0001:0010e170       ?getSignBeforSelect@ChoiceWidgetTemplete@@QAEPAVBaseTemplate@@XZ 0050f170 f   ChoiceWidgetTemplete.obj
 0001:0010e190       ?getSignBeforNotSelect@ChoiceWidgetTemplete@@QAEPAVBaseTemplate@@XZ 0050f190 f   ChoiceWidgetTemplete.obj
 0001:0010e1b0       ?getOptionList@ChoiceWidgetTemplete@@QAEPAV?$QList@PAVTextWidget@@@@XZ 0050f1b0 f   ChoiceWidgetTemplete.obj
 0001:0010e1d0       ?setOptions@ChoiceWidgetTemplete@@QAEXPAV?$QList@PAVTextWidget@@@@@Z 0050f1d0 f   ChoiceWidgetTemplete.obj
 0001:0010e210       ?setOptionsOnNotShow@ChoiceWidgetTemplete@@QAEXPAV?$QList@PAVTextWidget@@@@@Z 0050f210 f   ChoiceWidgetTemplete.obj
 0001:0010e240       ?setOptions@ChoiceWidgetTemplete@@QAEXV?$QList@VQString@@@@@Z 0050f240 f   ChoiceWidgetTemplete.obj
 0001:0010e390       ?isSameOptions@ChoiceWidgetTemplete@@QAE_NV?$QList@VQString@@@@@Z 0050f390 f   ChoiceWidgetTemplete.obj
 0001:0010e490       ?setWedgetType@ChoiceWidgetTemplete@@QAEXD@Z 0050f490 f   ChoiceWidgetTemplete.obj
 0001:0010e4b0       ?getWedgetType@ChoiceWidgetTemplete@@QAEDXZ 0050f4b0 f   ChoiceWidgetTemplete.obj
 0001:0010e4d0       ?setTempleteStatus@ChoiceWidgetTemplete@@UAEXH@Z 0050f4d0 f   ChoiceWidgetTemplete.obj
 0001:0010e560       ?getTempleteStatus@ChoiceWidgetTemplete@@UAEHXZ 0050f560 f   ChoiceWidgetTemplete.obj
 0001:0010e580       ?generateViewObjOnNewStatus@ChoiceWidgetTemplete@@QAEXXZ 0050f580 f   ChoiceWidgetTemplete.obj
 0001:0010e5a0       ?addOptionsToChileView@ChoiceWidgetTemplete@@QAEXXZ 0050f5a0 f   ChoiceWidgetTemplete.obj
 0001:0010e970       ?addOptionsToChildrenAndShowList@ChoiceWidgetTemplete@@QAEXPAV?$QList@PAVBaseContainer@@@@0@Z 0050f970 f   ChoiceWidgetTemplete.obj
 0001:0010ecc0       ?addAllContentAndShowList@ChoiceWidgetTemplete@@QAEXPAV?$QList@PAVBaseContainer@@@@0@Z 0050fcc0 f   ChoiceWidgetTemplete.obj
 0001:0010ee50       ?generateTitleTempleteForType@ChoiceWidgetTemplete@@QAEXXZ 0050fe50 f   ChoiceWidgetTemplete.obj
 0001:0010ef20       ?initWidget@ChoiceWidgetTemplete@@QAEXXZ 0050ff20 f   ChoiceWidgetTemplete.obj
 0001:0010ef50       ?addAllChildToChildrenMgr@ChoiceWidgetTemplete@@QAEXXZ 0050ff50 f   ChoiceWidgetTemplete.obj
 0001:0010efb0       ?generatSignBeforeOptionViewObj@ChoiceWidgetTemplete@@QAEXXZ 0050ffb0 f   ChoiceWidgetTemplete.obj
 0001:0010f030       ?generatSignBehindOptionViewObj@ChoiceWidgetTemplete@@QAEXXZ 00510030 f   ChoiceWidgetTemplete.obj
 0001:0010f0b0       ?generatSignHaveOrNotViewObj@ChoiceWidgetTemplete@@QAEX_N@Z 005100b0 f   ChoiceWidgetTemplete.obj
 0001:0010f180       ?getSeparatorObj@ChoiceWidgetTemplete@@QAEPAVViewObj@@H@Z 00510180 f   ChoiceWidgetTemplete.obj
 0001:0010f250       ?setFocusColor@ChoiceWidgetTemplete@@QAEXXZ 00510250 f   ChoiceWidgetTemplete.obj
 0001:0010f260       ?setNormalColor@ChoiceWidgetTemplete@@QAEXXZ 00510260 f   ChoiceWidgetTemplete.obj
 0001:0010f2a0       ?setTitlePosition@ChoiceWidgetTemplete@@QAE_ND@Z 005102a0 f   ChoiceWidgetTemplete.obj
 0001:0010f2e0       ?getTitlePosition@ChoiceWidgetTemplete@@QAEDXZ 005102e0 f   ChoiceWidgetTemplete.obj
 0001:0010f300       ?mousePress@ChoiceWidgetTemplete@@UAEHHHHPAVBaseContainer@@@Z 00510300 f   ChoiceWidgetTemplete.obj
 0001:0010f960       ?mouseRelease@ChoiceWidgetTemplete@@UAEHHHHPAVBaseContainer@@@Z 00510960 f   ChoiceWidgetTemplete.obj
 0001:0010f9b0       ?mouseMove@ChoiceWidgetTemplete@@UAEHHHHPAVBaseContainer@@@Z 005109b0 f   ChoiceWidgetTemplete.obj
 0001:0010fa00       ?mouseDrag@ChoiceWidgetTemplete@@UAEHHHHPAVBaseContainer@@@Z 00510a00 f   ChoiceWidgetTemplete.obj
 0001:0010fa50       ?mouseDoublePress@ChoiceWidgetTemplete@@UAEHHHHPAVBaseContainer@@@Z 00510a50 f   ChoiceWidgetTemplete.obj
 0001:0010fab0       ?mouseScroll@ChoiceWidgetTemplete@@UAEHHPAVBaseContainer@@@Z 00510ab0 f   ChoiceWidgetTemplete.obj
 0001:0010faf0       ?keyPress@ChoiceWidgetTemplete@@UAEHVQString@@PAVBaseContainer@@@Z 00510af0 f   ChoiceWidgetTemplete.obj
 0001:001109c0       ?keyRelease@ChoiceWidgetTemplete@@UAEHVQString@@PAVBaseContainer@@@Z 005119c0 f   ChoiceWidgetTemplete.obj
 0001:00110a80       ?deleteObjOnBackpressKey@ChoiceWidgetTemplete@@QAE_NPAVViewObj@@D@Z 00511a80 f   ChoiceWidgetTemplete.obj
 0001:00110b00       ?deleteObjOnDeleteKey@ChoiceWidgetTemplete@@QAE_NPAVViewObj@@D@Z 00511b00 f   ChoiceWidgetTemplete.obj
 0001:00110b80       ?setFocusData@ChoiceWidgetTemplete@@QAEXPAVStrContentData@@@Z 00511b80 f   ChoiceWidgetTemplete.obj
 0001:00110ba0       ?getFocusData@ChoiceWidgetTemplete@@QAEPAVStrContentData@@XZ 00511ba0 f   ChoiceWidgetTemplete.obj
 0001:00110bc0       ?getWidgetType@ChoiceWidgetTemplete@@QAEDXZ 00511bc0 f   ChoiceWidgetTemplete.obj
 0001:00110be0       ?setWidgetType@ChoiceWidgetTemplete@@QAEXH@Z 00511be0 f   ChoiceWidgetTemplete.obj
 0001:00110c00       ?setTitlePosition@ChoiceWidgetTemplete@@QAEXH@Z 00511c00 f   ChoiceWidgetTemplete.obj
 0001:00110c20       ?getSelectList@ChoiceWidgetTemplete@@QAE?BV?$QList@H@@XZ 00511c20 f   ChoiceWidgetTemplete.obj
 0001:00110c60       ?setSignBefor@ChoiceWidgetTemplete@@QAEXPAVViewObj@@@Z 00511c60 f   ChoiceWidgetTemplete.obj
 0001:00110c80       ?setSignBehind@ChoiceWidgetTemplete@@QAEXPAVViewObj@@@Z 00511c80 f   ChoiceWidgetTemplete.obj
 0001:00110ca0       ?setCreateFromLoad@ChoiceWidgetTemplete@@QAEXXZ 00511ca0 f   ChoiceWidgetTemplete.obj
 0001:00110cc0       ?deleteContentChild@ChoiceWidgetTemplete@@QAEXXZ 00511cc0 f   ChoiceWidgetTemplete.obj
 0001:00110d40       ?addContentChild@ChoiceWidgetTemplete@@QAEX_N@Z 00511d40 f   ChoiceWidgetTemplete.obj
 0001:00110ea0       ?deleteLoadChild@ChoiceWidgetTemplete@@QAEXXZ 00511ea0 f   ChoiceWidgetTemplete.obj
 0001:00110f00       ?getOptions@ChoiceWidgetTemplete@@QAE?AVQString@@XZ 00511f00 f   ChoiceWidgetTemplete.obj
 0001:00111060       ?setIsShowed@ChoiceWidgetTemplete@@QAEX_N@Z 00512060 f   ChoiceWidgetTemplete.obj
 0001:00111080       ?showTidy@ChoiceWidgetTemplete@@UAEXXZ 00512080 f   ChoiceWidgetTemplete.obj
 0001:001111e0       ?deleteNextViewObj@ChoiceWidgetTemplete@@QAEXH@Z 005121e0 f   ChoiceWidgetTemplete.obj
 0001:001112a0       ?deleteLastViewObj@ChoiceWidgetTemplete@@QAEXH@Z 005122a0 f   ChoiceWidgetTemplete.obj
 0001:00111360       ?findNextViewObj@ChoiceWidgetTemplete@@QAEPAVViewObj@@H@Z 00512360 f   ChoiceWidgetTemplete.obj
 0001:00111400       ?findPreViewObj@ChoiceWidgetTemplete@@QAEPAVViewObj@@H@Z 00512400 f   ChoiceWidgetTemplete.obj
 0001:00111490       ?showSelectDialog@ChoiceWidgetTemplete@@QAEHXZ 00512490 f   ChoiceWidgetTemplete.obj
 0001:00111790       ?setTempleteProperty@ChoiceWidgetTemplete@@UAE_NAAV?$QMap@VQString@@V1@@@@Z 00512790 f   ChoiceWidgetTemplete.obj
 0001:00111f80       ?addSetTempletePropertyAction@ChoiceWidgetTemplete@@QAEXAAV?$QMap@VQString@@V1@@@0V?$QList@H@@AAV?$QList@PAVViewObj@@@@2PAV?$QList@PAVTextWidget@@@@22PAVViewObj@@D@Z 00512f80 f   ChoiceWidgetTemplete.obj
 0001:00112270       ?setPropertyOnActionRedoOrUndo@ChoiceWidgetTemplete@@QAEXAAV?$QMap@VQString@@V1@@@PAV?$QList@PAVViewObj@@@@111PAV?$QList@PAVTextWidget@@@@V?$QList@H@@@Z 00513270 f   ChoiceWidgetTemplete.obj
 0001:00112720       ?setCanEdit@ChoiceWidgetTemplete@@QAEXAAV?$QMap@VQString@@V1@@@@Z 00513720 f   ChoiceWidgetTemplete.obj
 0001:001127f0       ?setDrawTxtParam@ChoiceWidgetTemplete@@UAE_NPAVStrContentData@@@Z 005137f0 f   ChoiceWidgetTemplete.obj
 0001:00112bf0       ?setBackTxtParam@ChoiceWidgetTemplete@@QAEXPAVStrContentData@@@Z 00513bf0 f   ChoiceWidgetTemplete.obj
 0001:00112e00       ?getSelfFocusData@ChoiceWidgetTemplete@@UAEPAVStrContentData@@XZ 00513e00 f   ChoiceWidgetTemplete.obj
 0001:00112e20       ?getWillShowObjList@ChoiceWidgetTemplete@@UAEXPAV?$QList@PAVViewObj@@@@@Z 00513e20 f   ChoiceWidgetTemplete.obj
 0001:00112f20       ?checkCanShowTitle@ChoiceWidgetTemplete@@QAEX_N0@Z 00513f20 f   ChoiceWidgetTemplete.obj
 0001:00112fd0       ?getCanInputOnKeyBoard@ChoiceWidgetTemplete@@QAE_NXZ 00513fd0 f   ChoiceWidgetTemplete.obj
 0001:00112ff0       ?setCanInputOnKeyBoard@ChoiceWidgetTemplete@@QAEX_N@Z 00513ff0 f   ChoiceWidgetTemplete.obj
 0001:00113010       ?setIsCheckTitleShow@ChoiceWidgetTemplete@@QAEX_N@Z 00514010 f   ChoiceWidgetTemplete.obj
 0001:00114870       ??0?$QList@PAUDataType@@@@QAE@XZ 00515870 f i ChoiceWidgetTemplete.obj
 0001:00114890       ??0DataType@@QAE@XZ        00515890 f i ChoiceWidgetTemplete.obj
 0001:001148b0       ??1?$QList@PAUDataType@@@@QAE@XZ 005158b0 f i ChoiceWidgetTemplete.obj
 0001:001148f0       ??1DataType@@QAE@XZ        005158f0 f i ChoiceWidgetTemplete.obj
 0001:00114910       ??A?$QMap@VQString@@V1@@@QAEAAVQString@@ABV1@@Z 00515910 f i ChoiceWidgetTemplete.obj
 0001:001149f0       ??Diterator@?$QMap@VQString@@V1@@@QBEAAVQString@@XZ 005159f0 f i ChoiceWidgetTemplete.obj
 0001:00114a10       ??_GChoiceWidgetTemplete@@UAEPAXI@Z 00515a10 f i ChoiceWidgetTemplete.obj
 0001:00114a10       ??_EChoiceWidgetTemplete@@UAEPAXI@Z 00515a10 f i ChoiceWidgetTemplete.obj
 0001:00114a50       ??_GDataType@@QAEPAXI@Z    00515a50 f i ChoiceWidgetTemplete.obj
 0001:00114a90       ?append@?$QList@PAUDataType@@@@QAEXABQAUDataType@@@Z 00515a90 f i ChoiceWidgetTemplete.obj
 0001:00114c60       ?append@?$QList@PAVTextWidget@@@@QAEXABQAVTextWidget@@@Z 00515c60 f i ChoiceWidgetTemplete.obj
 0001:00114e30       ?at@?$QList@PAUDataType@@@@QBEABQAUDataType@@H@Z 00515e30 f i ChoiceWidgetTemplete.obj
 0001:00114ec0       ?dealloc@?$QList@PAUDataType@@@@AAEXPAUData@QListData@@@Z 00515ec0 f i ChoiceWidgetTemplete.obj
 0001:00114f10       ?detach_helper_grow@?$QList@PAUDataType@@@@AAEPAUNode@1@HH@Z 00515f10 f i ChoiceWidgetTemplete.obj
 0001:00115110       ?detach_helper_grow@?$QList@PAVTextWidget@@@@AAEPAUNode@1@HH@Z 00516110 f i ChoiceWidgetTemplete.obj
 0001:00115310       ?node_construct@?$QList@PAUDataType@@@@AAEXPAUNode@1@ABQAUDataType@@@Z 00516310 f i ChoiceWidgetTemplete.obj
 0001:001153d0       ?node_construct@?$QList@PAVTextWidget@@@@AAEXPAUNode@1@ABQAVTextWidget@@@Z 005163d0 f i ChoiceWidgetTemplete.obj
 0001:00115490       ?node_copy@?$QList@PAUDataType@@@@AAEXPAUNode@1@00@Z 00516490 f i ChoiceWidgetTemplete.obj
 0001:001156e0       ?node_copy@?$QList@PAVTextWidget@@@@AAEXPAUNode@1@00@Z 005166e0 f i ChoiceWidgetTemplete.obj
 0001:00115930       ?node_destruct@?$QList@PAUDataType@@@@AAEXPAUNode@1@0@Z 00516930 f i ChoiceWidgetTemplete.obj
 0001:001159a0       ?node_destruct@?$QList@PAUDataType@@@@AAEXPAUNode@1@@Z 005169a0 f i ChoiceWidgetTemplete.obj
 0001:001159d0       ?node_destruct@?$QList@PAVTextWidget@@@@AAEXPAUNode@1@@Z 005169d0 f i ChoiceWidgetTemplete.obj
 0001:00115a00       ?push_back@?$QList@PAUDataType@@@@QAEXABQAUDataType@@@Z 00516a00 f i ChoiceWidgetTemplete.obj
 0001:00115a20       ?push_back@?$QList@PAVTextWidget@@@@QAEXABQAVTextWidget@@@Z 00516a20 f i ChoiceWidgetTemplete.obj
 0001:00115a40       ?size@?$QList@PAUDataType@@@@QBEHXZ 00516a40 f i ChoiceWidgetTemplete.obj
 0001:00115a60       ?t@Node@?$QList@PAUDataType@@@@QAEAAPAUDataType@@XZ 00516a60 f i ChoiceWidgetTemplete.obj
 0001:00115a90       ??0ChoiceWidgetTempleteParam@@QAE@PAVBaseTemplate@@PAVCodeParams@@@Z 00516a90 f   ChoiceWidgetTempleteParam.obj
 0001:00115b10       ??1ChoiceWidgetTempleteParam@@UAE@XZ 00516b10 f   ChoiceWidgetTempleteParam.obj
 0001:00115b90       ?setChoiceTempleteOwner@ChoiceWidgetTempleteParam@@QAEXPAVChoiceWidgetTemplete@@@Z 00516b90 f   ChoiceWidgetTempleteParam.obj
 0001:00115bb0       ?saveSelfData@ChoiceWidgetTempleteParam@@UAEXPAVBaseIOTools@@@Z 00516bb0 f   ChoiceWidgetTempleteParam.obj
 0001:00115e40       ?loadSelfData@ChoiceWidgetTempleteParam@@UAEXPAVBaseIOTools@@@Z 00516e40 f   ChoiceWidgetTempleteParam.obj
 0001:00115e90       ?createOwner@ChoiceWidgetTempleteParam@@UAEPAVBaseContainer@@PAV2@PAVBaseIOTools@@_N@Z 00516e90 f   ChoiceWidgetTempleteParam.obj
 0001:00116400       ??_EChoiceWidgetTempleteParam@@UAEPAXI@Z 00517400 f i ChoiceWidgetTempleteParam.obj
 0001:00116400       ??_GChoiceWidgetTempleteParam@@UAEPAXI@Z 00517400 f i ChoiceWidgetTempleteParam.obj
 0001:00116440       ??0ExcelBaseLayout@@QAE@XZ 00517440 f   ExcelBaseLayout.obj
 0001:00116480       ??1ExcelBaseLayout@@QAE@XZ 00517480 f   ExcelBaseLayout.obj
 0001:001164b0       ??0ExcelCellData@@QAE@PAVViewObj@@PAVBaseTemplate@@PAVCodeParams@@@Z 005174b0 f   ExcelCellData.obj
 0001:001165a0       ??1ExcelCellData@@UAE@XZ   005175a0 f   ExcelCellData.obj
 0001:001166b0       ?initData@ExcelCellData@@QAEXXZ 005176b0 f   ExcelCellData.obj
 0001:00116720       ?initLines@ExcelCellData@@QAEXPAVLine@@000@Z 00517720 f   ExcelCellData.obj
 0001:00116760       ?initFromOther@ExcelCellData@@QAEXPAV1@@Z 00517760 f   ExcelCellData.obj
 0001:001167b0       ?onMeasure@ExcelCellData@@UAEXPAVMeasureWH@@_N@Z 005177b0 f   ExcelCellData.obj
 0001:001168d0       ?onLayout@ExcelCellData@@UAEX_NHHHH@Z 005178d0 f   ExcelCellData.obj
 0001:001169c0       ?replaceExcelPage@ExcelCellData@@QAEXPAVViewObj@@PAVVerticalViewParam@@H_N@Z 005179c0 f   ExcelCellData.obj
 0001:00116ad0       ?setCellTempleteOwner@ExcelCellData@@QAEXPAVBaseTemplate@@@Z 00517ad0 f   ExcelCellData.obj
 0001:00116af0       ?saveSelfData@ExcelCellData@@UAEXPAVBaseIOTools@@@Z 00517af0 f   ExcelCellData.obj
 0001:00116bc0       ?loadSelfData@ExcelCellData@@UAEXPAVBaseIOTools@@@Z 00517bc0 f   ExcelCellData.obj
 0001:00116bf0       ?createOwner@ExcelCellData@@UAEPAVBaseContainer@@PAV2@PAVBaseIOTools@@_N@Z 00517bf0 f   ExcelCellData.obj
 0001:00116e00       ?createCellPageByOther@ExcelCellData@@QAEXPAVWriterManager@@PAV1@PAVExcelTemplete@@@Z 00517e00 f   ExcelCellData.obj
 0001:00117230       ?getMaxWidthOfChildView@ExcelCellData@@QAEHXZ 00518230 f   ExcelCellData.obj
 0001:00117250       ?getViewOwner@ExcelCellData@@QAEPAVViewObj@@XZ 00518250 f   ExcelCellData.obj
 0001:00117270       ?setViewOwner@ExcelCellData@@QAEXPAVViewObj@@@Z 00518270 f   ExcelCellData.obj
 0001:00117290       ?setTemplateOwner@ExcelCellData@@QAEXPAVBaseTemplate@@@Z 00518290 f   ExcelCellData.obj
 0001:001172b0       ?getCanPrint@ExcelCellData@@QAE_NXZ 005182b0 f   ExcelCellData.obj
 0001:001172d0       ?getCanEdit@ExcelCellData@@QAE_NXZ 005182d0 f   ExcelCellData.obj
 0001:001172f0       ?getCellLineHeight@ExcelCellData@@QAEHXZ 005182f0 f   ExcelCellData.obj
 0001:00117320       ?getParagraphMgr@ExcelCellData@@QAEPAVParagraphManager@@XZ 00518320 f   ExcelCellData.obj
 0001:00117350       ?setVerticalPosition@ExcelCellData@@QAEXH@Z 00518350 f   ExcelCellData.obj
 0001:00117370       ?getVerticalPosition@ExcelCellData@@QAEHXZ 00518370 f   ExcelCellData.obj
 0001:00117390       ?getIntegrityRowByMaxH@ExcelCellData@@QAEHH@Z 00518390 f   ExcelCellData.obj
 0001:001178c0       ??_EExcelCellData@@UAEPAXI@Z 005188c0 f i ExcelCellData.obj
 0001:001178c0       ??_GExcelCellData@@UAEPAXI@Z 005188c0 f i ExcelCellData.obj
 0001:00117900       ?setMeasureWH@ExcelBaseLayout@@IAEXHHH@Z 00518900 f i ExcelCellData.obj
 0001:00117940       ??0ExcelCellDataRow@@QAE@XZ 00518940 f   ExcelCellDataRow.obj
 0001:001179d0       ??1ExcelCellDataRow@@QAE@XZ 005189d0 f   ExcelCellDataRow.obj
 0001:00117a20       ?refresh@ExcelCellDataRow@@QAEXXZ 00518a20 f   ExcelCellDataRow.obj
 0001:00117a40       ?addCellDataToList@ExcelCellDataRow@@QAEXPAVExcelCellData@@@Z 00518a40 f   ExcelCellDataRow.obj
 0001:00117a60       ?getCellDataList@ExcelCellDataRow@@QAEPAV?$QList@PAVExcelCellData@@@@XZ 00518a60 f   ExcelCellDataRow.obj
 0001:00117ac0       ??0ExcelCellPageMouse@@QAE@PAVViewObj@@@Z 00518ac0 f   ExcelCellPageMouse.obj
 0001:00117b10       ??1ExcelCellPageMouse@@UAE@XZ 00518b10 f   ExcelCellPageMouse.obj
 0001:00117b40       ?mousePress@ExcelCellPageMouse@@UAEHHHH@Z 00518b40 f   ExcelCellPageMouse.obj
 0001:00117b80       ?mouseRelease@ExcelCellPageMouse@@UAEHHHH@Z 00518b80 f   ExcelCellPageMouse.obj
 0001:00117d10       ?mouseDrag@ExcelCellPageMouse@@UAEHHHH@Z 00518d10 f   ExcelCellPageMouse.obj
 0001:00117ec0       ?mouseMove@ExcelCellPageMouse@@UAEHHHH@Z 00518ec0 f   ExcelCellPageMouse.obj
 0001:00117ed0       ?mouseDoublePress@ExcelCellPageMouse@@UAEHHHH@Z 00518ed0 f   ExcelCellPageMouse.obj
 0001:00117f10       ?doPress@ExcelCellPageMouse@@AAEHDHH@Z 00518f10 f   ExcelCellPageMouse.obj
 0001:001180e0       ?getPagePartTxtLayer@ExcelCellPageMouse@@AAEPAVViewObj@@DPAV2@AAH1@Z 005190e0 f   ExcelCellPageMouse.obj
 0001:00118160       ?getPointInsideRow@ExcelCellPageMouse@@AAEPAVViewObj@@PAV?$QList@PAVBaseContainer@@@@AAH1@Z 00519160 f   ExcelCellPageMouse.obj
 0001:00118290       ?getPointInsideObj@ExcelCellPageMouse@@AAEPAVViewObj@@PAVOperateMgr@@PAV?$QList@PAVBaseContainer@@@@HAADD@Z 00519290 f   ExcelCellPageMouse.obj
 0001:00118480       ?getCanEdit@ExcelCellPageMouse@@AAE_NXZ 00519480 f   ExcelCellPageMouse.obj
 0001:00118720       ??_EExcelCellPageMouse@@UAEPAXI@Z 00519720 f i ExcelCellPageMouse.obj
 0001:00118720       ??_GExcelCellPageMouse@@UAEPAXI@Z 00519720 f i ExcelCellPageMouse.obj
 0001:00118760       ??0ExcelKeyboard@@QAE@PAVExcelTemplete@@@Z 00519760 f   ExcelKeyboard.obj
 0001:00118800       ??1ExcelKeyboard@@UAE@XZ   00519800 f   ExcelKeyboard.obj
 0001:001188a0       ?init@ExcelKeyboard@@QAEXXZ 005198a0 f   ExcelKeyboard.obj
 0001:001188c0       ?keyPress@ExcelKeyboard@@UAEHVQString@@PAVBaseElement@@@Z 005198c0 f   ExcelKeyboard.obj
 0001:00119270       ?keyRelease@ExcelKeyboard@@UAEHVQString@@PAVBaseElement@@@Z 0051a270 f   ExcelKeyboard.obj
 0001:001192a0       ?isSystemExcelKey@ExcelKeyboard@@SA_NABVQString@@@Z 0051a2a0 f   ExcelKeyboard.obj
 0001:001195b0       ??_GExcelKeyboard@@UAEPAXI@Z 0051a5b0 f i ExcelKeyboard.obj
 0001:001195b0       ??_EExcelKeyboard@@UAEPAXI@Z 0051a5b0 f i ExcelKeyboard.obj
 0001:001195f0       ??0ExcelLayout@@QAE@PAVViewObj@@_N@Z 0051a5f0 f   ExcelLayout.obj
 0001:00119a40       ??1ExcelLayout@@UAE@XZ     0051aa40 f   ExcelLayout.obj
 0001:0011a1b0       ?setSelectLineVisability@ExcelLayout@@QAEX_NHHHH@Z 0051b1b0 f   ExcelLayout.obj
 0001:0011a250       ?judgeCanHaveNum@ExcelLayout@@UAEHPAVBaseContainer@@H_N@Z 0051b250 f   ExcelLayout.obj
 0001:0011a260       ?conditionAddChild@ExcelLayout@@QAEHPAVBaseContainer@@H@Z 0051b260 f   ExcelLayout.obj
 0001:0011a270       ?generateCells@ExcelLayout@@QAEXHHPAVViewObj@@@Z 0051b270 f   ExcelLayout.obj
 0001:0011a500       ?getCellWidth@ExcelLayout@@SAHHHPAVViewObj@@@Z 0051b500 f   ExcelLayout.obj
 0001:0011a550       ?canGenerateExcel@ExcelLayout@@SA_NHHPAVViewObj@@@Z 0051b550 f   ExcelLayout.obj
 0001:0011a5c0       ?createCellData@ExcelLayout@@QAEPAVExcelCellData@@PAVLine@@000@Z 0051b5c0 f   ExcelLayout.obj
 0001:0011a670       ?addOrRomoveCellData@ExcelLayout@@QAEXPAVExcelCellData@@_N@Z 0051b670 f   ExcelLayout.obj
 0001:0011a810       ?moveSomeLines@ExcelLayout@@QAEXPAV?$QList@PAVLine@@@@HHH@Z 0051b810 f   ExcelLayout.obj
 0001:0011aa20       ?sortLines@ExcelLayout@@SAXPAV?$QList@PAVLine@@@@@Z 0051ba20 f   ExcelLayout.obj
 0001:0011aae0       ?insertLine@ExcelLayout@@QAEXPAVLine@@PAV?$QList@PAVLine@@@@@Z 0051bae0 f   ExcelLayout.obj
 0001:0011ac60       ?findNearestLine@ExcelLayout@@QAEPAVLine@@PAV?$QList@PAVLine@@@@HH@Z 0051bc60 f   ExcelLayout.obj
 0001:0011ad30       ?removeUselessLine@ExcelLayout@@QAEX_N@Z 0051bd30 f   ExcelLayout.obj
 0001:0011ad60       ?removeUseLessRowLine@ExcelLayout@@QAEX_N@Z 0051bd60 f   ExcelLayout.obj
 0001:0011af60       ?removeUseLessColLine@ExcelLayout@@QAEX_N@Z 0051bf60 f   ExcelLayout.obj
 0001:0011b160       ?getLineNextOrLastLine@ExcelLayout@@QAEPAVLine@@PAV2@_N1@Z 0051c160 f   ExcelLayout.obj
 0001:0011b260       ?getLineNextOrLastValidLine@ExcelLayout@@QAEPAVLine@@PAV?$QList@PAVExcelCellData@@@@_N1@Z 0051c260 f   ExcelLayout.obj
 0001:0011b490       ?getIndexOfLine@ExcelLayout@@QAEHPAVLine@@_N@Z 0051c490 f   ExcelLayout.obj
 0001:0011b4d0       ?onMeasure@ExcelLayout@@UAEXPAVMeasureWH@@_N@Z 0051c4d0 f   ExcelLayout.obj
 0001:0011b7e0       ?onPrepareLayout@ExcelLayout@@UAEX_NHHHH@Z 0051c7e0 f   ExcelLayout.obj
 0001:0011b870       ?composing@ExcelLayout@@UAEX_N@Z 0051c870 f   ExcelLayout.obj
 0001:0011b900       ?seekCellsHaveLine@ExcelLayout@@QAEXDPAVLine@@PAV?$QList@PAVExcelCellData@@@@1@Z 0051c900 f   ExcelLayout.obj
 0001:0011baa0       ?changeCellsPositionLine@ExcelLayout@@QAE_NPAV?$QList@PAVExcelCellData@@@@PAVLine@@D@Z 0051caa0 f   ExcelLayout.obj
 0001:0011bd40       ?seekCell@ExcelLayout@@QAEPAVViewObj@@HH@Z 0051cd40 f   ExcelLayout.obj
 0001:0011bdd0       ?clearCellsTempT1@ExcelLayout@@QAEXXZ 0051cdd0 f   ExcelLayout.obj
 0001:0011be00       ?clearCellsTempT2@ExcelLayout@@QAEXXZ 0051ce00 f   ExcelLayout.obj
 0001:0011be10       ?getCellDataFromCell@ExcelLayout@@SAPAVExcelCellData@@PAVBaseElement@@@Z 0051ce10 f   ExcelLayout.obj
 0001:0011beb0       ?getCellBaseInformation@ExcelLayout@@SAXAAH0PAVBaseElement@@@Z 0051ceb0 f   ExcelLayout.obj
 0001:0011bf30       ?getWidthFormCellData@ExcelLayout@@SAHPAVExcelCellData@@@Z 0051cf30 f   ExcelLayout.obj
 0001:0011bf60       ?getWidthFormCellData@ExcelLayout@@SAHPAVBaseElement@@@Z 0051cf60 f   ExcelLayout.obj
 0001:0011bf90       ?getCellDatasFormCellObjs@ExcelLayout@@QAEXPAV?$QList@PAVViewObj@@@@PAV?$QList@PAVExcelCellData@@@@@Z 0051cf90 f   ExcelLayout.obj
 0001:0011c030       ?mergeTwoCellData@ExcelLayout@@QAE_NPAVExcelCellData@@00@Z 0051d030 f   ExcelLayout.obj
 0001:0011c1f0       ?mergCellDatas@ExcelLayout@@QAEXPAV?$QList@PAVExcelCellData@@@@PAVExcelCellData@@@Z 0051d1f0 f   ExcelLayout.obj
 0001:0011c3a0       ?canMerge@ExcelLayout@@QAE_NPAV?$QList@PAVExcelCellData@@@@PAVExcelCellData@@@Z 0051d3a0 f   ExcelLayout.obj
 0001:0011c500       ?mergeCell@ExcelLayout@@QAE_NPAV?$QList@PAVViewObj@@@@@Z 0051d500 f   ExcelLayout.obj
 0001:0011c9d0       ?findLeftAndTopCellObj@ExcelLayout@@QAEPAVViewObj@@PAV?$QList@PAVViewObj@@@@PAVExcelCellData@@@Z 0051d9d0 f   ExcelLayout.obj
 0001:0011ca60       ?deleteCellObj@ExcelLayout@@QAEXPAVViewObj@@@Z 0051da60 f   ExcelLayout.obj
 0001:0011cac0       ?deleteCellData@ExcelLayout@@QAEXPAVExcelCellData@@@Z 0051dac0 f   ExcelLayout.obj
 0001:0011cb20       ?dividCell@ExcelLayout@@QAE_NPAVViewObj@@_NH@Z 0051db20 f   ExcelLayout.obj
 0001:0011cb60       ?dividCell@ExcelLayout@@QAEXPAVExcelCellData@@HH@Z 0051db60 f   ExcelLayout.obj
 0001:0011cda0       ?dividCellOnHorizontal@ExcelLayout@@QAE_NPAVViewObj@@H@Z 0051dda0 f   ExcelLayout.obj
 0001:0011ce60       ?dividCellOnHorizontal@ExcelLayout@@QAE_NPAVExcelCellData@@H@Z 0051de60 f   ExcelLayout.obj
 0001:0011d200       ?setCellWidth@ExcelLayout@@QAE_NPAVExcelCellData@@H@Z 0051e200 f   ExcelLayout.obj
 0001:0011d430       ?getNearestColOrRowLine@ExcelLayout@@QAEPAVLine@@_NHH@Z 0051e430 f   ExcelLayout.obj
 0001:0011d510       ?dividCellOnVertical@ExcelLayout@@QAEXPAVViewObj@@H@Z 0051e510 f   ExcelLayout.obj
 0001:0011d550       ?dividCellOnVertical@ExcelLayout@@QAEXPAVExcelCellData@@H@Z 0051e550 f   ExcelLayout.obj
 0001:0011d830       ?getCellDataList@ExcelLayout@@QAEPAVExcelCellDataRow@@H@Z 0051e830 f   ExcelLayout.obj
 0001:0011d900       ?getCellRowSize@ExcelLayout@@QAEHXZ 0051e900 f   ExcelLayout.obj
 0001:0011d920       ?removeNotShowCell@ExcelLayout@@QAEXPAV?$QList@PAVBaseContainer@@@@@Z 0051e920 f   ExcelLayout.obj
 0001:0011d9b0       ?isCellSOnThroughRow@ExcelLayout@@QAE_NPAV?$QList@PAVExcelCellData@@@@@Z 0051e9b0 f   ExcelLayout.obj
 0001:0011dcd0       ?getExcelTemplete@ExcelLayout@@QAEPAVExcelTemplete@@XZ 0051ecd0 f   ExcelLayout.obj
 0001:0011dcf0       ?showTidy@ExcelLayout@@QAEXXZ 0051ecf0 f   ExcelLayout.obj
 0001:0011dd50       ?addRowOrCol@ExcelLayout@@QAEXPAVExcelCellData@@H@Z 0051ed50 f   ExcelLayout.obj
 0001:0011e6d0       ?createActionToRemeberOperate@ExcelLayout@@QAEXXZ 0051f6d0 f   ExcelLayout.obj
 0001:0011e7b0       ?checkNarrowEachLineDistance@ExcelLayout@@QAEXHPAV?$QList@PAVLine@@@@AAV?$QList@H@@1@Z 0051f7b0 f   ExcelLayout.obj
 0001:0011eb00       ?narrowEachLineDistance@ExcelLayout@@QAEXHPAV?$QList@PAVLine@@@@AAV?$QList@H@@@Z 0051fb00 f   ExcelLayout.obj
 0001:0011eb90       ?generateCellData@ExcelLayout@@QAEXPAVLine@@0PAV?$QList@PAVLine@@@@PAVViewObj@@@Z 0051fb90 f   ExcelLayout.obj
 0001:0011ed20       ?isRectCrossSomeCellData@ExcelLayout@@QAE_NHHHH@Z 0051fd20 f   ExcelLayout.obj
 0001:0011edd0       ?deleteRowOrCol@ExcelLayout@@QAEXPAVExcelCellData@@_N@Z 0051fdd0 f   ExcelLayout.obj
 0001:0011fcc0       ?deleteRowOrColCellData@ExcelLayout@@QAEXPAVLine@@0_N@Z 00520cc0 f   ExcelLayout.obj
 0001:0011fdd0       ?setCellProperty@ExcelLayout@@QAE_NPAVExcelCellData@@AAV?$QMap@VQString@@V1@@@HHPAVOperateMgr@@_N@Z 00520dd0 f   ExcelLayout.obj
 0001:0011ff70       ?setExcelProperty@ExcelLayout@@QAEXPAVExcelCellData@@AAV?$QMap@VQString@@V1@@@_NHHVQString@@2HH3@Z 00520f70 f   ExcelLayout.obj
 0001:00120250       ?setExcelInsideProperty@ExcelLayout@@SAXPAVViewObj@@H@Z 00521250 f   ExcelLayout.obj
 0001:00120310       ?initByOther@ExcelLayout@@QAEXPAVWriterManager@@PAV1@@Z 00521310 f   ExcelLayout.obj
 0001:001206a0       ?showSetCellProperty@ExcelLayout@@QAEXPAVExcelCellData@@@Z 005216a0 f   ExcelLayout.obj
 0001:001209e0       ?showSetExcelProperty@ExcelLayout@@QAEXPAVExcelCellData@@@Z 005219e0 f   ExcelLayout.obj
 0001:00121410       ?isMyCell@ExcelLayout@@QAE_NPAVViewObj@@@Z 00522410 f   ExcelLayout.obj
 0001:00121470       ?getRowCellMinHieght@ExcelLayout@@QAEHPAVLine@@@Z 00522470 f   ExcelLayout.obj
 0001:00121540       ?isAbleToSetX@ExcelLayout@@QAE_NDHPAV?$QList@PAVExcelCellData@@@@@Z 00522540 f   ExcelLayout.obj
 0001:001216a0       ?getXCanSet@ExcelLayout@@QAEHDPAV?$QList@PAVExcelCellData@@@@@Z 005226a0 f   ExcelLayout.obj
 0001:001217a0       ?getExcelWidth@ExcelLayout@@QAEHXZ 005227a0 f   ExcelLayout.obj
 0001:001217f0       ?setCellDataFocus@ExcelLayout@@QAEXPAVExcelCellData@@PAVOperateMgr@@PAVViewObj@@DD@Z 005227f0 f   ExcelLayout.obj
 0001:001218c0       ?clearAllCellTxtLayerForWinData@ExcelLayout@@QAEXPAVWriterManager@@@Z 005228c0 f   ExcelLayout.obj
 0001:001218d0       ?addChild@ExcelLayout@@UAE_NPAVBaseContainer@@H_N@Z 005228d0 f   ExcelLayout.obj
 0001:00121900       ?addChildren@ExcelLayout@@UAEXPAV?$QList@PAVBaseContainer@@@@HHH_N@Z 00522900 f   ExcelLayout.obj
 0001:00121930       ?delChild@ExcelLayout@@UAEHH_N@Z 00522930 f   ExcelLayout.obj
 0001:00121950       ?delChild@ExcelLayout@@UAEHPAVBaseContainer@@_N@Z 00522950 f   ExcelLayout.obj
 0001:00121970       ?delChildren@ExcelLayout@@UAEHHH_N@Z 00522970 f   ExcelLayout.obj
 0001:001219a0       ?getWholeRowCrossPageH@ExcelLayout@@QAEHH@Z 005229a0 f   ExcelLayout.obj
 0001:00121c10       ?setWriteManager@ExcelLayout@@QAEXPAVWriterManager@@_N@Z 00522c10 f   ExcelLayout.obj
 0001:001243d0       ??0?$QList@PAVExcelCellDataRow@@@@QAE@XZ 005253d0 f i ExcelLayout.obj
 0001:001243f0       ??0Line@@QAE@H@Z           005253f0 f i ExcelLayout.obj
 0001:00124420       ??0Line@@QAE@PAV0@@Z       00525420 f i ExcelLayout.obj
 0001:00124450       ??1?$QList@PAVExcelCellDataRow@@@@QAE@XZ 00525450 f i ExcelLayout.obj
 0001:00124484       ??_EExcelLayout@@WBI@AEPAXI@Z 00525484 f i ExcelLayout.obj
 0001:00124490       ??_G?$QList@PAVExcelCellDataRow@@@@QAEPAXI@Z 00525490 f i ExcelLayout.obj
 0001:001244d0       ??_GExcelCellDataRow@@QAEPAXI@Z 005254d0 f i ExcelLayout.obj
 0001:00124510       ??_EExcelLayout@@UAEPAXI@Z 00525510 f i ExcelLayout.obj
 0001:00124510       ??_GExcelLayout@@UAEPAXI@Z 00525510 f i ExcelLayout.obj
 0001:00124550       ?addAllPosition@Line@@QAEXH@Z 00525550 f i ExcelLayout.obj
 0001:00124590       ?append@?$QList@PAVExcelCellDataRow@@@@QAEXABQAVExcelCellDataRow@@@Z 00525590 f i ExcelLayout.obj
 0001:00124760       ?at@?$QList@PAVExcelCellDataRow@@@@QBEABQAVExcelCellDataRow@@H@Z 00525760 f i ExcelLayout.obj
 0001:001247f0       ?contains@?$QList@PAVExcelCellData@@@@QBE_NABQAVExcelCellData@@@Z 005257f0 f i ExcelLayout.obj
 0001:00124870       ?data_ptr@?$QStaticStringData@$0BA@@@QBEPAU?$QTypedArrayData@G@@XZ 00525870 f i ExcelLayout.obj
 0001:001248d0       ?dealloc@?$QList@PAVExcelCellDataRow@@@@AAEXPAUData@QListData@@@Z 005258d0 f i ExcelLayout.obj
 0001:00124920       ?detach_helper_grow@?$QList@PAVExcelCellDataRow@@@@AAEPAUNode@1@HH@Z 00525920 f i ExcelLayout.obj
 0001:00124b20       ?length@?$QList@PAVExcelCellData@@@@QBEHXZ 00525b20 f i ExcelLayout.obj
 0001:00124b40       ?node_construct@?$QList@PAVExcelCellDataRow@@@@AAEXPAUNode@1@ABQAVExcelCellDataRow@@@Z 00525b40 f i ExcelLayout.obj
 0001:00124c00       ?node_copy@?$QList@PAVExcelCellDataRow@@@@AAEXPAUNode@1@00@Z 00525c00 f i ExcelLayout.obj
 0001:00124e50       ?node_destruct@?$QList@PAVExcelCellDataRow@@@@AAEXPAUNode@1@0@Z 00525e50 f i ExcelLayout.obj
 0001:00124ec0       ?node_destruct@?$QList@PAVExcelCellDataRow@@@@AAEXPAUNode@1@@Z 00525ec0 f i ExcelLayout.obj
 0001:00124ef0       ?onLayout@ExcelLayout@@UAEX_NHHHH@Z 00525ef0 f i ExcelLayout.obj
 0001:00124f00       ?push_back@?$QList@PAVExcelCellDataRow@@@@QAEXABQAVExcelCellDataRow@@@Z 00525f00 f i ExcelLayout.obj
 0001:00124f20       ?removeAt@?$QList@PAVExcelCellData@@@@QAEXH@Z 00525f20 f i ExcelLayout.obj
 0001:00124f80       ?removeAt@?$QList@PAVLine@@@@QAEXH@Z 00525f80 f i ExcelLayout.obj
 0001:00124fe0       ?showAboutMessageBox@MessageBox@@SAXVQString@@0@Z 00525fe0 f i ExcelLayout.obj
 0001:00125150       ?size@?$QList@PAVExcelCellDataRow@@@@QBEHXZ 00526150 f i ExcelLayout.obj
 0001:00125170       ?swap@?$QList@PAVExcelCellData@@@@QAEXHH@Z 00526170 f i ExcelLayout.obj
 0001:00125270       ?t@Node@?$QList@PAVExcelCellDataRow@@@@QAEAAPAVExcelCellDataRow@@XZ 00526270 f i ExcelLayout.obj
 0001:001252a0       ??0ExcelLayoutViewParam@@QAE@PAVViewObj@@@Z 005262a0 f   ExcelLayoutViewParam.obj
 0001:00125300       ??1ExcelLayoutViewParam@@UAE@XZ 00526300 f   ExcelLayoutViewParam.obj
 0001:00125320       ?setInsideLeft@ExcelLayoutViewParam@@QAEXH@Z 00526320 f   ExcelLayoutViewParam.obj
 0001:00125340       ?setInsideRight@ExcelLayoutViewParam@@QAEXH@Z 00526340 f   ExcelLayoutViewParam.obj
 0001:00125360       ?setInsideTop@ExcelLayoutViewParam@@QAEXH@Z 00526360 f   ExcelLayoutViewParam.obj
 0001:00125380       ?setInsideBottom@ExcelLayoutViewParam@@QAEXH@Z 00526380 f   ExcelLayoutViewParam.obj
 0001:001253a0       ?getInsideLeft@ExcelLayoutViewParam@@QAEHXZ 005263a0 f   ExcelLayoutViewParam.obj
 0001:001253c0       ?getInsideRight@ExcelLayoutViewParam@@QAEHXZ 005263c0 f   ExcelLayoutViewParam.obj
 0001:001253e0       ?getInsideTop@ExcelLayoutViewParam@@QAEHXZ 005263e0 f   ExcelLayoutViewParam.obj
 0001:00125400       ?getInsideBottom@ExcelLayoutViewParam@@QAEHXZ 00526400 f   ExcelLayoutViewParam.obj
 0001:00125470       ??_EExcelLayoutViewParam@@UAEPAXI@Z 00526470 f i ExcelLayoutViewParam.obj
 0001:00125470       ??_GExcelLayoutViewParam@@UAEPAXI@Z 00526470 f i ExcelLayoutViewParam.obj
 0001:001254b0       ??0ExcelMouseInputManager@@QAE@PAVExcelTemplete@@@Z 005264b0 f   ExcelMouseInputManager.obj
 0001:00125620       ??1ExcelMouseInputManager@@UAE@XZ 00526620 f   ExcelMouseInputManager.obj
 0001:00125740       ?init@ExcelMouseInputManager@@QAEXXZ 00526740 f   ExcelMouseInputManager.obj
 0001:00125770       ?mousePress@ExcelMouseInputManager@@UAEHHHHPAVBaseElement@@@Z 00526770 f   ExcelMouseInputManager.obj
 0001:00125aa0       ?mouseRelease@ExcelMouseInputManager@@UAEHHHHPAVBaseElement@@@Z 00526aa0 f   ExcelMouseInputManager.obj
 0001:00125cb0       ?mouseMove@ExcelMouseInputManager@@UAEHHHHPAVBaseElement@@@Z 00526cb0 f   ExcelMouseInputManager.obj
 0001:00125ed0       ?mouseDrag@ExcelMouseInputManager@@UAEHHHHPAVBaseElement@@@Z 00526ed0 f   ExcelMouseInputManager.obj
 0001:001260b0       ?mouseDoublePress@ExcelMouseInputManager@@UAEHHHHPAVBaseElement@@@Z 005270b0 f   ExcelMouseInputManager.obj
 0001:001260e0       ?mouseScroll@ExcelMouseInputManager@@UAEHHPAVBaseElement@@@Z 005270e0 f   ExcelMouseInputManager.obj
 0001:001260f0       ?getIsPreeOnExcel@ExcelMouseInputManager@@QAE_NXZ 005270f0 f   ExcelMouseInputManager.obj
 0001:00126110       ?setIsPressOnExcel@ExcelMouseInputManager@@QAEX_N@Z 00527110 f   ExcelMouseInputManager.obj
 0001:00126130       ?setPressPage@ExcelMouseInputManager@@QAEXPAVViewObj@@@Z 00527130 f   ExcelMouseInputManager.obj
 0001:00126150       ?getPressPage@ExcelMouseInputManager@@QAEPAVViewObj@@XZ 00527150 f   ExcelMouseInputManager.obj
 0001:00126170       ?isClickOnSelectCellLeftOrRight@ExcelMouseInputManager@@AAE_NPAVViewObj@@H@Z 00527170 f   ExcelMouseInputManager.obj
 0001:00126280       ?findSelectCellLAndRCellData@ExcelMouseInputManager@@AAE_NPAVExcelCellData@@@Z 00527280 f   ExcelMouseInputManager.obj
 0001:00126460       ?handleDragLine@ExcelMouseInputManager@@AAEXHHH@Z 00527460 f   ExcelMouseInputManager.obj
 0001:00126860       ?handleDragOnSelectCellLOrR@ExcelMouseInputManager@@AAEXHHH@Z 00527860 f   ExcelMouseInputManager.obj
 0001:00126a10       ?handleReleaseDragLine@ExcelMouseInputManager@@AAEXHHH@Z 00527a10 f   ExcelMouseInputManager.obj
 0001:00126dc0       ?handleReleaseDragOnSelectCellLOrR@ExcelMouseInputManager@@AAEXHHH@Z 00527dc0 f   ExcelMouseInputManager.obj
 0001:00127070       ?handleReleaseDragOnSelectCellLOrRNew@ExcelMouseInputManager@@AAEXHHH@Z 00528070 f   ExcelMouseInputManager.obj
 0001:00127270       ?selectCellLOrRChangeLine@ExcelMouseInputManager@@AAEXPAVOperateMgr@@PAVLine@@@Z 00528270 f   ExcelMouseInputManager.obj
 0001:00127500       ?setDragLineShow@ExcelMouseInputManager@@AAEX_N@Z 00528500 f   ExcelMouseInputManager.obj
 0001:001275f0       ?caculateMarquee@ExcelMouseInputManager@@AAE_NHHH@Z 005285f0 f   ExcelMouseInputManager.obj
 0001:001278d0       ?isSelectOnChooseCellLeftOrRight@ExcelMouseInputManager@@AAE_NPAV?$QList@PAVBaseContainer@@@@PAVExcelCellData@@H@Z 005288d0 f   ExcelMouseInputManager.obj
 0001:00127a50       ?isAbleToMooveCellLOrR@ExcelMouseInputManager@@AAE_NPAVExcelCellData@@PAVLine@@@Z 00528a50 f   ExcelMouseInputManager.obj
 0001:00127df0       ?canMousePressInTitleBottom@ExcelMouseInputManager@@AAE_NXZ 00528df0 f   ExcelMouseInputManager.obj
 0001:00128950       ??_EExcelMouseInputManager@@UAEPAXI@Z 00529950 f i ExcelMouseInputManager.obj
 0001:00128950       ??_GExcelMouseInputManager@@UAEPAXI@Z 00529950 f i ExcelMouseInputManager.obj
 0001:00128990       ?setAllPosition@Line@@QAEXH@Z 00529990 f i ExcelMouseInputManager.obj
 0001:001289c0       ??0ExcelTemplete@@QAE@PAVWriterManager@@PAVBaseTemplate@@HVQString@@@Z 005299c0 f   ExcelTemplete.obj
 0001:00128be0       ??0ExcelTemplete@@QAE@PAVWriterManager@@PAV0@@Z 00529be0 f   ExcelTemplete.obj
 0001:00128e70       ??1ExcelTemplete@@UAE@XZ   00529e70 f   ExcelTemplete.obj
 0001:00128fc0       ?initExcelTemplete@ExcelTemplete@@QAEXHHHHPAVViewObj@@_N@Z 00529fc0 f   ExcelTemplete.obj
 0001:00129060       ?initExcelTemplete@ExcelTemplete@@QAEX_N0@Z 0052a060 f   ExcelTemplete.obj
 0001:00129160       ?setInitOver@ExcelTemplete@@QAEXXZ 0052a160 f   ExcelTemplete.obj
 0001:00129180       ?requestLayoutByCell@ExcelTemplete@@QAEXPAVViewObj@@H@Z 0052a180 f   ExcelTemplete.obj
 0001:00129510       ?addContainerToPage@ExcelTemplete@@QAEX_N@Z 0052a510 f   ExcelTemplete.obj
 0001:00129550       ?requestLayout@ExcelTemplete@@QAEX_N0@Z 0052a550 f   ExcelTemplete.obj
 0001:00129680       ?layoutAgent@ExcelTemplete@@QAEXPAVViewObj@@H0DAAPAV2@AAD_N@Z 0052a680 f   ExcelTemplete.obj
 0001:00129720       ?addWidgetToChildMgr@ExcelTemplete@@QAEXXZ 0052a720 f   ExcelTemplete.obj
 0001:00129800       ?mousePress@ExcelTemplete@@UAEHHHHPAVBaseContainer@@@Z 0052a800 f   ExcelTemplete.obj
 0001:001298d0       ?mouseRelease@ExcelTemplete@@UAEHHHHPAVBaseContainer@@@Z 0052a8d0 f   ExcelTemplete.obj
 0001:00129a20       ?mouseMove@ExcelTemplete@@UAEHHHHPAVBaseContainer@@@Z 0052aa20 f   ExcelTemplete.obj
 0001:00129a90       ?mouseDrag@ExcelTemplete@@UAEHHHHPAVBaseContainer@@@Z 0052aa90 f   ExcelTemplete.obj
 0001:00129b90       ?mouseDoublePress@ExcelTemplete@@UAEHHHHPAVBaseContainer@@@Z 0052ab90 f   ExcelTemplete.obj
 0001:00129c80       ?mouseScroll@ExcelTemplete@@UAEHHPAVBaseContainer@@@Z 0052ac80 f   ExcelTemplete.obj
 0001:00129cd0       ?keyPress@ExcelTemplete@@UAEHVQString@@PAVBaseContainer@@@Z 0052acd0 f   ExcelTemplete.obj
 0001:0012a500       ?keyRelease@ExcelTemplete@@UAEHVQString@@PAVBaseContainer@@@Z 0052b500 f   ExcelTemplete.obj
 0001:0012a5c0       ?getPageLayer@ExcelTemplete@@QAEPAVViewObj@@XZ 0052b5c0 f   ExcelTemplete.obj
 0001:0012a630       ?getWindowObj@ExcelTemplete@@QAEPAVViewObj@@XZ 0052b630 f   ExcelTemplete.obj
 0001:0012a660       ?getRowObj@ExcelTemplete@@QAEPAVViewObj@@H@Z 0052b660 f   ExcelTemplete.obj
 0001:0012a790       ?refreshRowObj@ExcelTemplete@@QAEXXZ 0052b790 f   ExcelTemplete.obj
 0001:0012a7f0       ?getIsShowBorader@ExcelTemplete@@QAE_NXZ 0052b7f0 f   ExcelTemplete.obj
 0001:0012a810       ?getStartRow@ExcelTemplete@@QAEPAVViewObj@@XZ 0052b810 f   ExcelTemplete.obj
 0001:0012a8c0       ?showTidy@ExcelTemplete@@UAEXXZ 0052b8c0 f   ExcelTemplete.obj
 0001:0012a900       ?addExcelDragLineToContainer@ExcelTemplete@@QAEXPAVViewObj@@@Z 0052b900 f   ExcelTemplete.obj
 0001:0012a9c0       ?removeExcelDragLineFromContainer@ExcelTemplete@@QAEXPAVViewObj@@@Z 0052b9c0 f   ExcelTemplete.obj
 0001:0012aa30       ?resetExcelRect@ExcelTemplete@@QAEXXZ 0052ba30 f   ExcelTemplete.obj
 0001:0012aa80       ?resizeRect@ExcelTemplete@@QAEXHHHH@Z 0052ba80 f   ExcelTemplete.obj
 0001:0012ab20       ?isMyCell@ExcelTemplete@@SA_NAAPAV?$QList@PAVBaseContainer@@@@PAV1@@Z 0052bb20 f   ExcelTemplete.obj
 0001:0012abf0       ?isMyCell@ExcelTemplete@@SA_NAAPAV?$QList@PAVExcelCellData@@@@PAV1@@Z 0052bbf0 f   ExcelTemplete.obj
 0001:0012acb0       ?getWillShowObjList@ExcelTemplete@@UAEXPAV?$QList@PAVViewObj@@@@@Z 0052bcb0 f   ExcelTemplete.obj
 0001:0012ae20       ?getCellSize@ExcelTemplete@@QAEHXZ 0052be20 f   ExcelTemplete.obj
 0001:0012ae40       ?getCellList@ExcelTemplete@@QAEPAV?$QList@PAVExcelCellData@@@@XZ 0052be40 f   ExcelTemplete.obj
 0001:0012ae70       ?getExcelLayout@ExcelTemplete@@QAEPAVExcelLayout@@XZ 0052be70 f   ExcelTemplete.obj
 0001:0012ae90       ?sortLine@ExcelTemplete@@QAEXXZ 0052be90 f   ExcelTemplete.obj
 0001:0012aec0       ?getVirtulExcel@ExcelTemplete@@QAEPAVViewObj@@XZ 0052bec0 f   ExcelTemplete.obj
 0001:0012aee0       ?setFocusOnSelf@ExcelTemplete@@QAEXXZ 0052bee0 f   ExcelTemplete.obj
 0001:0012af10       ?getIsPressOnExcel@ExcelTemplete@@QAE_NXZ 0052bf10 f   ExcelTemplete.obj
 0001:0012af30       ?setIsPressOnExcel@ExcelTemplete@@QAEX_N@Z 0052bf30 f   ExcelTemplete.obj
 0001:0012af50       ?setMouse@ExcelTemplete@@UAEXPAVBaseTempleteMouse@@@Z 0052bf50 f   ExcelTemplete.obj
 0001:0012af90       ?setDrawTxtParam@ExcelTemplete@@UAE_NPAVStrContentData@@@Z 0052bf90 f   ExcelTemplete.obj
 0001:0012b020       ?setExcelTemplateVerticalType@ExcelTemplete@@SA_NV?$QList@H@@PAV?$QList@PAVExcelCellData@@@@@Z 0052c020 f   ExcelTemplete.obj
 0001:0012b220       ?getVerticalLayoutType@ExcelTemplete@@QAEHXZ 0052c220 f   ExcelTemplete.obj
 0001:0012b330       ?getCellPageRootTemplate@ExcelTemplete@@QAEXAAV?$QList@PAVBaseContainer@@@@@Z 0052c330 f   ExcelTemplete.obj
 0001:0012b390       ?getWholeRowCrossPageH@ExcelTemplete@@QAEHH@Z 0052c390 f   ExcelTemplete.obj
 0001:0012b3a0       ?getPressPage@ExcelTemplete@@QAEPAVViewObj@@XZ 0052c3a0 f   ExcelTemplete.obj
 0001:0012b3d0       ?setPressPage@ExcelTemplete@@QAEXPAVViewObj@@@Z 0052c3d0 f   ExcelTemplete.obj
 0001:0012b400       ?setWriteManager@ExcelTemplete@@UAEXPAVWriterManager@@_N@Z 0052c400 f   ExcelTemplete.obj
 0001:0012bfd0       ??_GExcelTemplete@@UAEPAXI@Z 0052cfd0 f i ExcelTemplete.obj
 0001:0012bfd0       ??_EExcelTemplete@@UAEPAXI@Z 0052cfd0 f i ExcelTemplete.obj
 0001:0012c010       ??0ExcelTempleteParamData@@QAE@PAVBaseTemplate@@PAVCodeParams@@@Z 0052d010 f   ExcelTempleteParamData.obj
 0001:0012c090       ??1ExcelTempleteParamData@@UAE@XZ 0052d090 f   ExcelTempleteParamData.obj
 0001:0012c100       ?setExcelTempleteOwner@ExcelTempleteParamData@@QAEXPAVExcelTemplete@@@Z 0052d100 f   ExcelTempleteParamData.obj
 0001:0012c120       ?saveSelfData@ExcelTempleteParamData@@UAEXPAVBaseIOTools@@@Z 0052d120 f   ExcelTempleteParamData.obj
 0001:0012c340       ?loadSelfData@ExcelTempleteParamData@@UAEXPAVBaseIOTools@@@Z 0052d340 f   ExcelTempleteParamData.obj
 0001:0012c550       ?createOwner@ExcelTempleteParamData@@UAEPAVBaseContainer@@PAV2@PAVBaseIOTools@@_N@Z 0052d550 f   ExcelTempleteParamData.obj
 0001:0012ca00       ??_EExcelTempleteParamData@@UAEPAXI@Z 0052da00 f i ExcelTempleteParamData.obj
 0001:0012ca00       ??_GExcelTempleteParamData@@UAEPAXI@Z 0052da00 f i ExcelTempleteParamData.obj
 0001:0012ca40       ??0MeasureWH@@QAE@XZ       0052da40 f   MeasureWH.obj
 0001:0012ca70       ??1MeasureWH@@QAE@XZ       0052da70 f   MeasureWH.obj
 0001:0012ca90       ??0SelectView@@QAE@XZ      0052da90 f   SelectView.obj
 0001:0012cae0       ??1SelectView@@UAE@XZ      0052dae0 f   SelectView.obj
 0001:0012cb40       ?init@SelectView@@QAEXXZ   0052db40 f   SelectView.obj
 0001:0012cb80       ?SetSelect@SelectView@@QAEXPAVViewObj@@W4Side@1@@Z 0052db80 f   SelectView.obj
 0001:0012cba0       ?getSelectLine@SelectView@@QAEPAVLine@@XZ 0052dba0 f   SelectView.obj
 0001:0012ccf0       ??_ESelectView@@UAEPAXI@Z  0052dcf0 f i SelectView.obj
 0001:0012ccf0       ??_GSelectView@@UAEPAXI@Z  0052dcf0 f i SelectView.obj
 0001:0012cd30       ??0MenStruationDataParam@@QAE@PAVBaseTemplate@@PAVCodeParams@@@Z 0052dd30 f   MenStruationDataParam.obj
 0001:0012cdb0       ??1MenStruationDataParam@@UAE@XZ 0052ddb0 f   MenStruationDataParam.obj
 0001:0012cde0       ?setMenstruationTempleteOwner@MenStruationDataParam@@QAEXPAVMenstruationTemplete@@@Z 0052dde0 f   MenStruationDataParam.obj
 0001:0012ce00       ?saveSelfData@MenStruationDataParam@@UAEXPAVBaseIOTools@@@Z 0052de00 f   MenStruationDataParam.obj
 0001:0012cee0       ?loadSelfData@MenStruationDataParam@@UAEXPAVBaseIOTools@@@Z 0052dee0 f   MenStruationDataParam.obj
 0001:0012cf20       ?createOwner@MenStruationDataParam@@UAEPAVBaseContainer@@PAV2@PAVBaseIOTools@@_N@Z 0052df20 f   MenStruationDataParam.obj
 0001:0012d250       ??_GMenStruationDataParam@@UAEPAXI@Z 0052e250 f i MenStruationDataParam.obj
 0001:0012d250       ??_EMenStruationDataParam@@UAEPAXI@Z 0052e250 f i MenStruationDataParam.obj
 0001:0012d290       ??0MenstruationTemplete@@QAE@PAVWriterManager@@PAVBaseTemplate@@HVQString@@_N@Z 0052e290 f   MenstruationTemplete.obj
 0001:0012d7b0       ??0MenstruationTemplete@@QAE@PAVWriterManager@@PAV0@@Z 0052e7b0 f   MenstruationTemplete.obj
 0001:0012dce0       ??1MenstruationTemplete@@UAE@XZ 0052ece0 f   MenstruationTemplete.obj
 0001:0012e380       ?mousePress@MenstruationTemplete@@UAEHHHHPAVBaseContainer@@@Z 0052f380 f   MenstruationTemplete.obj
 0001:0012e3d0       ?mouseRelease@MenstruationTemplete@@UAEHHHHPAVBaseContainer@@@Z 0052f3d0 f   MenstruationTemplete.obj
 0001:0012e400       ?mouseMove@MenstruationTemplete@@UAEHHHHPAVBaseContainer@@@Z 0052f400 f   MenstruationTemplete.obj
 0001:0012e410       ?mouseDrag@MenstruationTemplete@@UAEHHHHPAVBaseContainer@@@Z 0052f410 f   MenstruationTemplete.obj
 0001:0012e420       ?mouseDoublePress@MenstruationTemplete@@UAEHHHHPAVBaseContainer@@@Z 0052f420 f   MenstruationTemplete.obj
 0001:0012e790       ?mouseScroll@MenstruationTemplete@@UAEHHPAVBaseContainer@@@Z 0052f790 f   MenstruationTemplete.obj
 0001:0012e7b0       ?keyPress@MenstruationTemplete@@UAEHVQString@@PAVBaseContainer@@@Z 0052f7b0 f   MenstruationTemplete.obj
 0001:0012e930       ?keyRelease@MenstruationTemplete@@UAEHVQString@@PAVBaseContainer@@@Z 0052f930 f   MenstruationTemplete.obj
 0001:0012e960       ?initTxtWidgetChooseId@MenstruationTemplete@@QAEXXZ 0052f960 f   MenstruationTemplete.obj
 0001:0012e9d0       ?addAllChildToView@MenstruationTemplete@@QAEX_N@Z 0052f9d0 f   MenstruationTemplete.obj
 0001:0012e9e0       ?addAllChildToBufList@MenstruationTemplete@@UAEXPAV?$QList@PAVBaseContainer@@@@HH0@Z 0052f9e0 f   MenstruationTemplete.obj
 0001:0012ea70       ?creatLine@MenstruationTemplete@@QAEXXZ 0052fa70 f   MenstruationTemplete.obj
 0001:0012ebf0       ?initWidget@MenstruationTemplete@@QAEXXZ 0052fbf0 f   MenstruationTemplete.obj
 0001:0012ed50       ?setValue@MenstruationTemplete@@QAEXVQString@@000@Z 0052fd50 f   MenstruationTemplete.obj
 0001:0012eed0       ?setUpAndDownValue@MenstruationTemplete@@QAEXVQString@@0_N@Z 0052fed0 f   MenstruationTemplete.obj
 0001:0012efd0       ?addTextObjToRowContainer@MenstruationTemplete@@QAEX_N@Z 0052ffd0 f   MenstruationTemplete.obj
 0001:0012f210       ?setPostion@MenstruationTemplete@@QAEX_N@Z 00530210 f   MenstruationTemplete.obj
 0001:0012f4b0       ?refreshParentWH@MenstruationTemplete@@QAEXXZ 005304b0 f   MenstruationTemplete.obj
 0001:0012f600       ?getWidth@MenstruationTemplete@@QAEHXZ 00530600 f   MenstruationTemplete.obj
 0001:0012f630       ?addObjListToObjView@MenstruationTemplete@@QAEXPAV?$QList@PAVViewObj@@@@PAVViewObj@@@Z 00530630 f   MenstruationTemplete.obj
 0001:0012f720       ?setFocusData@MenstruationTemplete@@QAEXPAVStrContentData@@@Z 00530720 f   MenstruationTemplete.obj
 0001:0012f740       ?getSelfFocusData@MenstruationTemplete@@UAEPAVStrContentData@@XZ 00530740 f   MenstruationTemplete.obj
 0001:0012f760       ?setLeftTextWidget@MenstruationTemplete@@QAEXPAVTextWidget@@@Z 00530760 f   MenstruationTemplete.obj
 0001:0012f780       ?setRightTTextWidget@MenstruationTemplete@@QAEXPAVTextWidget@@@Z 00530780 f   MenstruationTemplete.obj
 0001:0012f7a0       ?setUpTextWidget@MenstruationTemplete@@QAEXPAVTextWidget@@@Z 005307a0 f   MenstruationTemplete.obj
 0001:0012f7c0       ?setDownTextWidget@MenstruationTemplete@@QAEXPAVTextWidget@@@Z 005307c0 f   MenstruationTemplete.obj
 0001:0012f7e0       ?getLeftTextWidget@MenstruationTemplete@@QAEPAVTextWidget@@XZ 005307e0 f   MenstruationTemplete.obj
 0001:0012f800       ?getRightTTextWidget@MenstruationTemplete@@QAEPAVTextWidget@@XZ 00530800 f   MenstruationTemplete.obj
 0001:0012f820       ?getUpTextWidget@MenstruationTemplete@@QAEPAVTextWidget@@XZ 00530820 f   MenstruationTemplete.obj
 0001:0012f840       ?getDownTextWidget@MenstruationTemplete@@QAEPAVTextWidget@@XZ 00530840 f   MenstruationTemplete.obj
 0001:0012f860       ?HandeRightMousePress@MenstruationTemplete@@QAEXXZ 00530860 f   MenstruationTemplete.obj
 0001:0012fb90       ?refreshTxtParam@MenstruationTemplete@@QAE_NPAVStrContentData@@@Z 00530b90 f   MenstruationTemplete.obj
 0001:0012fe20       ?setChildTxtParam@MenstruationTemplete@@QAEXPAVStrContentData@@@Z 00530e20 f   MenstruationTemplete.obj
 0001:0012fe90       ?setListObjTxtParam@MenstruationTemplete@@QAEXPAV?$QList@PAVViewObj@@@@PAVStrContentData@@@Z 00530e90 f   MenstruationTemplete.obj
 0001:0012fef0       ?getParagraphTemplete@MenstruationTemplete@@QAEPAVBaseParagraph@@XZ 00530ef0 f   MenstruationTemplete.obj
 0001:0012ff10       ?setTempleteProperty@MenstruationTemplete@@UAE_NAAV?$QMap@VQString@@V1@@@@Z 00530f10 f   MenstruationTemplete.obj
 0001:001302f0       ?setPropertyOnActionRedoOrUndo@MenstruationTemplete@@QAEXPAV?$QList@PAVViewObj@@@@0@Z 005312f0 f   MenstruationTemplete.obj
 0001:00130380       ?addSetTempletePropertyAction@MenstruationTemplete@@QAEXV?$QMap@VQString@@V1@@@0AAV?$QList@PAVViewObj@@@@1PAVViewObj@@D@Z 00531380 f   MenstruationTemplete.obj
 0001:001304b0       ?setDrawTxtParam@MenstruationTemplete@@UAE_NPAVStrContentData@@@Z 005314b0 f   MenstruationTemplete.obj
 0001:00130540       ?getWillShowObjList@MenstruationTemplete@@UAEXPAV?$QList@PAVViewObj@@@@@Z 00531540 f   MenstruationTemplete.obj
 0001:00130560       ?checkHorizontalWidthThanRow@MenstruationTemplete@@QAE_NPAV?$QList@PAVViewObj@@@@H@Z 00531560 f   MenstruationTemplete.obj
 0001:00131300       ??0?$QList@PAVViewObj@@@@QAE@ABV0@@Z 00532300 f i MenstruationTemplete.obj
 0001:00131420       ??0?$QListIterator@PAVViewObj@@@@QAE@ABV?$QList@PAVViewObj@@@@@Z 00532420 f i MenstruationTemplete.obj
 0001:001314a0       ??0const_iterator@?$QList@PAVViewObj@@@@QAE@PAUNode@1@@Z 005324a0 f i MenstruationTemplete.obj
 0001:001314c0       ??1?$QListIterator@PAVViewObj@@@@QAE@XZ 005324c0 f i MenstruationTemplete.obj
 0001:001314e0       ??9const_iterator@?$QList@PAVViewObj@@@@QBE_NABV01@@Z 005324e0 f i MenstruationTemplete.obj
 0001:00131520       ??Dconst_iterator@?$QList@PAVViewObj@@@@QBEABQAVViewObj@@XZ 00532520 f i MenstruationTemplete.obj
 0001:00131540       ??Econst_iterator@?$QList@PAVViewObj@@@@QAE?AV01@H@Z 00532540 f i MenstruationTemplete.obj
 0001:00131580       ??_GMenstruationTemplete@@UAEPAXI@Z 00532580 f i MenstruationTemplete.obj
 0001:00131580       ??_EMenstruationTemplete@@UAEPAXI@Z 00532580 f i MenstruationTemplete.obj
 0001:001315c0       ?constBegin@?$QList@PAVViewObj@@@@QBE?AVconst_iterator@1@XZ 005325c0 f i MenstruationTemplete.obj
 0001:001315f0       ?constEnd@?$QList@PAVViewObj@@@@QBE?AVconst_iterator@1@XZ 005325f0 f i MenstruationTemplete.obj
 0001:00131620       ?deleteNode@?$QMapData@VQString@@V1@@@QAEXPAU?$QMapNode@VQString@@V1@@@@Z 00532620 f i MenstruationTemplete.obj
 0001:00131680       ?hasNext@?$QListIterator@PAVViewObj@@@@QBE_NXZ 00532680 f i MenstruationTemplete.obj
 0001:001316b0       ?next@?$QListIterator@PAVViewObj@@@@QAEABQAVViewObj@@XZ 005326b0 f i MenstruationTemplete.obj
 0001:001316e0       ?remove@?$QMap@VQString@@V1@@@QAEHABVQString@@@Z 005326e0 f i MenstruationTemplete.obj
 0001:00131750       ??0MacroTemplete@@QAE@PAVWriterManager@@PAVBaseTemplate@@HVQString@@_N@Z 00532750 f   MacroTemplete.obj
 0001:00131860       ??0MacroTemplete@@QAE@PAVWriterManager@@PAV0@@Z 00532860 f   MacroTemplete.obj
 0001:00131a20       ??1MacroTemplete@@UAE@XZ   00532a20 f   MacroTemplete.obj
 0001:00131b30       ?initWidget@MacroTemplete@@QAEXXZ 00532b30 f   MacroTemplete.obj
 0001:00131d60       ?setTitle@MacroTemplete@@UAEXVQString@@@Z 00532d60 f   MacroTemplete.obj
 0001:00131de0       ?getTitle@MacroTemplete@@UAE?AVQString@@XZ 00532de0 f   MacroTemplete.obj
 0001:00131e20       ?setContent@MacroTemplete@@QAEXVQString@@_N1@Z 00532e20 f   MacroTemplete.obj
 0001:00131f80       ?getContent@MacroTemplete@@QAE?AVQString@@XZ 00532f80 f   MacroTemplete.obj
 0001:00131fc0       ?setTitle@MacroTemplete@@QAEXPAVTextWidget@@@Z 00532fc0 f   MacroTemplete.obj
 0001:00131fe0       ?setContent@MacroTemplete@@QAEXPAVBracketWidget@@@Z 00532fe0 f   MacroTemplete.obj
 0001:00132000       ?setId@MacroTemplete@@QAEXH@Z 00533000 f   MacroTemplete.obj
 0001:00132020       ?getId@MacroTemplete@@QAEHXZ 00533020 f   MacroTemplete.obj
 0001:00132040       ?mousePress@MacroTemplete@@UAEHHHHPAVBaseContainer@@@Z 00533040 f   MacroTemplete.obj
 0001:001322c0       ?mouseRelease@MacroTemplete@@UAEHHHHPAVBaseContainer@@@Z 005332c0 f   MacroTemplete.obj
 0001:001322d0       ?mouseMove@MacroTemplete@@UAEHHHHPAVBaseContainer@@@Z 005332d0 f   MacroTemplete.obj
 0001:001322f0       ?mouseDrag@MacroTemplete@@UAEHHHHPAVBaseContainer@@@Z 005332f0 f   MacroTemplete.obj
 0001:00132310       ?mouseDoublePress@MacroTemplete@@UAEHHHHPAVBaseContainer@@@Z 00533310 f   MacroTemplete.obj
 0001:00132320       ?mouseScroll@MacroTemplete@@UAEHHPAVBaseContainer@@@Z 00533320 f   MacroTemplete.obj
 0001:00132340       ?keyPress@MacroTemplete@@UAEHVQString@@PAVBaseContainer@@@Z 00533340 f   MacroTemplete.obj
 0001:00132540       ?keyRelease@MacroTemplete@@UAEHVQString@@PAVBaseContainer@@@Z 00533540 f   MacroTemplete.obj
 0001:001325e0       ?addWidgetToRow@MacroTemplete@@UAEX_N@Z 005335e0 f   MacroTemplete.obj
 0001:001325f0       ?setDrawTxtParam@MacroTemplete@@UAE_NPAVStrContentData@@@Z 005335f0 f   MacroTemplete.obj
 0001:00132660       ?getSelfFocusData@MacroTemplete@@UAEPAVStrContentData@@XZ 00533660 f   MacroTemplete.obj
 0001:00132680       ?setTempleteProperty@MacroTemplete@@UAE_NAAV?$QMap@VQString@@V1@@@@Z 00533680 f   MacroTemplete.obj
 0001:00132a00       ?addSetTempletePropertyAction@MacroTemplete@@QAEXAAV?$QMap@VQString@@V1@@@0PAV?$QList@PAVViewObj@@@@111PAVViewObj@@D@Z 00533a00 f   MacroTemplete.obj
 0001:00132b70       ?setPropertyOnActionRedoOrUndo@MacroTemplete@@QAEXAAV?$QMap@VQString@@V1@@@PAV?$QList@PAVViewObj@@@@111@Z 00533b70 f   MacroTemplete.obj
 0001:00132e20       ?getWillShowObjList@MacroTemplete@@UAEXPAV?$QList@PAVViewObj@@@@@Z 00533e20 f   MacroTemplete.obj
 0001:00132e60       ?haveDeleteFromParent@MacroTemplete@@UAEXPAVBaseContainer@@@Z 00533e60 f   MacroTemplete.obj
 0001:00132e90       ?haveAddToParent@MacroTemplete@@UAEXPAVBaseContainer@@@Z 00533e90 f   MacroTemplete.obj
 0001:00133490       ??_GMacroTemplete@@UAEPAXI@Z 00534490 f i MacroTemplete.obj
 0001:00133490       ??_EMacroTemplete@@UAEPAXI@Z 00534490 f i MacroTemplete.obj
 0001:001334d0       ??0MacroTempleteParam@@QAE@PAVBaseTemplate@@PAVCodeParams@@@Z 005344d0 f   MacroTempleteParam.obj
 0001:00133520       ??1MacroTempleteParam@@UAE@XZ 00534520 f   MacroTempleteParam.obj
 0001:00133550       ?setMcrodTempleteOwner@MacroTempleteParam@@QAEXPAVMacroTemplete@@@Z 00534550 f   MacroTempleteParam.obj
 0001:00133570       ?saveSelfData@MacroTempleteParam@@UAEXPAVBaseIOTools@@@Z 00534570 f   MacroTempleteParam.obj
 0001:001335b0       ?loadSelfData@MacroTempleteParam@@UAEXPAVBaseIOTools@@@Z 005345b0 f   MacroTempleteParam.obj
 0001:001335e0       ?createOwner@MacroTempleteParam@@UAEPAVBaseContainer@@PAV2@PAVBaseIOTools@@_N@Z 005345e0 f   MacroTempleteParam.obj
 0001:00133760       ??_GMacroTempleteParam@@UAEPAXI@Z 00534760 f i MacroTempleteParam.obj
 0001:00133760       ??_EMacroTempleteParam@@UAEPAXI@Z 00534760 f i MacroTempleteParam.obj
 0001:001337a0       ??0StructurationTextParam@@QAE@PAVBaseTemplate@@PAVCodeParams@@@Z 005347a0 f   StructurationTextParam.obj
 0001:001338b0       ??1StructurationTextParam@@UAE@XZ 005348b0 f   StructurationTextParam.obj
 0001:001339c0       ?setTextTempleteOwner@StructurationTextParam@@QAEXPAVStructurationTextWidget@@@Z 005349c0 f   StructurationTextParam.obj
 0001:001339e0       ?saveSelfData@StructurationTextParam@@UAEXPAVBaseIOTools@@@Z 005349e0 f   StructurationTextParam.obj
 0001:00133d30       ?loadSelfData@StructurationTextParam@@UAEXPAVBaseIOTools@@@Z 00534d30 f   StructurationTextParam.obj
 0001:00133fd0       ?createOwner@StructurationTextParam@@UAEPAVBaseContainer@@PAV2@PAVBaseIOTools@@_N@Z 00534fd0 f   StructurationTextParam.obj
 0001:00134200       ?saveStrAndDefaultStr@StructurationTextParam@@AAEXPAVBaseIOTools@@@Z 00535200 f   StructurationTextParam.obj
 0001:00134300       ?loadStrAndDefaultStr@StructurationTextParam@@AAEXPAVBaseIOTools@@@Z 00535300 f   StructurationTextParam.obj
 0001:001346e0       ??_EStructurationTextParam@@UAEPAXI@Z 005356e0 f i StructurationTextParam.obj
 0001:001346e0       ??_GStructurationTextParam@@UAEPAXI@Z 005356e0 f i StructurationTextParam.obj
 0001:00134720       ??0StructurationTextWidget@@QAE@PAVWriterManager@@PAVBaseTemplate@@H@Z 00535720 f   StructurationTextWidget.obj
 0001:00134840       ??0StructurationTextWidget@@QAE@PAVWriterManager@@PAV0@@Z 00535840 f   StructurationTextWidget.obj
 0001:00134a70       ??1StructurationTextWidget@@UAE@XZ 00535a70 f   StructurationTextWidget.obj
 0001:00134b40       ?initNumercial@StructurationTextWidget@@QAEXXZ 00535b40 f   StructurationTextWidget.obj
 0001:00134ca0       ?mousePress@StructurationTextWidget@@UAEHHHHPAVBaseContainer@@@Z 00535ca0 f   StructurationTextWidget.obj
 0001:00135060       ?mouseRelease@StructurationTextWidget@@UAEHHHHPAVBaseContainer@@@Z 00536060 f   StructurationTextWidget.obj
 0001:00135070       ?mouseMove@StructurationTextWidget@@UAEHHHHPAVBaseContainer@@@Z 00536070 f   StructurationTextWidget.obj
 0001:00135090       ?mouseDrag@StructurationTextWidget@@UAEHHHHPAVBaseContainer@@@Z 00536090 f   StructurationTextWidget.obj
 0001:001350e0       ?mouseDoublePress@StructurationTextWidget@@UAEHHHHPAVBaseContainer@@@Z 005360e0 f   StructurationTextWidget.obj
 0001:00135500       ?mouseScroll@StructurationTextWidget@@UAEHHPAVBaseContainer@@@Z 00536500 f   StructurationTextWidget.obj
 0001:00135520       ?keyPress@StructurationTextWidget@@UAEHVQString@@PAVBaseContainer@@@Z 00536520 f   StructurationTextWidget.obj
 0001:00135800       ?keyRelease@StructurationTextWidget@@UAEHVQString@@PAVBaseContainer@@@Z 00536800 f   StructurationTextWidget.obj
 0001:001358e0       ?setValueType@StructurationTextWidget@@QAEXVQString@@@Z 005368e0 f   StructurationTextWidget.obj
 0001:00135950       ?getValueType@StructurationTextWidget@@QAE?AVQString@@XZ 00536950 f   StructurationTextWidget.obj
 0001:00135990       ?setMaxValue@StructurationTextWidget@@QAEXVQString@@@Z 00536990 f   StructurationTextWidget.obj
 0001:00135a00       ?getMaxValue@StructurationTextWidget@@QAE?AVQString@@XZ 00536a00 f   StructurationTextWidget.obj
 0001:00135a40       ?setMinValue@StructurationTextWidget@@QAEXVQString@@@Z 00536a40 f   StructurationTextWidget.obj
 0001:00135ab0       ?getMinValue@StructurationTextWidget@@QAE?AVQString@@XZ 00536ab0 f   StructurationTextWidget.obj
 0001:00135af0       ?setLength@StructurationTextWidget@@QAEXVQString@@@Z 00536af0 f   StructurationTextWidget.obj
 0001:00135b60       ?getLength@StructurationTextWidget@@QAE?AVQString@@XZ 00536b60 f   StructurationTextWidget.obj
 0001:00135ba0       ?setDicimalLen@StructurationTextWidget@@QAEXVQString@@@Z 00536ba0 f   StructurationTextWidget.obj
 0001:00135c10       ?getDicimalLen@StructurationTextWidget@@QAE?AVQString@@XZ 00536c10 f   StructurationTextWidget.obj
 0001:00135c50       ?setTimeFomat@StructurationTextWidget@@QAEXVQString@@@Z 00536c50 f   StructurationTextWidget.obj
 0001:00135cc0       ?getTimeFomat@StructurationTextWidget@@QAE?AVQString@@XZ 00536cc0 f   StructurationTextWidget.obj
 0001:00135d00       ?setHadGetCurrentTime@StructurationTextWidget@@QAEX_N@Z 00536d00 f   StructurationTextWidget.obj
 0001:00135d20       ?getHadGetCurrentTime@StructurationTextWidget@@QAE_NXZ 00536d20 f   StructurationTextWidget.obj
 0001:00135d40       ?setIsTwentyFourFomat@StructurationTextWidget@@QAEX_N@Z 00536d40 f   StructurationTextWidget.obj
 0001:00135d60       ?getIsTwentyFourFomat@StructurationTextWidget@@QAE_NXZ 00536d60 f   StructurationTextWidget.obj
 0001:00135d80       ?setTempleteProperty@StructurationTextWidget@@UAE_NAAV?$QMap@VQString@@V1@@@PAV?$QList@PAVViewObj@@@@1@Z 00536d80 f   StructurationTextWidget.obj
 0001:00136450       ?setPropertyOnActionRedoOrUndo@StructurationTextWidget@@UAEXAAV?$QMap@VQString@@V1@@@PAV?$QList@PAVViewObj@@@@1@Z 00537450 f   StructurationTextWidget.obj
 0001:00136480       ?addSetTempletePropertyAction@StructurationTextWidget@@QAEXAAV?$QMap@VQString@@V1@@@0AAV?$QList@PAVViewObj@@@@PAVViewObj@@D@Z 00537480 f   StructurationTextWidget.obj
 0001:001365c0       ?getCurrentTime@StructurationTextWidget@@QAEXXZ 005375c0 f   StructurationTextWidget.obj
 0001:00136760       ?isCanGetCurrentTime@StructurationTextWidget@@QAE_NXZ 00537760 f   StructurationTextWidget.obj
 0001:00137080       ??_EStructurationTextWidget@@UAEPAXI@Z 00538080 f i StructurationTextWidget.obj
 0001:00137080       ??_GStructurationTextWidget@@UAEPAXI@Z 00538080 f i StructurationTextWidget.obj
 0001:001370c0       ??0TempleteTypeEnumeration@@QAE@XZ 005380c0 f   TempleteTypeEnumeration.obj
 0001:001370d0       ??1TempleteTypeEnumeration@@QAE@XZ 005380d0 f   TempleteTypeEnumeration.obj
 0001:001370e0       ?showDialog@TempleteTypeEnumeration@@SA_NPAV?$QMap@VQString@@V1@@@_N@Z 005380e0 f   TempleteTypeEnumeration.obj
 0001:00137240       ?getMacroIdBaseIdString@TempleteTypeEnumeration@@SAHVQString@@@Z 00538240 f   TempleteTypeEnumeration.obj
 0001:00137d10       ??0TempleteViewObj@@QAE@PAVWriterManager@@PAVBaseTemplate@@H@Z 00538d10 f   TempleteViewObj.obj
 0001:00137e10       ??0TempleteViewObj@@QAE@PAVWriterManager@@PAV0@@Z 00538e10 f   TempleteViewObj.obj
 0001:00137f10       ??1TempleteViewObj@@UAE@XZ 00538f10 f   TempleteViewObj.obj
 0001:00137ff0       ?setDrawTxtParam@TempleteViewObj@@UAE_NPAVStrContentData@@@Z 00538ff0 f   TempleteViewObj.obj
 0001:00138160       ??_GTempleteViewObj@@UAEPAXI@Z 00539160 f i TempleteViewObj.obj
 0001:00138160       ??_ETempleteViewObj@@UAEPAXI@Z 00539160 f i TempleteViewObj.obj
 0001:001381a0       ??0TempleteViewObjMouseManager@@QAE@PAVViewObj@@@Z 005391a0 f   TempleteViewObjMouseManager.obj
 0001:001381d0       ??1TempleteViewObjMouseManager@@UAE@XZ 005391d0 f   TempleteViewObjMouseManager.obj
 0001:001381f0       ?mousePress@TempleteViewObjMouseManager@@UAEHHHH@Z 005391f0 f   TempleteViewObjMouseManager.obj
 0001:001384f0       ?mouseRelease@TempleteViewObjMouseManager@@UAEHHHH@Z 005394f0 f   TempleteViewObjMouseManager.obj
 0001:00138780       ?mouseMove@TempleteViewObjMouseManager@@UAEHHHH@Z 00539780 f   TempleteViewObjMouseManager.obj
 0001:00138970       ?mouseDrag@TempleteViewObjMouseManager@@UAEHHHH@Z 00539970 f   TempleteViewObjMouseManager.obj
 0001:00138bc0       ?mouseDoublePress@TempleteViewObjMouseManager@@UAEHHHH@Z 00539bc0 f   TempleteViewObjMouseManager.obj
 0001:00138dd0       ?mouseScroll@TempleteViewObjMouseManager@@UAEHH@Z 00539dd0 f   TempleteViewObjMouseManager.obj
 0001:00139250       ??_ETempleteViewObjMouseManager@@UAEPAXI@Z 0053a250 f i TempleteViewObjMouseManager.obj
 0001:00139250       ??_GTempleteViewObjMouseManager@@UAEPAXI@Z 0053a250 f i TempleteViewObjMouseManager.obj
